ARM GAS  C:\Users\tianx\AppData\Local\Temp\ccD0IzLd.s 			page 1


   1              		.cpu cortex-m3
   2              		.eabi_attribute 20, 1
   3              		.eabi_attribute 21, 1
   4              		.eabi_attribute 23, 3
   5              		.eabi_attribute 24, 1
   6              		.eabi_attribute 25, 1
   7              		.eabi_attribute 26, 1
   8              		.eabi_attribute 30, 1
   9              		.eabi_attribute 34, 1
  10              		.eabi_attribute 18, 4
  11              		.file	"cmsis_os.c"
  12              		.text
  13              	.Ltext0:
  14              		.cfi_sections	.debug_frame
  15              		.section	.text.priority_cmsis2knl,"ax",%progbits
  16              		.align	1
  17              		.arch armv7-m
  18              		.syntax unified
  19              		.thumb
  20              		.thumb_func
  21              		.fpu softvfp
  23              	priority_cmsis2knl:
  24              	.LVL0:
  25              	.LFB110:
  26              		.file 1 "..//osal/cmsis_os/cmsis_os.c"
   1:..//osal/cmsis_os/cmsis_os.c **** #include <string.h>
   2:..//osal/cmsis_os/cmsis_os.c **** #include "cmsis_os.h"
   3:..//osal/cmsis_os/cmsis_os.c **** 
   4:..//osal/cmsis_os/cmsis_os.c **** static k_prio_t priority_cmsis2knl(osPriority prio)
   5:..//osal/cmsis_os/cmsis_os.c **** {
  27              		.loc 1 5 1 view -0
  28              		.cfi_startproc
  29              		@ args = 0, pretend = 0, frame = 0
  30              		@ frame_needed = 0, uses_anonymous_args = 0
  31              		@ link register save eliminated.
   6:..//osal/cmsis_os/cmsis_os.c ****     if (prio == osPriorityError) {
  32              		.loc 1 6 5 view .LVU1
  33              		.loc 1 6 8 is_stmt 0 view .LVU2
  34 0000 8428     		cmp	r0, #132
  35 0002 03D0     		beq	.L3
   7:..//osal/cmsis_os/cmsis_os.c ****         return K_TASK_PRIO_INVALID;
   8:..//osal/cmsis_os/cmsis_os.c ****     }
   9:..//osal/cmsis_os/cmsis_os.c **** 
  10:..//osal/cmsis_os/cmsis_os.c ****     return (k_prio_t)(3 - prio);
  36              		.loc 1 10 5 is_stmt 1 view .LVU3
  37              		.loc 1 10 12 is_stmt 0 view .LVU4
  38 0004 C0F10300 		rsb	r0, r0, #3
  39              	.LVL1:
  40              		.loc 1 10 12 view .LVU5
  41 0008 C0B2     		uxtb	r0, r0
  42 000a 7047     		bx	lr
  43              	.LVL2:
  44              	.L3:
   7:..//osal/cmsis_os/cmsis_os.c ****         return K_TASK_PRIO_INVALID;
  45              		.loc 1 7 16 view .LVU6
  46 000c 0820     		movs	r0, #8
  47              	.LVL3:
ARM GAS  C:\Users\tianx\AppData\Local\Temp\ccD0IzLd.s 			page 2


  11:..//osal/cmsis_os/cmsis_os.c **** }
  48              		.loc 1 11 1 view .LVU7
  49 000e 7047     		bx	lr
  50              		.cfi_endproc
  51              	.LFE110:
  53              		.section	.text.priority_knl2cmsis,"ax",%progbits
  54              		.align	1
  55              		.syntax unified
  56              		.thumb
  57              		.thumb_func
  58              		.fpu softvfp
  60              	priority_knl2cmsis:
  61              	.LVL4:
  62              	.LFB111:
  12:..//osal/cmsis_os/cmsis_os.c **** 
  13:..//osal/cmsis_os/cmsis_os.c **** static osPriority priority_knl2cmsis(k_prio_t prio)
  14:..//osal/cmsis_os/cmsis_os.c **** {
  63              		.loc 1 14 1 is_stmt 1 view -0
  64              		.cfi_startproc
  65              		@ args = 0, pretend = 0, frame = 0
  66              		@ frame_needed = 0, uses_anonymous_args = 0
  67              		@ link register save eliminated.
  15:..//osal/cmsis_os/cmsis_os.c ****     return (osPriority)(3 - prio);
  68              		.loc 1 15 5 view .LVU9
  16:..//osal/cmsis_os/cmsis_os.c **** }
  69              		.loc 1 16 1 is_stmt 0 view .LVU10
  70 0000 C0F10300 		rsb	r0, r0, #3
  71              	.LVL5:
  72              		.loc 1 16 1 view .LVU11
  73 0004 7047     		bx	lr
  74              		.cfi_endproc
  75              	.LFE111:
  77              		.section	.text.errno_knl2cmsis,"ax",%progbits
  78              		.align	1
  79              		.syntax unified
  80              		.thumb
  81              		.thumb_func
  82              		.fpu softvfp
  84              	errno_knl2cmsis:
  85              	.LVL6:
  86              	.LFB112:
  17:..//osal/cmsis_os/cmsis_os.c **** 
  18:..//osal/cmsis_os/cmsis_os.c **** static osStatus errno_knl2cmsis(k_err_t err)
  19:..//osal/cmsis_os/cmsis_os.c **** {
  87              		.loc 1 19 1 is_stmt 1 view -0
  88              		.cfi_startproc
  89              		@ args = 0, pretend = 0, frame = 0
  90              		@ frame_needed = 0, uses_anonymous_args = 0
  91              		@ link register save eliminated.
  20:..//osal/cmsis_os/cmsis_os.c ****     return err == K_ERR_NONE ? osOK : osErrorOS;
  92              		.loc 1 20 5 view .LVU13
  93              		.loc 1 20 37 is_stmt 0 view .LVU14
  94 0000 00B9     		cbnz	r0, .L8
  95              	.LVL7:
  96              	.L5:
  21:..//osal/cmsis_os/cmsis_os.c **** }
  97              		.loc 1 21 1 view .LVU15
ARM GAS  C:\Users\tianx\AppData\Local\Temp\ccD0IzLd.s 			page 3


  98 0002 7047     		bx	lr
  99              	.LVL8:
 100              	.L8:
  20:..//osal/cmsis_os/cmsis_os.c ****     return err == K_ERR_NONE ? osOK : osErrorOS;
 101              		.loc 1 20 37 view .LVU16
 102 0004 FF20     		movs	r0, #255
 103              	.LVL9:
  20:..//osal/cmsis_os/cmsis_os.c ****     return err == K_ERR_NONE ? osOK : osErrorOS;
 104              		.loc 1 20 37 view .LVU17
 105 0006 FCE7     		b	.L5
 106              		.cfi_endproc
 107              	.LFE112:
 109              		.section	.text.osKernelStart,"ax",%progbits
 110              		.align	1
 111              		.global	osKernelStart
 112              		.syntax unified
 113              		.thumb
 114              		.thumb_func
 115              		.fpu softvfp
 117              	osKernelStart:
 118              	.LFB113:
  22:..//osal/cmsis_os/cmsis_os.c **** 
  23:..//osal/cmsis_os/cmsis_os.c **** //  ==== Kernel Control Functions ====
  24:..//osal/cmsis_os/cmsis_os.c **** osStatus osKernelStart(void)
  25:..//osal/cmsis_os/cmsis_os.c **** {
 119              		.loc 1 25 1 is_stmt 1 view -0
 120              		.cfi_startproc
 121              		@ args = 0, pretend = 0, frame = 0
 122              		@ frame_needed = 0, uses_anonymous_args = 0
 123 0000 08B5     		push	{r3, lr}
 124              	.LCFI0:
 125              		.cfi_def_cfa_offset 8
 126              		.cfi_offset 3, -8
 127              		.cfi_offset 14, -4
  26:..//osal/cmsis_os/cmsis_os.c ****     return errno_knl2cmsis(tos_knl_start());
 128              		.loc 1 26 5 view .LVU19
 129              		.loc 1 26 12 is_stmt 0 view .LVU20
 130 0002 FFF7FEFF 		bl	tos_knl_start
 131              	.LVL10:
 132 0006 FFF7FEFF 		bl	errno_knl2cmsis
 133              	.LVL11:
  27:..//osal/cmsis_os/cmsis_os.c **** }
 134              		.loc 1 27 1 view .LVU21
 135 000a 08BD     		pop	{r3, pc}
 136              		.cfi_endproc
 137              	.LFE113:
 139              		.section	.text.osKernelInitialize,"ax",%progbits
 140              		.align	1
 141              		.global	osKernelInitialize
 142              		.syntax unified
 143              		.thumb
 144              		.thumb_func
 145              		.fpu softvfp
 147              	osKernelInitialize:
 148              	.LFB114:
  28:..//osal/cmsis_os/cmsis_os.c **** 
  29:..//osal/cmsis_os/cmsis_os.c **** /**
ARM GAS  C:\Users\tianx\AppData\Local\Temp\ccD0IzLd.s 			page 4


  30:..//osal/cmsis_os/cmsis_os.c ****  * @brief Initialize the RTOS Kernel for creating objects.
  31:..//osal/cmsis_os/cmsis_os.c ****  * @return status code that indicates the execution status of the function.
  32:..//osal/cmsis_os/cmsis_os.c ****  */
  33:..//osal/cmsis_os/cmsis_os.c **** osStatus osKernelInitialize(void)
  34:..//osal/cmsis_os/cmsis_os.c **** {
 149              		.loc 1 34 1 is_stmt 1 view -0
 150              		.cfi_startproc
 151              		@ args = 0, pretend = 0, frame = 0
 152              		@ frame_needed = 0, uses_anonymous_args = 0
 153 0000 08B5     		push	{r3, lr}
 154              	.LCFI1:
 155              		.cfi_def_cfa_offset 8
 156              		.cfi_offset 3, -8
 157              		.cfi_offset 14, -4
  35:..//osal/cmsis_os/cmsis_os.c ****     return errno_knl2cmsis(tos_knl_init());
 158              		.loc 1 35 5 view .LVU23
 159              		.loc 1 35 12 is_stmt 0 view .LVU24
 160 0002 FFF7FEFF 		bl	tos_knl_init
 161              	.LVL12:
 162 0006 FFF7FEFF 		bl	errno_knl2cmsis
 163              	.LVL13:
  36:..//osal/cmsis_os/cmsis_os.c **** }
 164              		.loc 1 36 1 view .LVU25
 165 000a 08BD     		pop	{r3, pc}
 166              		.cfi_endproc
 167              	.LFE114:
 169              		.section	.text.osKernelRunning,"ax",%progbits
 170              		.align	1
 171              		.global	osKernelRunning
 172              		.syntax unified
 173              		.thumb
 174              		.thumb_func
 175              		.fpu softvfp
 177              	osKernelRunning:
 178              	.LFB115:
  37:..//osal/cmsis_os/cmsis_os.c **** 
  38:..//osal/cmsis_os/cmsis_os.c **** /**
  39:..//osal/cmsis_os/cmsis_os.c ****  * @brief Check if the RTOS kernel is already started.
  40:..//osal/cmsis_os/cmsis_os.c ****  * @retval #0    RTOS is not started
  41:..//osal/cmsis_os/cmsis_os.c ****  * @retval #1    RTOS is started.
  42:..//osal/cmsis_os/cmsis_os.c ****  */
  43:..//osal/cmsis_os/cmsis_os.c **** int32_t osKernelRunning(void)
  44:..//osal/cmsis_os/cmsis_os.c **** {
 179              		.loc 1 44 1 is_stmt 1 view -0
 180              		.cfi_startproc
 181              		@ args = 0, pretend = 0, frame = 0
 182              		@ frame_needed = 0, uses_anonymous_args = 0
 183 0000 08B5     		push	{r3, lr}
 184              	.LCFI2:
 185              		.cfi_def_cfa_offset 8
 186              		.cfi_offset 3, -8
 187              		.cfi_offset 14, -4
  45:..//osal/cmsis_os/cmsis_os.c ****     return tos_knl_is_running();
 188              		.loc 1 45 5 view .LVU27
 189              		.loc 1 45 12 is_stmt 0 view .LVU28
 190 0002 FFF7FEFF 		bl	tos_knl_is_running
 191              	.LVL14:
ARM GAS  C:\Users\tianx\AppData\Local\Temp\ccD0IzLd.s 			page 5


  46:..//osal/cmsis_os/cmsis_os.c **** }
 192              		.loc 1 46 1 view .LVU29
 193 0006 08BD     		pop	{r3, pc}
 194              		.cfi_endproc
 195              	.LFE115:
 197              		.section	.text.osKernelSysTick,"ax",%progbits
 198              		.align	1
 199              		.global	osKernelSysTick
 200              		.syntax unified
 201              		.thumb
 202              		.thumb_func
 203              		.fpu softvfp
 205              	osKernelSysTick:
 206              	.LFB116:
  47:..//osal/cmsis_os/cmsis_os.c **** 
  48:..//osal/cmsis_os/cmsis_os.c **** #if (defined (osFeature_SysTick)  &&  (osFeature_SysTick != 0))     // System Timer available
  49:..//osal/cmsis_os/cmsis_os.c **** 
  50:..//osal/cmsis_os/cmsis_os.c **** /**
  51:..//osal/cmsis_os/cmsis_os.c ****  * @brief Get the RTOS kernel system timer counter
  52:..//osal/cmsis_os/cmsis_os.c ****  * @return RTOS kernel system timer as 32-bit value
  53:..//osal/cmsis_os/cmsis_os.c ****  */
  54:..//osal/cmsis_os/cmsis_os.c **** uint32_t osKernelSysTick(void)
  55:..//osal/cmsis_os/cmsis_os.c **** {
 207              		.loc 1 55 1 is_stmt 1 view -0
 208              		.cfi_startproc
 209              		@ args = 0, pretend = 0, frame = 0
 210              		@ frame_needed = 0, uses_anonymous_args = 0
 211 0000 08B5     		push	{r3, lr}
 212              	.LCFI3:
 213              		.cfi_def_cfa_offset 8
 214              		.cfi_offset 3, -8
 215              		.cfi_offset 14, -4
  56:..//osal/cmsis_os/cmsis_os.c ****     return tos_systick_get();
 216              		.loc 1 56 5 view .LVU31
 217              		.loc 1 56 12 is_stmt 0 view .LVU32
 218 0002 FFF7FEFF 		bl	tos_systick_get
 219              	.LVL15:
  57:..//osal/cmsis_os/cmsis_os.c **** }
 220              		.loc 1 57 1 view .LVU33
 221 0006 08BD     		pop	{r3, pc}
 222              		.cfi_endproc
 223              	.LFE116:
 225              		.section	.text.osThreadCreate,"ax",%progbits
 226              		.align	1
 227              		.global	osThreadCreate
 228              		.syntax unified
 229              		.thumb
 230              		.thumb_func
 231              		.fpu softvfp
 233              	osThreadCreate:
 234              	.LVL16:
 235              	.LFB117:
  58:..//osal/cmsis_os/cmsis_os.c **** 
  59:..//osal/cmsis_os/cmsis_os.c **** #endif
  60:..//osal/cmsis_os/cmsis_os.c **** 
  61:..//osal/cmsis_os/cmsis_os.c **** 
  62:..//osal/cmsis_os/cmsis_os.c **** //  ==== Thread Management ====
ARM GAS  C:\Users\tianx\AppData\Local\Temp\ccD0IzLd.s 			page 6


  63:..//osal/cmsis_os/cmsis_os.c **** 
  64:..//osal/cmsis_os/cmsis_os.c **** /**
  65:..//osal/cmsis_os/cmsis_os.c ****  * @brief Create a thread and add it to Active Threads and set it to state READY.
  66:..//osal/cmsis_os/cmsis_os.c ****  * @param[in]   thread_def  thread definition referenced with \ref osThread.
  67:..//osal/cmsis_os/cmsis_os.c ****  * @param[in]   argument    pointer that is passed to the thread function as start argument.
  68:..//osal/cmsis_os/cmsis_os.c ****  * @return  thread ID for reference by other functions or NULL in case of error.
  69:..//osal/cmsis_os/cmsis_os.c ****  */
  70:..//osal/cmsis_os/cmsis_os.c **** osThreadId osThreadCreate(const osThreadDef_t *thread_def, void *argument)
  71:..//osal/cmsis_os/cmsis_os.c **** {
 236              		.loc 1 71 1 is_stmt 1 view -0
 237              		.cfi_startproc
 238              		@ args = 0, pretend = 0, frame = 8
 239              		@ frame_needed = 0, uses_anonymous_args = 0
 240              		.loc 1 71 1 is_stmt 0 view .LVU35
 241 0000 2DE9F041 		push	{r4, r5, r6, r7, r8, lr}
 242              	.LCFI4:
 243              		.cfi_def_cfa_offset 24
 244              		.cfi_offset 4, -24
 245              		.cfi_offset 5, -20
 246              		.cfi_offset 6, -16
 247              		.cfi_offset 7, -12
 248              		.cfi_offset 8, -8
 249              		.cfi_offset 14, -4
 250 0004 86B0     		sub	sp, sp, #24
 251              	.LCFI5:
 252              		.cfi_def_cfa_offset 48
  72:..//osal/cmsis_os/cmsis_os.c ****     k_err_t err;
 253              		.loc 1 72 5 is_stmt 1 view .LVU36
  73:..//osal/cmsis_os/cmsis_os.c **** 
  74:..//osal/cmsis_os/cmsis_os.c ****     if (!thread_def) {
 254              		.loc 1 74 5 view .LVU37
 255              		.loc 1 74 8 is_stmt 0 view .LVU38
 256 0006 0446     		mov	r4, r0
 257 0008 0028     		cmp	r0, #0
 258 000a 32D0     		beq	.L21
 259 000c 0F46     		mov	r7, r1
  75:..//osal/cmsis_os/cmsis_os.c ****         return NULL;
  76:..//osal/cmsis_os/cmsis_os.c ****     }
  77:..//osal/cmsis_os/cmsis_os.c **** 
  78:..//osal/cmsis_os/cmsis_os.c **** #if TOS_CFG_TASK_DYNAMIC_CREATE_EN > 0u
  79:..//osal/cmsis_os/cmsis_os.c ****     if (!thread_def->stackbase && !thread_def->task) {
 260              		.loc 1 79 5 is_stmt 1 view .LVU39
 261              		.loc 1 79 20 is_stmt 0 view .LVU40
 262 000e 0669     		ldr	r6, [r0, #16]
 263              		.loc 1 79 8 view .LVU41
 264 0010 C6B1     		cbz	r6, .L24
 265              	.L19:
  80:..//osal/cmsis_os/cmsis_os.c ****         k_task_t *task;
  81:..//osal/cmsis_os/cmsis_os.c ****         err = tos_task_create_dyn(&task, thread_def->name, (k_task_entry_t)thread_def->pthread,
  82:..//osal/cmsis_os/cmsis_os.c ****                                 argument, priority_cmsis2knl(thread_def->tpriority),
  83:..//osal/cmsis_os/cmsis_os.c ****                                 thread_def->stacksize, thread_def->timeslice);
  84:..//osal/cmsis_os/cmsis_os.c ****         return err == K_ERR_NONE ? task : NULL;
  85:..//osal/cmsis_os/cmsis_os.c ****     }
  86:..//osal/cmsis_os/cmsis_os.c **** #endif
  87:..//osal/cmsis_os/cmsis_os.c **** 
  88:..//osal/cmsis_os/cmsis_os.c ****     err = tos_task_create((k_task_t *)thread_def->task, thread_def->name, (k_task_entry_t)thread_de
 266              		.loc 1 88 5 is_stmt 1 view .LVU42
ARM GAS  C:\Users\tianx\AppData\Local\Temp\ccD0IzLd.s 			page 7


 267              		.loc 1 88 49 is_stmt 0 view .LVU43
 268 0012 E569     		ldr	r5, [r4, #28]
 269              		.loc 1 88 101 view .LVU44
 270 0014 D4F80480 		ldr	r8, [r4, #4]
 271              		.loc 1 88 11 view .LVU45
 272 0018 B4F90800 		ldrsh	r0, [r4, #8]
 273              	.LVL17:
 274              		.loc 1 88 11 view .LVU46
 275 001c FFF7FEFF 		bl	priority_cmsis2knl
 276              	.LVL18:
  89:..//osal/cmsis_os/cmsis_os.c ****                             argument, priority_cmsis2knl(thread_def->tpriority), thread_def->stackb
  90:..//osal/cmsis_os/cmsis_os.c ****                             thread_def->stacksize, thread_def->timeslice);
 277              		.loc 1 90 39 view .LVU47
 278 0020 6369     		ldr	r3, [r4, #20]
  88:..//osal/cmsis_os/cmsis_os.c ****                             argument, priority_cmsis2knl(thread_def->tpriority), thread_def->stackb
 279              		.loc 1 88 11 view .LVU48
 280 0022 A269     		ldr	r2, [r4, #24]
 281 0024 0392     		str	r2, [sp, #12]
 282 0026 0293     		str	r3, [sp, #8]
 283 0028 0196     		str	r6, [sp, #4]
 284 002a 0090     		str	r0, [sp]
 285 002c 3B46     		mov	r3, r7
 286 002e 4246     		mov	r2, r8
 287 0030 2168     		ldr	r1, [r4]
 288 0032 2846     		mov	r0, r5
 289 0034 FFF7FEFF 		bl	tos_task_create
 290              	.LVL19:
  91:..//osal/cmsis_os/cmsis_os.c **** 
  92:..//osal/cmsis_os/cmsis_os.c ****     return err == K_ERR_NONE ? thread_def->task : NULL;
 291              		.loc 1 92 5 is_stmt 1 view .LVU49
 292              		.loc 1 92 49 is_stmt 0 view .LVU50
 293 0038 E8B9     		cbnz	r0, .L22
 294              		.loc 1 92 49 discriminator 1 view .LVU51
 295 003a E569     		ldr	r5, [r4, #28]
 296              	.LVL20:
 297              	.L17:
  93:..//osal/cmsis_os/cmsis_os.c **** }
 298              		.loc 1 93 1 view .LVU52
 299 003c 2846     		mov	r0, r5
 300 003e 06B0     		add	sp, sp, #24
 301              	.LCFI6:
 302              		.cfi_remember_state
 303              		.cfi_def_cfa_offset 24
 304              		@ sp needed
 305 0040 BDE8F081 		pop	{r4, r5, r6, r7, r8, pc}
 306              	.LVL21:
 307              	.L24:
 308              	.LCFI7:
 309              		.cfi_restore_state
  79:..//osal/cmsis_os/cmsis_os.c ****         k_task_t *task;
 310              		.loc 1 79 46 discriminator 1 view .LVU53
 311 0044 C569     		ldr	r5, [r0, #28]
  79:..//osal/cmsis_os/cmsis_os.c ****         k_task_t *task;
 312              		.loc 1 79 32 discriminator 1 view .LVU54
 313 0046 002D     		cmp	r5, #0
 314 0048 E3D1     		bne	.L19
 315              	.LBB2:
ARM GAS  C:\Users\tianx\AppData\Local\Temp\ccD0IzLd.s 			page 8


  80:..//osal/cmsis_os/cmsis_os.c ****         err = tos_task_create_dyn(&task, thread_def->name, (k_task_entry_t)thread_def->pthread,
 316              		.loc 1 80 9 is_stmt 1 view .LVU55
  81:..//osal/cmsis_os/cmsis_os.c ****                                 argument, priority_cmsis2knl(thread_def->tpriority),
 317              		.loc 1 81 9 view .LVU56
  81:..//osal/cmsis_os/cmsis_os.c ****                                 argument, priority_cmsis2knl(thread_def->tpriority),
 318              		.loc 1 81 86 is_stmt 0 view .LVU57
 319 004a 4668     		ldr	r6, [r0, #4]
  81:..//osal/cmsis_os/cmsis_os.c ****                                 argument, priority_cmsis2knl(thread_def->tpriority),
 320              		.loc 1 81 15 view .LVU58
 321 004c B0F90800 		ldrsh	r0, [r0, #8]
 322              	.LVL22:
  81:..//osal/cmsis_os/cmsis_os.c ****                                 argument, priority_cmsis2knl(thread_def->tpriority),
 323              		.loc 1 81 15 view .LVU59
 324 0050 FFF7FEFF 		bl	priority_cmsis2knl
 325              	.LVL23:
  83:..//osal/cmsis_os/cmsis_os.c ****         return err == K_ERR_NONE ? task : NULL;
 326              		.loc 1 83 43 view .LVU60
 327 0054 6369     		ldr	r3, [r4, #20]
  81:..//osal/cmsis_os/cmsis_os.c ****                                 argument, priority_cmsis2knl(thread_def->tpriority),
 328              		.loc 1 81 15 view .LVU61
 329 0056 A269     		ldr	r2, [r4, #24]
 330 0058 0292     		str	r2, [sp, #8]
 331 005a 0193     		str	r3, [sp, #4]
 332 005c 0090     		str	r0, [sp]
 333 005e 3B46     		mov	r3, r7
 334 0060 3246     		mov	r2, r6
 335 0062 2168     		ldr	r1, [r4]
 336 0064 05A8     		add	r0, sp, #20
 337 0066 FFF7FEFF 		bl	tos_task_create_dyn
 338              	.LVL24:
  84:..//osal/cmsis_os/cmsis_os.c ****     }
 339              		.loc 1 84 9 is_stmt 1 view .LVU62
  84:..//osal/cmsis_os/cmsis_os.c ****     }
 340              		.loc 1 84 41 is_stmt 0 view .LVU63
 341 006a 0028     		cmp	r0, #0
 342 006c E6D1     		bne	.L17
  84:..//osal/cmsis_os/cmsis_os.c ****     }
 343              		.loc 1 84 41 discriminator 1 view .LVU64
 344 006e 059D     		ldr	r5, [sp, #20]
 345 0070 E4E7     		b	.L17
 346              	.LVL25:
 347              	.L21:
  84:..//osal/cmsis_os/cmsis_os.c ****     }
 348              		.loc 1 84 41 discriminator 1 view .LVU65
 349              	.LBE2:
  75:..//osal/cmsis_os/cmsis_os.c ****     }
 350              		.loc 1 75 16 view .LVU66
 351 0072 0546     		mov	r5, r0
 352 0074 E2E7     		b	.L17
 353              	.LVL26:
 354              	.L22:
  92:..//osal/cmsis_os/cmsis_os.c **** }
 355              		.loc 1 92 49 view .LVU67
 356 0076 0025     		movs	r5, #0
 357 0078 E0E7     		b	.L17
 358              		.cfi_endproc
 359              	.LFE117:
ARM GAS  C:\Users\tianx\AppData\Local\Temp\ccD0IzLd.s 			page 9


 361              		.section	.text.osThreadGetId,"ax",%progbits
 362              		.align	1
 363              		.global	osThreadGetId
 364              		.syntax unified
 365              		.thumb
 366              		.thumb_func
 367              		.fpu softvfp
 369              	osThreadGetId:
 370              	.LFB118:
  94:..//osal/cmsis_os/cmsis_os.c **** 
  95:..//osal/cmsis_os/cmsis_os.c **** /**
  96:..//osal/cmsis_os/cmsis_os.c ****  * @brief Return the thread ID of the current running thread.
  97:..//osal/cmsis_os/cmsis_os.c ****  * @return thread ID for reference by other functions or NULL in case of error.
  98:..//osal/cmsis_os/cmsis_os.c ****  */
  99:..//osal/cmsis_os/cmsis_os.c **** osThreadId osThreadGetId(void)
 100:..//osal/cmsis_os/cmsis_os.c **** {
 371              		.loc 1 100 1 is_stmt 1 view -0
 372              		.cfi_startproc
 373              		@ args = 0, pretend = 0, frame = 0
 374              		@ frame_needed = 0, uses_anonymous_args = 0
 375              		@ link register save eliminated.
 101:..//osal/cmsis_os/cmsis_os.c ****     return k_curr_task;
 376              		.loc 1 101 5 view .LVU69
 102:..//osal/cmsis_os/cmsis_os.c **** }
 377              		.loc 1 102 1 is_stmt 0 view .LVU70
 378 0000 014B     		ldr	r3, .L26
 379 0002 1868     		ldr	r0, [r3]
 380 0004 7047     		bx	lr
 381              	.L27:
 382 0006 00BF     		.align	2
 383              	.L26:
 384 0008 00000000 		.word	k_curr_task
 385              		.cfi_endproc
 386              	.LFE118:
 388              		.section	.text.osThreadTerminate,"ax",%progbits
 389              		.align	1
 390              		.global	osThreadTerminate
 391              		.syntax unified
 392              		.thumb
 393              		.thumb_func
 394              		.fpu softvfp
 396              	osThreadTerminate:
 397              	.LVL27:
 398              	.LFB119:
 103:..//osal/cmsis_os/cmsis_os.c **** 
 104:..//osal/cmsis_os/cmsis_os.c **** /**
 105:..//osal/cmsis_os/cmsis_os.c ****  * @brief Terminate execution of a thread and remove it from Active Threads.
 106:..//osal/cmsis_os/cmsis_os.c ****  * @param[in]   thread_id   thread ID obtained by \ref osThreadCreate or \ref osThreadGetId.
 107:..//osal/cmsis_os/cmsis_os.c ****  * @return status code that indicates the execution status of the function.
 108:..//osal/cmsis_os/cmsis_os.c ****  */
 109:..//osal/cmsis_os/cmsis_os.c **** osStatus osThreadTerminate(osThreadId thread_id)
 110:..//osal/cmsis_os/cmsis_os.c **** {
 399              		.loc 1 110 1 is_stmt 1 view -0
 400              		.cfi_startproc
 401              		@ args = 0, pretend = 0, frame = 0
 402              		@ frame_needed = 0, uses_anonymous_args = 0
 403              		.loc 1 110 1 is_stmt 0 view .LVU72
ARM GAS  C:\Users\tianx\AppData\Local\Temp\ccD0IzLd.s 			page 10


 404 0000 08B5     		push	{r3, lr}
 405              	.LCFI8:
 406              		.cfi_def_cfa_offset 8
 407              		.cfi_offset 3, -8
 408              		.cfi_offset 14, -4
 111:..//osal/cmsis_os/cmsis_os.c ****     return errno_knl2cmsis(tos_task_destroy((k_task_t *)thread_id));
 409              		.loc 1 111 5 is_stmt 1 view .LVU73
 410              		.loc 1 111 12 is_stmt 0 view .LVU74
 411 0002 FFF7FEFF 		bl	tos_task_destroy
 412              	.LVL28:
 413              		.loc 1 111 12 view .LVU75
 414 0006 FFF7FEFF 		bl	errno_knl2cmsis
 415              	.LVL29:
 112:..//osal/cmsis_os/cmsis_os.c **** }
 416              		.loc 1 112 1 view .LVU76
 417 000a 08BD     		pop	{r3, pc}
 418              		.cfi_endproc
 419              	.LFE119:
 421              		.section	.text.osThreadSetPriority,"ax",%progbits
 422              		.align	1
 423              		.global	osThreadSetPriority
 424              		.syntax unified
 425              		.thumb
 426              		.thumb_func
 427              		.fpu softvfp
 429              	osThreadSetPriority:
 430              	.LVL30:
 431              	.LFB120:
 113:..//osal/cmsis_os/cmsis_os.c **** 
 114:..//osal/cmsis_os/cmsis_os.c **** /**
 115:..//osal/cmsis_os/cmsis_os.c ****  * @brief Change priority of an active thread.
 116:..//osal/cmsis_os/cmsis_os.c ****  * @param[in]   thread_id   thread ID obtained by \ref osThreadCreate or \ref osThreadGetId.
 117:..//osal/cmsis_os/cmsis_os.c ****  * @param[in]   priority    new priority value for the thread function.
 118:..//osal/cmsis_os/cmsis_os.c ****  * @return status code that indicates the execution status of the function.
 119:..//osal/cmsis_os/cmsis_os.c ****  */
 120:..//osal/cmsis_os/cmsis_os.c **** osStatus osThreadSetPriority(osThreadId thread_id, osPriority priority)
 121:..//osal/cmsis_os/cmsis_os.c **** {
 432              		.loc 1 121 1 is_stmt 1 view -0
 433              		.cfi_startproc
 434              		@ args = 0, pretend = 0, frame = 0
 435              		@ frame_needed = 0, uses_anonymous_args = 0
 436              		.loc 1 121 1 is_stmt 0 view .LVU78
 437 0000 10B5     		push	{r4, lr}
 438              	.LCFI9:
 439              		.cfi_def_cfa_offset 8
 440              		.cfi_offset 4, -8
 441              		.cfi_offset 14, -4
 442 0002 0446     		mov	r4, r0
 122:..//osal/cmsis_os/cmsis_os.c ****     return errno_knl2cmsis(tos_task_prio_change((k_task_t *)thread_id, priority_cmsis2knl(priority)
 443              		.loc 1 122 5 is_stmt 1 view .LVU79
 444              		.loc 1 122 12 is_stmt 0 view .LVU80
 445 0004 0846     		mov	r0, r1
 446              	.LVL31:
 447              		.loc 1 122 12 view .LVU81
 448 0006 FFF7FEFF 		bl	priority_cmsis2knl
 449              	.LVL32:
 450              		.loc 1 122 12 view .LVU82
ARM GAS  C:\Users\tianx\AppData\Local\Temp\ccD0IzLd.s 			page 11


 451 000a 0146     		mov	r1, r0
 452 000c 2046     		mov	r0, r4
 453 000e FFF7FEFF 		bl	tos_task_prio_change
 454              	.LVL33:
 455 0012 FFF7FEFF 		bl	errno_knl2cmsis
 456              	.LVL34:
 123:..//osal/cmsis_os/cmsis_os.c **** }
 457              		.loc 1 123 1 view .LVU83
 458 0016 10BD     		pop	{r4, pc}
 459              		.loc 1 123 1 view .LVU84
 460              		.cfi_endproc
 461              	.LFE120:
 463              		.section	.text.osThreadYield,"ax",%progbits
 464              		.align	1
 465              		.global	osThreadYield
 466              		.syntax unified
 467              		.thumb
 468              		.thumb_func
 469              		.fpu softvfp
 471              	osThreadYield:
 472              	.LFB121:
 124:..//osal/cmsis_os/cmsis_os.c **** 
 125:..//osal/cmsis_os/cmsis_os.c **** /**
 126:..//osal/cmsis_os/cmsis_os.c ****  * @brief Pass control to next thread that is in state READY.
 127:..//osal/cmsis_os/cmsis_os.c ****  * @return status code that indicates the execution status of the function.
 128:..//osal/cmsis_os/cmsis_os.c ****  */
 129:..//osal/cmsis_os/cmsis_os.c **** osStatus osThreadYield(void)
 130:..//osal/cmsis_os/cmsis_os.c **** {
 473              		.loc 1 130 1 is_stmt 1 view -0
 474              		.cfi_startproc
 475              		@ args = 0, pretend = 0, frame = 0
 476              		@ frame_needed = 0, uses_anonymous_args = 0
 477 0000 08B5     		push	{r3, lr}
 478              	.LCFI10:
 479              		.cfi_def_cfa_offset 8
 480              		.cfi_offset 3, -8
 481              		.cfi_offset 14, -4
 131:..//osal/cmsis_os/cmsis_os.c ****     tos_task_yield();
 482              		.loc 1 131 5 view .LVU86
 483 0002 FFF7FEFF 		bl	tos_task_yield
 484              	.LVL35:
 132:..//osal/cmsis_os/cmsis_os.c ****     
 133:..//osal/cmsis_os/cmsis_os.c ****     return osOK;
 485              		.loc 1 133 5 view .LVU87
 134:..//osal/cmsis_os/cmsis_os.c **** }
 486              		.loc 1 134 1 is_stmt 0 view .LVU88
 487 0006 0020     		movs	r0, #0
 488 0008 08BD     		pop	{r3, pc}
 489              		.cfi_endproc
 490              	.LFE121:
 492              		.section	.text.osThreadGetPriority,"ax",%progbits
 493              		.align	1
 494              		.global	osThreadGetPriority
 495              		.syntax unified
 496              		.thumb
 497              		.thumb_func
 498              		.fpu softvfp
ARM GAS  C:\Users\tianx\AppData\Local\Temp\ccD0IzLd.s 			page 12


 500              	osThreadGetPriority:
 501              	.LVL36:
 502              	.LFB122:
 135:..//osal/cmsis_os/cmsis_os.c **** 
 136:..//osal/cmsis_os/cmsis_os.c **** /**
 137:..//osal/cmsis_os/cmsis_os.c ****  * @brief Get current priority of an active thread.
 138:..//osal/cmsis_os/cmsis_os.c ****  * @param[in]   thread_id   thread ID obtained by \ref osThreadCreate or \ref osThreadGetId.
 139:..//osal/cmsis_os/cmsis_os.c ****  * @return current priority value of the thread function.
 140:..//osal/cmsis_os/cmsis_os.c ****  */
 141:..//osal/cmsis_os/cmsis_os.c **** osPriority osThreadGetPriority(osThreadId thread_id)
 142:..//osal/cmsis_os/cmsis_os.c **** {
 503              		.loc 1 142 1 is_stmt 1 view -0
 504              		.cfi_startproc
 505              		@ args = 0, pretend = 0, frame = 0
 506              		@ frame_needed = 0, uses_anonymous_args = 0
 143:..//osal/cmsis_os/cmsis_os.c ****     if (!thread_id) {
 507              		.loc 1 143 5 view .LVU90
 508              		.loc 1 143 8 is_stmt 0 view .LVU91
 509 0000 28B1     		cbz	r0, .L36
 142:..//osal/cmsis_os/cmsis_os.c ****     if (!thread_id) {
 510              		.loc 1 142 1 view .LVU92
 511 0002 08B5     		push	{r3, lr}
 512              	.LCFI11:
 513              		.cfi_def_cfa_offset 8
 514              		.cfi_offset 3, -8
 515              		.cfi_offset 14, -4
 144:..//osal/cmsis_os/cmsis_os.c ****         return osPriorityError;
 145:..//osal/cmsis_os/cmsis_os.c ****     }
 146:..//osal/cmsis_os/cmsis_os.c **** 
 147:..//osal/cmsis_os/cmsis_os.c ****     return priority_knl2cmsis(((k_task_t *)thread_id)->prio);
 516              		.loc 1 147 5 is_stmt 1 view .LVU93
 517              		.loc 1 147 12 is_stmt 0 view .LVU94
 518 0004 90F82100 		ldrb	r0, [r0, #33]	@ zero_extendqisi2
 519              	.LVL37:
 520              		.loc 1 147 12 view .LVU95
 521 0008 FFF7FEFF 		bl	priority_knl2cmsis
 522              	.LVL38:
 148:..//osal/cmsis_os/cmsis_os.c **** }
 523              		.loc 1 148 1 view .LVU96
 524 000c 08BD     		pop	{r3, pc}
 525              	.LVL39:
 526              	.L36:
 527              	.LCFI12:
 528              		.cfi_def_cfa_offset 0
 529              		.cfi_restore 3
 530              		.cfi_restore 14
 144:..//osal/cmsis_os/cmsis_os.c ****         return osPriorityError;
 531              		.loc 1 144 16 view .LVU97
 532 000e 8420     		movs	r0, #132
 533              	.LVL40:
 534              		.loc 1 148 1 view .LVU98
 535 0010 7047     		bx	lr
 536              		.cfi_endproc
 537              	.LFE122:
 539              		.section	.text.osDelay,"ax",%progbits
 540              		.align	1
 541              		.global	osDelay
ARM GAS  C:\Users\tianx\AppData\Local\Temp\ccD0IzLd.s 			page 13


 542              		.syntax unified
 543              		.thumb
 544              		.thumb_func
 545              		.fpu softvfp
 547              	osDelay:
 548              	.LVL41:
 549              	.LFB123:
 149:..//osal/cmsis_os/cmsis_os.c **** 
 150:..//osal/cmsis_os/cmsis_os.c **** //  ==== Generic Wait Functions ====
 151:..//osal/cmsis_os/cmsis_os.c **** 
 152:..//osal/cmsis_os/cmsis_os.c **** /**
 153:..//osal/cmsis_os/cmsis_os.c ****  * @brief Wait for Timeout (Time Delay)
 154:..//osal/cmsis_os/cmsis_os.c ****  * @param[in]   millisec    time delay value
 155:..//osal/cmsis_os/cmsis_os.c ****  * @return status code that indicates the execution status of the function.
 156:..//osal/cmsis_os/cmsis_os.c ****  */
 157:..//osal/cmsis_os/cmsis_os.c **** osStatus osDelay(uint32_t millisec)
 158:..//osal/cmsis_os/cmsis_os.c **** {
 550              		.loc 1 158 1 is_stmt 1 view -0
 551              		.cfi_startproc
 552              		@ args = 0, pretend = 0, frame = 0
 553              		@ frame_needed = 0, uses_anonymous_args = 0
 554              		.loc 1 158 1 is_stmt 0 view .LVU100
 555 0000 08B5     		push	{r3, lr}
 556              	.LCFI13:
 557              		.cfi_def_cfa_offset 8
 558              		.cfi_offset 3, -8
 559              		.cfi_offset 14, -4
 159:..//osal/cmsis_os/cmsis_os.c ****     k_tick_t delay;
 560              		.loc 1 159 5 is_stmt 1 view .LVU101
 160:..//osal/cmsis_os/cmsis_os.c **** 
 161:..//osal/cmsis_os/cmsis_os.c ****     if (millisec == osWaitForever) {
 561              		.loc 1 161 5 view .LVU102
 562              		.loc 1 161 8 is_stmt 0 view .LVU103
 563 0002 B0F1FF3F 		cmp	r0, #-1
 564 0006 08D1     		bne	.L45
 162:..//osal/cmsis_os/cmsis_os.c ****         delay = TOS_TIME_FOREVER;
 565              		.loc 1 162 15 view .LVU104
 566 0008 4FF0FF30 		mov	r0, #-1
 567              	.LVL42:
 568              		.loc 1 162 15 view .LVU105
 569 000c 4FF0FF31 		mov	r1, #-1
 570              	.L42:
 571              	.LVL43:
 163:..//osal/cmsis_os/cmsis_os.c ****     } else {
 164:..//osal/cmsis_os/cmsis_os.c ****         delay = tos_millisec2tick(millisec);
 165:..//osal/cmsis_os/cmsis_os.c ****     }
 166:..//osal/cmsis_os/cmsis_os.c **** 
 167:..//osal/cmsis_os/cmsis_os.c ****     return errno_knl2cmsis(tos_task_delay(delay));
 572              		.loc 1 167 5 is_stmt 1 view .LVU106
 573              		.loc 1 167 12 is_stmt 0 view .LVU107
 574 0010 FFF7FEFF 		bl	tos_task_delay
 575              	.LVL44:
 576              		.loc 1 167 12 view .LVU108
 577 0014 FFF7FEFF 		bl	errno_knl2cmsis
 578              	.LVL45:
 168:..//osal/cmsis_os/cmsis_os.c **** }
 579              		.loc 1 168 1 view .LVU109
ARM GAS  C:\Users\tianx\AppData\Local\Temp\ccD0IzLd.s 			page 14


 580 0018 08BD     		pop	{r3, pc}
 581              	.LVL46:
 582              	.L45:
 164:..//osal/cmsis_os/cmsis_os.c ****     }
 583              		.loc 1 164 9 is_stmt 1 view .LVU110
 164:..//osal/cmsis_os/cmsis_os.c ****     }
 584              		.loc 1 164 17 is_stmt 0 view .LVU111
 585 001a FFF7FEFF 		bl	tos_millisec2tick
 586              	.LVL47:
 164:..//osal/cmsis_os/cmsis_os.c ****     }
 587              		.loc 1 164 17 view .LVU112
 588 001e F7E7     		b	.L42
 589              		.cfi_endproc
 590              	.LFE123:
 592              		.section	.text.osTimerCreate,"ax",%progbits
 593              		.align	1
 594              		.global	osTimerCreate
 595              		.syntax unified
 596              		.thumb
 597              		.thumb_func
 598              		.fpu softvfp
 600              	osTimerCreate:
 601              	.LVL48:
 602              	.LFB124:
 169:..//osal/cmsis_os/cmsis_os.c **** 
 170:..//osal/cmsis_os/cmsis_os.c **** #if TOS_CFG_TIMER_EN > 0
 171:..//osal/cmsis_os/cmsis_os.c **** /**
 172:..//osal/cmsis_os/cmsis_os.c ****  * @brief Create a timer.
 173:..//osal/cmsis_os/cmsis_os.c ****  * @param[in]   timer_def   timer object referenced with \ref osTimer.
 174:..//osal/cmsis_os/cmsis_os.c ****  * @param[in]   type        osTimerOnce for one-shot or osTimerPeriodic for periodic behavior.
 175:..//osal/cmsis_os/cmsis_os.c ****  * @param[in]   argument    argument to the timer call back function.
 176:..//osal/cmsis_os/cmsis_os.c ****  * @return timer ID for reference by other functions or NULL in case of error.
 177:..//osal/cmsis_os/cmsis_os.c ****  */
 178:..//osal/cmsis_os/cmsis_os.c **** osTimerId osTimerCreate(const osTimerDef_t *timer_def, os_timer_type type, void *argument)
 179:..//osal/cmsis_os/cmsis_os.c **** {
 603              		.loc 1 179 1 is_stmt 1 view -0
 604              		.cfi_startproc
 605              		@ args = 0, pretend = 0, frame = 0
 606              		@ frame_needed = 0, uses_anonymous_args = 0
 607              		.loc 1 179 1 is_stmt 0 view .LVU114
 608 0000 10B5     		push	{r4, lr}
 609              	.LCFI14:
 610              		.cfi_def_cfa_offset 8
 611              		.cfi_offset 4, -8
 612              		.cfi_offset 14, -4
 613 0002 86B0     		sub	sp, sp, #24
 614              	.LCFI15:
 615              		.cfi_def_cfa_offset 32
 180:..//osal/cmsis_os/cmsis_os.c ****     k_err_t err;
 616              		.loc 1 180 5 is_stmt 1 view .LVU115
 181:..//osal/cmsis_os/cmsis_os.c ****     k_opt_t opt = TOS_OPT_TIMER_ONESHOT;
 617              		.loc 1 181 5 view .LVU116
 618              	.LVL49:
 182:..//osal/cmsis_os/cmsis_os.c **** 
 183:..//osal/cmsis_os/cmsis_os.c ****     if (!timer_def) {
 619              		.loc 1 183 5 view .LVU117
 620              		.loc 1 183 8 is_stmt 0 view .LVU118
ARM GAS  C:\Users\tianx\AppData\Local\Temp\ccD0IzLd.s 			page 15


 621 0004 0446     		mov	r4, r0
 622 0006 90B1     		cbz	r0, .L46
 184:..//osal/cmsis_os/cmsis_os.c ****         return NULL;
 185:..//osal/cmsis_os/cmsis_os.c ****     }
 186:..//osal/cmsis_os/cmsis_os.c **** 
 187:..//osal/cmsis_os/cmsis_os.c ****     if (type == osTimerPeriodic) {
 623              		.loc 1 187 5 is_stmt 1 view .LVU119
 624              		.loc 1 187 8 is_stmt 0 view .LVU120
 625 0008 0129     		cmp	r1, #1
 626 000a 12D0     		beq	.L50
 181:..//osal/cmsis_os/cmsis_os.c **** 
 627              		.loc 1 181 13 view .LVU121
 628 000c 0121     		movs	r1, #1
 629              	.LVL50:
 630              	.L48:
 188:..//osal/cmsis_os/cmsis_os.c ****         opt = TOS_OPT_TIMER_PERIODIC;
 189:..//osal/cmsis_os/cmsis_os.c ****     }
 190:..//osal/cmsis_os/cmsis_os.c **** 
 191:..//osal/cmsis_os/cmsis_os.c ****     err = tos_timer_create((k_timer_t *)timer_def->timer, (k_tick_t)1u,
 631              		.loc 1 191 5 is_stmt 1 view .LVU122
 192:..//osal/cmsis_os/cmsis_os.c ****                         (k_tick_t)3000u, (k_timer_callback_t)timer_def->cb, argument, opt);
 632              		.loc 1 192 71 is_stmt 0 view .LVU123
 633 000e 2368     		ldr	r3, [r4]
 191:..//osal/cmsis_os/cmsis_os.c ****                         (k_tick_t)3000u, (k_timer_callback_t)timer_def->cb, argument, opt);
 634              		.loc 1 191 11 view .LVU124
 635 0010 0491     		str	r1, [sp, #16]
 636 0012 0392     		str	r2, [sp, #12]
 637 0014 0293     		str	r3, [sp, #8]
 638 0016 40F6B832 		movw	r2, #3000
 639              	.LVL51:
 191:..//osal/cmsis_os/cmsis_os.c ****                         (k_tick_t)3000u, (k_timer_callback_t)timer_def->cb, argument, opt);
 640              		.loc 1 191 11 view .LVU125
 641 001a 0023     		movs	r3, #0
 642 001c CDE90023 		strd	r2, [sp]
 643 0020 0122     		movs	r2, #1
 644 0022 0023     		movs	r3, #0
 645 0024 6068     		ldr	r0, [r4, #4]
 646              	.LVL52:
 191:..//osal/cmsis_os/cmsis_os.c ****                         (k_tick_t)3000u, (k_timer_callback_t)timer_def->cb, argument, opt);
 647              		.loc 1 191 11 view .LVU126
 648 0026 FFF7FEFF 		bl	tos_timer_create
 649              	.LVL53:
 193:..//osal/cmsis_os/cmsis_os.c ****     return err == K_ERR_NONE ? timer_def->timer : NULL;
 650              		.loc 1 193 5 is_stmt 1 view .LVU127
 651              		.loc 1 193 49 is_stmt 0 view .LVU128
 652 002a 20B9     		cbnz	r0, .L51
 653              		.loc 1 193 49 discriminator 1 view .LVU129
 654 002c 6068     		ldr	r0, [r4, #4]
 655              	.LVL54:
 656              	.L46:
 194:..//osal/cmsis_os/cmsis_os.c **** }
 657              		.loc 1 194 1 view .LVU130
 658 002e 06B0     		add	sp, sp, #24
 659              	.LCFI16:
 660              		.cfi_remember_state
 661              		.cfi_def_cfa_offset 8
 662              		@ sp needed
ARM GAS  C:\Users\tianx\AppData\Local\Temp\ccD0IzLd.s 			page 16


 663 0030 10BD     		pop	{r4, pc}
 664              	.LVL55:
 665              	.L50:
 666              	.LCFI17:
 667              		.cfi_restore_state
 188:..//osal/cmsis_os/cmsis_os.c ****     }
 668              		.loc 1 188 13 view .LVU131
 669 0032 0221     		movs	r1, #2
 670              	.LVL56:
 188:..//osal/cmsis_os/cmsis_os.c ****     }
 671              		.loc 1 188 13 view .LVU132
 672 0034 EBE7     		b	.L48
 673              	.LVL57:
 674              	.L51:
 193:..//osal/cmsis_os/cmsis_os.c ****     return err == K_ERR_NONE ? timer_def->timer : NULL;
 675              		.loc 1 193 49 view .LVU133
 676 0036 0020     		movs	r0, #0
 677              	.LVL58:
 193:..//osal/cmsis_os/cmsis_os.c ****     return err == K_ERR_NONE ? timer_def->timer : NULL;
 678              		.loc 1 193 49 view .LVU134
 679 0038 F9E7     		b	.L46
 680              		.cfi_endproc
 681              	.LFE124:
 683              		.section	.text.osTimerStart,"ax",%progbits
 684              		.align	1
 685              		.global	osTimerStart
 686              		.syntax unified
 687              		.thumb
 688              		.thumb_func
 689              		.fpu softvfp
 691              	osTimerStart:
 692              	.LVL59:
 693              	.LFB125:
 195:..//osal/cmsis_os/cmsis_os.c **** 
 196:..//osal/cmsis_os/cmsis_os.c **** /**
 197:..//osal/cmsis_os/cmsis_os.c ****  * @brief Start or restart a timer.
 198:..//osal/cmsis_os/cmsis_os.c ****  * @param[in]   timer_id    timer ID obtained by \ref osTimerCreate.
 199:..//osal/cmsis_os/cmsis_os.c ****  * @param[in]   millisec    time delay value of the timer.
 200:..//osal/cmsis_os/cmsis_os.c ****  * @return status code that indicates the execution status of the function.
 201:..//osal/cmsis_os/cmsis_os.c ****  */
 202:..//osal/cmsis_os/cmsis_os.c **** osStatus osTimerStart(osTimerId timer_id, uint32_t millisec)
 203:..//osal/cmsis_os/cmsis_os.c **** {
 694              		.loc 1 203 1 is_stmt 1 view -0
 695              		.cfi_startproc
 696              		@ args = 0, pretend = 0, frame = 0
 697              		@ frame_needed = 0, uses_anonymous_args = 0
 204:..//osal/cmsis_os/cmsis_os.c ****     k_timer_t *timer;
 698              		.loc 1 204 5 view .LVU136
 205:..//osal/cmsis_os/cmsis_os.c ****     k_tick_t delay;
 699              		.loc 1 205 5 view .LVU137
 206:..//osal/cmsis_os/cmsis_os.c **** 
 207:..//osal/cmsis_os/cmsis_os.c ****     if (!timer_id) {
 700              		.loc 1 207 5 view .LVU138
 701              		.loc 1 207 8 is_stmt 0 view .LVU139
 702 0000 D0B1     		cbz	r0, .L56
 203:..//osal/cmsis_os/cmsis_os.c ****     k_timer_t *timer;
 703              		.loc 1 203 1 view .LVU140
ARM GAS  C:\Users\tianx\AppData\Local\Temp\ccD0IzLd.s 			page 17


 704 0002 10B5     		push	{r4, lr}
 705              	.LCFI18:
 706              		.cfi_def_cfa_offset 8
 707              		.cfi_offset 4, -8
 708              		.cfi_offset 14, -4
 709 0004 0446     		mov	r4, r0
 208:..//osal/cmsis_os/cmsis_os.c ****         return osErrorResource;
 209:..//osal/cmsis_os/cmsis_os.c ****     }
 210:..//osal/cmsis_os/cmsis_os.c **** 
 211:..//osal/cmsis_os/cmsis_os.c ****     if (millisec == 0) {
 710              		.loc 1 211 5 is_stmt 1 view .LVU141
 711              		.loc 1 211 8 is_stmt 0 view .LVU142
 712 0006 59B1     		cbz	r1, .L57
 212:..//osal/cmsis_os/cmsis_os.c ****         delay = (k_tick_t)1u;
 213:..//osal/cmsis_os/cmsis_os.c ****     } else if (millisec == osWaitForever) {
 713              		.loc 1 213 12 is_stmt 1 view .LVU143
 714              		.loc 1 213 15 is_stmt 0 view .LVU144
 715 0008 B1F1FF3F 		cmp	r1, #-1
 716 000c 04D1     		bne	.L63
 214:..//osal/cmsis_os/cmsis_os.c ****         delay = TOS_TIME_FOREVER;
 717              		.loc 1 214 15 view .LVU145
 718 000e 4FF0FF30 		mov	r0, #-1
 719              	.LVL60:
 720              		.loc 1 214 15 view .LVU146
 721 0012 4FF0FF31 		mov	r1, #-1
 722              	.LVL61:
 723              		.loc 1 214 15 view .LVU147
 724 0016 05E0     		b	.L55
 725              	.LVL62:
 726              	.L63:
 215:..//osal/cmsis_os/cmsis_os.c ****     } else {
 216:..//osal/cmsis_os/cmsis_os.c ****         delay = tos_millisec2tick(millisec);
 727              		.loc 1 216 9 is_stmt 1 view .LVU148
 728              		.loc 1 216 17 is_stmt 0 view .LVU149
 729 0018 0846     		mov	r0, r1
 730              	.LVL63:
 731              		.loc 1 216 17 view .LVU150
 732 001a FFF7FEFF 		bl	tos_millisec2tick
 733              	.LVL64:
 734              		.loc 1 216 17 view .LVU151
 735 001e 01E0     		b	.L55
 736              	.LVL65:
 737              	.L57:
 212:..//osal/cmsis_os/cmsis_os.c ****     } else if (millisec == osWaitForever) {
 738              		.loc 1 212 15 view .LVU152
 739 0020 0120     		movs	r0, #1
 740              	.LVL66:
 212:..//osal/cmsis_os/cmsis_os.c ****     } else if (millisec == osWaitForever) {
 741              		.loc 1 212 15 view .LVU153
 742 0022 0021     		movs	r1, #0
 743              	.LVL67:
 744              	.L55:
 217:..//osal/cmsis_os/cmsis_os.c ****     }
 218:..//osal/cmsis_os/cmsis_os.c **** 
 219:..//osal/cmsis_os/cmsis_os.c ****     timer = (k_timer_t *)timer_id;
 745              		.loc 1 219 5 is_stmt 1 view .LVU154
 220:..//osal/cmsis_os/cmsis_os.c ****     timer->delay    = delay;
ARM GAS  C:\Users\tianx\AppData\Local\Temp\ccD0IzLd.s 			page 18


 746              		.loc 1 220 5 view .LVU155
 747              		.loc 1 220 21 is_stmt 0 view .LVU156
 748 0024 C4E90801 		strd	r0, [r4, #32]
 221:..//osal/cmsis_os/cmsis_os.c ****     timer->period   = delay;
 749              		.loc 1 221 5 is_stmt 1 view .LVU157
 750              		.loc 1 221 21 is_stmt 0 view .LVU158
 751 0028 C4E90A01 		strd	r0, [r4, #40]
 222:..//osal/cmsis_os/cmsis_os.c **** 
 223:..//osal/cmsis_os/cmsis_os.c ****     return errno_knl2cmsis(tos_timer_start(timer));
 752              		.loc 1 223 5 is_stmt 1 view .LVU159
 753              		.loc 1 223 12 is_stmt 0 view .LVU160
 754 002c 2046     		mov	r0, r4
 755              	.LVL68:
 756              		.loc 1 223 12 view .LVU161
 757 002e FFF7FEFF 		bl	tos_timer_start
 758              	.LVL69:
 759              		.loc 1 223 12 view .LVU162
 760 0032 FFF7FEFF 		bl	errno_knl2cmsis
 761              	.LVL70:
 224:..//osal/cmsis_os/cmsis_os.c **** }
 762              		.loc 1 224 1 view .LVU163
 763 0036 10BD     		pop	{r4, pc}
 764              	.LVL71:
 765              	.L56:
 766              	.LCFI19:
 767              		.cfi_def_cfa_offset 0
 768              		.cfi_restore 4
 769              		.cfi_restore 14
 208:..//osal/cmsis_os/cmsis_os.c ****     }
 770              		.loc 1 208 16 view .LVU164
 771 0038 8120     		movs	r0, #129
 772              	.LVL72:
 773              		.loc 1 224 1 view .LVU165
 774 003a 7047     		bx	lr
 775              		.cfi_endproc
 776              	.LFE125:
 778              		.section	.text.osTimerStop,"ax",%progbits
 779              		.align	1
 780              		.global	osTimerStop
 781              		.syntax unified
 782              		.thumb
 783              		.thumb_func
 784              		.fpu softvfp
 786              	osTimerStop:
 787              	.LVL73:
 788              	.LFB126:
 225:..//osal/cmsis_os/cmsis_os.c **** 
 226:..//osal/cmsis_os/cmsis_os.c **** /**
 227:..//osal/cmsis_os/cmsis_os.c ****  * @brief Stop the timer.
 228:..//osal/cmsis_os/cmsis_os.c ****  * @param[in]   timer_id    timer ID obtained by \ref osTimerCreate.
 229:..//osal/cmsis_os/cmsis_os.c ****  * @return status code that indicates the execution status of the function.
 230:..//osal/cmsis_os/cmsis_os.c ****  */
 231:..//osal/cmsis_os/cmsis_os.c **** osStatus osTimerStop(osTimerId timer_id)
 232:..//osal/cmsis_os/cmsis_os.c **** {
 789              		.loc 1 232 1 is_stmt 1 view -0
 790              		.cfi_startproc
 791              		@ args = 0, pretend = 0, frame = 0
ARM GAS  C:\Users\tianx\AppData\Local\Temp\ccD0IzLd.s 			page 19


 792              		@ frame_needed = 0, uses_anonymous_args = 0
 793              		.loc 1 232 1 is_stmt 0 view .LVU167
 794 0000 08B5     		push	{r3, lr}
 795              	.LCFI20:
 796              		.cfi_def_cfa_offset 8
 797              		.cfi_offset 3, -8
 798              		.cfi_offset 14, -4
 233:..//osal/cmsis_os/cmsis_os.c ****     return errno_knl2cmsis(tos_timer_stop((k_timer_t *)timer_id));
 799              		.loc 1 233 5 is_stmt 1 view .LVU168
 800              		.loc 1 233 12 is_stmt 0 view .LVU169
 801 0002 FFF7FEFF 		bl	tos_timer_stop
 802              	.LVL74:
 803              		.loc 1 233 12 view .LVU170
 804 0006 FFF7FEFF 		bl	errno_knl2cmsis
 805              	.LVL75:
 234:..//osal/cmsis_os/cmsis_os.c **** }
 806              		.loc 1 234 1 view .LVU171
 807 000a 08BD     		pop	{r3, pc}
 808              		.cfi_endproc
 809              	.LFE126:
 811              		.section	.text.osTimerDelete,"ax",%progbits
 812              		.align	1
 813              		.global	osTimerDelete
 814              		.syntax unified
 815              		.thumb
 816              		.thumb_func
 817              		.fpu softvfp
 819              	osTimerDelete:
 820              	.LVL76:
 821              	.LFB127:
 235:..//osal/cmsis_os/cmsis_os.c **** 
 236:..//osal/cmsis_os/cmsis_os.c **** /**
 237:..//osal/cmsis_os/cmsis_os.c ****  * @brief Delete a timer that was created by \ref osTimerCreate.
 238:..//osal/cmsis_os/cmsis_os.c ****  * @param[in]   timer_id    timer ID obtained by \ref osTimerCreate.
 239:..//osal/cmsis_os/cmsis_os.c ****  * @return status code that indicates the execution status of the function.
 240:..//osal/cmsis_os/cmsis_os.c ****  */
 241:..//osal/cmsis_os/cmsis_os.c **** osStatus osTimerDelete(osTimerId timer_id)
 242:..//osal/cmsis_os/cmsis_os.c **** {
 822              		.loc 1 242 1 is_stmt 1 view -0
 823              		.cfi_startproc
 824              		@ args = 0, pretend = 0, frame = 0
 825              		@ frame_needed = 0, uses_anonymous_args = 0
 826              		.loc 1 242 1 is_stmt 0 view .LVU173
 827 0000 08B5     		push	{r3, lr}
 828              	.LCFI21:
 829              		.cfi_def_cfa_offset 8
 830              		.cfi_offset 3, -8
 831              		.cfi_offset 14, -4
 243:..//osal/cmsis_os/cmsis_os.c ****     return errno_knl2cmsis(tos_timer_destroy((k_timer_t *)timer_id));
 832              		.loc 1 243 5 is_stmt 1 view .LVU174
 833              		.loc 1 243 12 is_stmt 0 view .LVU175
 834 0002 FFF7FEFF 		bl	tos_timer_destroy
 835              	.LVL77:
 836              		.loc 1 243 12 view .LVU176
 837 0006 FFF7FEFF 		bl	errno_knl2cmsis
 838              	.LVL78:
 244:..//osal/cmsis_os/cmsis_os.c **** }
ARM GAS  C:\Users\tianx\AppData\Local\Temp\ccD0IzLd.s 			page 20


 839              		.loc 1 244 1 view .LVU177
 840 000a 08BD     		pop	{r3, pc}
 841              		.cfi_endproc
 842              	.LFE127:
 844              		.section	.text.osMutexCreate,"ax",%progbits
 845              		.align	1
 846              		.global	osMutexCreate
 847              		.syntax unified
 848              		.thumb
 849              		.thumb_func
 850              		.fpu softvfp
 852              	osMutexCreate:
 853              	.LVL79:
 854              	.LFB128:
 245:..//osal/cmsis_os/cmsis_os.c **** 
 246:..//osal/cmsis_os/cmsis_os.c **** #endif // TOS_CFG_TIMER_EN
 247:..//osal/cmsis_os/cmsis_os.c **** 
 248:..//osal/cmsis_os/cmsis_os.c **** #if TOS_CFG_MUTEX_EN > 0
 249:..//osal/cmsis_os/cmsis_os.c **** /**
 250:..//osal/cmsis_os/cmsis_os.c ****  * @brief Create and Initialize a Mutex object
 251:..//osal/cmsis_os/cmsis_os.c ****  * @param[in]   mutex_def   mutex definition referenced with \ref osMutex.
 252:..//osal/cmsis_os/cmsis_os.c ****  * @return mutex ID for reference by other functions or NULL in case of error.
 253:..//osal/cmsis_os/cmsis_os.c ****  */
 254:..//osal/cmsis_os/cmsis_os.c **** osMutexId osMutexCreate(const osMutexDef_t *mutex_def)
 255:..//osal/cmsis_os/cmsis_os.c **** {
 855              		.loc 1 255 1 is_stmt 1 view -0
 856              		.cfi_startproc
 857              		@ args = 0, pretend = 0, frame = 0
 858              		@ frame_needed = 0, uses_anonymous_args = 0
 859              		.loc 1 255 1 is_stmt 0 view .LVU179
 860 0000 10B5     		push	{r4, lr}
 861              	.LCFI22:
 862              		.cfi_def_cfa_offset 8
 863              		.cfi_offset 4, -8
 864              		.cfi_offset 14, -4
 256:..//osal/cmsis_os/cmsis_os.c ****     k_err_t err;
 865              		.loc 1 256 5 is_stmt 1 view .LVU180
 257:..//osal/cmsis_os/cmsis_os.c **** 
 258:..//osal/cmsis_os/cmsis_os.c ****     if (!mutex_def) {
 866              		.loc 1 258 5 view .LVU181
 867              		.loc 1 258 8 is_stmt 0 view .LVU182
 868 0002 0446     		mov	r4, r0
 869 0004 20B1     		cbz	r0, .L68
 259:..//osal/cmsis_os/cmsis_os.c ****         return NULL;
 260:..//osal/cmsis_os/cmsis_os.c ****     }
 261:..//osal/cmsis_os/cmsis_os.c **** 
 262:..//osal/cmsis_os/cmsis_os.c ****     err = tos_mutex_create((k_mutex_t *)mutex_def->mutex);
 870              		.loc 1 262 5 is_stmt 1 view .LVU183
 871              		.loc 1 262 11 is_stmt 0 view .LVU184
 872 0006 4068     		ldr	r0, [r0, #4]
 873              	.LVL80:
 874              		.loc 1 262 11 view .LVU185
 875 0008 FFF7FEFF 		bl	tos_mutex_create
 876              	.LVL81:
 263:..//osal/cmsis_os/cmsis_os.c ****     return err == K_ERR_NONE ? mutex_def->mutex : NULL;
 877              		.loc 1 263 5 is_stmt 1 view .LVU186
 878              		.loc 1 263 49 is_stmt 0 view .LVU187
ARM GAS  C:\Users\tianx\AppData\Local\Temp\ccD0IzLd.s 			page 21


 879 000c 08B9     		cbnz	r0, .L71
 880              		.loc 1 263 49 discriminator 1 view .LVU188
 881 000e 6068     		ldr	r0, [r4, #4]
 882              	.LVL82:
 883              	.L68:
 264:..//osal/cmsis_os/cmsis_os.c **** }
 884              		.loc 1 264 1 view .LVU189
 885 0010 10BD     		pop	{r4, pc}
 886              	.LVL83:
 887              	.L71:
 263:..//osal/cmsis_os/cmsis_os.c ****     return err == K_ERR_NONE ? mutex_def->mutex : NULL;
 888              		.loc 1 263 49 view .LVU190
 889 0012 0020     		movs	r0, #0
 890              	.LVL84:
 263:..//osal/cmsis_os/cmsis_os.c ****     return err == K_ERR_NONE ? mutex_def->mutex : NULL;
 891              		.loc 1 263 49 view .LVU191
 892 0014 FCE7     		b	.L68
 893              		.cfi_endproc
 894              	.LFE128:
 896              		.section	.text.osMutexWait,"ax",%progbits
 897              		.align	1
 898              		.global	osMutexWait
 899              		.syntax unified
 900              		.thumb
 901              		.thumb_func
 902              		.fpu softvfp
 904              	osMutexWait:
 905              	.LVL85:
 906              	.LFB129:
 265:..//osal/cmsis_os/cmsis_os.c **** 
 266:..//osal/cmsis_os/cmsis_os.c **** /**
 267:..//osal/cmsis_os/cmsis_os.c ****  * @brief Wait until a Mutex becomes available
 268:..//osal/cmsis_os/cmsis_os.c ****  * @param[in]   mutex_id    mutex ID obtained by \ref osMutexCreate.
 269:..//osal/cmsis_os/cmsis_os.c ****  * @param[in]   millisec    timeout value or 0 in case of no time-out.
 270:..//osal/cmsis_os/cmsis_os.c ****  * @return status code that indicates the execution status of the function.
 271:..//osal/cmsis_os/cmsis_os.c ****  */
 272:..//osal/cmsis_os/cmsis_os.c **** osStatus osMutexWait(osMutexId mutex_id, uint32_t millisec)
 273:..//osal/cmsis_os/cmsis_os.c **** {
 907              		.loc 1 273 1 is_stmt 1 view -0
 908              		.cfi_startproc
 909              		@ args = 0, pretend = 0, frame = 0
 910              		@ frame_needed = 0, uses_anonymous_args = 0
 911              		.loc 1 273 1 is_stmt 0 view .LVU193
 912 0000 10B5     		push	{r4, lr}
 913              	.LCFI23:
 914              		.cfi_def_cfa_offset 8
 915              		.cfi_offset 4, -8
 916              		.cfi_offset 14, -4
 917 0002 0446     		mov	r4, r0
 274:..//osal/cmsis_os/cmsis_os.c ****     k_tick_t timeout;
 918              		.loc 1 274 5 is_stmt 1 view .LVU194
 275:..//osal/cmsis_os/cmsis_os.c **** 
 276:..//osal/cmsis_os/cmsis_os.c ****     if (millisec == osWaitForever) {
 919              		.loc 1 276 5 view .LVU195
 920              		.loc 1 276 8 is_stmt 0 view .LVU196
 921 0004 B1F1FF3F 		cmp	r1, #-1
 922 0008 09D1     		bne	.L77
ARM GAS  C:\Users\tianx\AppData\Local\Temp\ccD0IzLd.s 			page 22


 277:..//osal/cmsis_os/cmsis_os.c ****         timeout = TOS_TIME_FOREVER;
 923              		.loc 1 277 17 view .LVU197
 924 000a 4FF0FF32 		mov	r2, #-1
 925 000e 4FF0FF33 		mov	r3, #-1
 926              	.LVL86:
 927              	.L74:
 278:..//osal/cmsis_os/cmsis_os.c ****     } else {
 279:..//osal/cmsis_os/cmsis_os.c ****         timeout = tos_millisec2tick(millisec);
 280:..//osal/cmsis_os/cmsis_os.c ****     }
 281:..//osal/cmsis_os/cmsis_os.c **** 
 282:..//osal/cmsis_os/cmsis_os.c ****     return errno_knl2cmsis(tos_mutex_pend_timed((k_mutex_t *)mutex_id, timeout));
 928              		.loc 1 282 5 is_stmt 1 view .LVU198
 929              		.loc 1 282 12 is_stmt 0 view .LVU199
 930 0012 2046     		mov	r0, r4
 931 0014 FFF7FEFF 		bl	tos_mutex_pend_timed
 932              	.LVL87:
 933              		.loc 1 282 12 view .LVU200
 934 0018 FFF7FEFF 		bl	errno_knl2cmsis
 935              	.LVL88:
 283:..//osal/cmsis_os/cmsis_os.c **** }
 936              		.loc 1 283 1 view .LVU201
 937 001c 10BD     		pop	{r4, pc}
 938              	.LVL89:
 939              	.L77:
 279:..//osal/cmsis_os/cmsis_os.c ****     }
 940              		.loc 1 279 9 is_stmt 1 view .LVU202
 279:..//osal/cmsis_os/cmsis_os.c ****     }
 941              		.loc 1 279 19 is_stmt 0 view .LVU203
 942 001e 0846     		mov	r0, r1
 943              	.LVL90:
 279:..//osal/cmsis_os/cmsis_os.c ****     }
 944              		.loc 1 279 19 view .LVU204
 945 0020 FFF7FEFF 		bl	tos_millisec2tick
 946              	.LVL91:
 279:..//osal/cmsis_os/cmsis_os.c ****     }
 947              		.loc 1 279 19 view .LVU205
 948 0024 0246     		mov	r2, r0
 949 0026 0B46     		mov	r3, r1
 950              	.LVL92:
 279:..//osal/cmsis_os/cmsis_os.c ****     }
 951              		.loc 1 279 19 view .LVU206
 952 0028 F3E7     		b	.L74
 953              		.cfi_endproc
 954              	.LFE129:
 956              		.section	.text.osMutexRelease,"ax",%progbits
 957              		.align	1
 958              		.global	osMutexRelease
 959              		.syntax unified
 960              		.thumb
 961              		.thumb_func
 962              		.fpu softvfp
 964              	osMutexRelease:
 965              	.LVL93:
 966              	.LFB130:
 284:..//osal/cmsis_os/cmsis_os.c **** 
 285:..//osal/cmsis_os/cmsis_os.c **** /**
 286:..//osal/cmsis_os/cmsis_os.c ****  * @brief Release a Mutex that was obtained by \ref osMutexWait
ARM GAS  C:\Users\tianx\AppData\Local\Temp\ccD0IzLd.s 			page 23


 287:..//osal/cmsis_os/cmsis_os.c ****  * @param[in]   mutex_id    mutex ID obtained by \ref osMutexCreate.
 288:..//osal/cmsis_os/cmsis_os.c ****  * @return status code that indicates the execution status of the function.
 289:..//osal/cmsis_os/cmsis_os.c ****  */
 290:..//osal/cmsis_os/cmsis_os.c **** osStatus osMutexRelease(osMutexId mutex_id)
 291:..//osal/cmsis_os/cmsis_os.c **** {
 967              		.loc 1 291 1 is_stmt 1 view -0
 968              		.cfi_startproc
 969              		@ args = 0, pretend = 0, frame = 0
 970              		@ frame_needed = 0, uses_anonymous_args = 0
 971              		.loc 1 291 1 is_stmt 0 view .LVU208
 972 0000 08B5     		push	{r3, lr}
 973              	.LCFI24:
 974              		.cfi_def_cfa_offset 8
 975              		.cfi_offset 3, -8
 976              		.cfi_offset 14, -4
 292:..//osal/cmsis_os/cmsis_os.c ****     return errno_knl2cmsis(tos_mutex_post((k_mutex_t *)mutex_id));
 977              		.loc 1 292 5 is_stmt 1 view .LVU209
 978              		.loc 1 292 12 is_stmt 0 view .LVU210
 979 0002 FFF7FEFF 		bl	tos_mutex_post
 980              	.LVL94:
 981              		.loc 1 292 12 view .LVU211
 982 0006 FFF7FEFF 		bl	errno_knl2cmsis
 983              	.LVL95:
 293:..//osal/cmsis_os/cmsis_os.c **** }
 984              		.loc 1 293 1 view .LVU212
 985 000a 08BD     		pop	{r3, pc}
 986              		.cfi_endproc
 987              	.LFE130:
 989              		.section	.text.osMutexDelete,"ax",%progbits
 990              		.align	1
 991              		.global	osMutexDelete
 992              		.syntax unified
 993              		.thumb
 994              		.thumb_func
 995              		.fpu softvfp
 997              	osMutexDelete:
 998              	.LVL96:
 999              	.LFB131:
 294:..//osal/cmsis_os/cmsis_os.c **** 
 295:..//osal/cmsis_os/cmsis_os.c **** /**
 296:..//osal/cmsis_os/cmsis_os.c ****  * @brief Delete a Mutex that was created by \ref osMutexCreate.
 297:..//osal/cmsis_os/cmsis_os.c ****  * @param[in]   mutex_id    mutex ID obtained by \ref osMutexCreate.
 298:..//osal/cmsis_os/cmsis_os.c ****  * @return status code that indicates the execution status of the function.
 299:..//osal/cmsis_os/cmsis_os.c ****  */
 300:..//osal/cmsis_os/cmsis_os.c **** osStatus osMutexDelete(osMutexId mutex_id)
 301:..//osal/cmsis_os/cmsis_os.c **** {
 1000              		.loc 1 301 1 is_stmt 1 view -0
 1001              		.cfi_startproc
 1002              		@ args = 0, pretend = 0, frame = 0
 1003              		@ frame_needed = 0, uses_anonymous_args = 0
 1004              		.loc 1 301 1 is_stmt 0 view .LVU214
 1005 0000 08B5     		push	{r3, lr}
 1006              	.LCFI25:
 1007              		.cfi_def_cfa_offset 8
 1008              		.cfi_offset 3, -8
 1009              		.cfi_offset 14, -4
 302:..//osal/cmsis_os/cmsis_os.c ****     return errno_knl2cmsis(tos_mutex_destroy((k_mutex_t *)mutex_id));
ARM GAS  C:\Users\tianx\AppData\Local\Temp\ccD0IzLd.s 			page 24


 1010              		.loc 1 302 5 is_stmt 1 view .LVU215
 1011              		.loc 1 302 12 is_stmt 0 view .LVU216
 1012 0002 FFF7FEFF 		bl	tos_mutex_destroy
 1013              	.LVL97:
 1014              		.loc 1 302 12 view .LVU217
 1015 0006 FFF7FEFF 		bl	errno_knl2cmsis
 1016              	.LVL98:
 303:..//osal/cmsis_os/cmsis_os.c **** }
 1017              		.loc 1 303 1 view .LVU218
 1018 000a 08BD     		pop	{r3, pc}
 1019              		.cfi_endproc
 1020              	.LFE131:
 1022              		.section	.text.osSemaphoreCreate,"ax",%progbits
 1023              		.align	1
 1024              		.global	osSemaphoreCreate
 1025              		.syntax unified
 1026              		.thumb
 1027              		.thumb_func
 1028              		.fpu softvfp
 1030              	osSemaphoreCreate:
 1031              	.LVL99:
 1032              	.LFB132:
 304:..//osal/cmsis_os/cmsis_os.c **** 
 305:..//osal/cmsis_os/cmsis_os.c **** #endif // TOS_CFG_MUTEX_EN
 306:..//osal/cmsis_os/cmsis_os.c **** 
 307:..//osal/cmsis_os/cmsis_os.c **** #if TOS_CFG_SEM_EN > 0
 308:..//osal/cmsis_os/cmsis_os.c **** /**
 309:..//osal/cmsis_os/cmsis_os.c ****  * @brief Create and Initialize a Semaphore object used for managing resources
 310:..//osal/cmsis_os/cmsis_os.c ****  * @param[in]   semaphore_def   semaphore definition referenced with \ref osSemaphore.
 311:..//osal/cmsis_os/cmsis_os.c ****  * @param[in]   count           number of available resources.
 312:..//osal/cmsis_os/cmsis_os.c ****  * @return semaphore ID for reference by other functions or NULL in case of error.
 313:..//osal/cmsis_os/cmsis_os.c ****  */
 314:..//osal/cmsis_os/cmsis_os.c **** osSemaphoreId osSemaphoreCreate(const osSemaphoreDef_t *semaphore_def, int32_t count)
 315:..//osal/cmsis_os/cmsis_os.c **** {
 1033              		.loc 1 315 1 is_stmt 1 view -0
 1034              		.cfi_startproc
 1035              		@ args = 0, pretend = 0, frame = 0
 1036              		@ frame_needed = 0, uses_anonymous_args = 0
 1037              		.loc 1 315 1 is_stmt 0 view .LVU220
 1038 0000 10B5     		push	{r4, lr}
 1039              	.LCFI26:
 1040              		.cfi_def_cfa_offset 8
 1041              		.cfi_offset 4, -8
 1042              		.cfi_offset 14, -4
 316:..//osal/cmsis_os/cmsis_os.c ****     k_err_t err;
 1043              		.loc 1 316 5 is_stmt 1 view .LVU221
 317:..//osal/cmsis_os/cmsis_os.c **** 
 318:..//osal/cmsis_os/cmsis_os.c ****     if (!semaphore_def) {
 1044              		.loc 1 318 5 view .LVU222
 1045              		.loc 1 318 8 is_stmt 0 view .LVU223
 1046 0002 0446     		mov	r4, r0
 1047 0004 28B1     		cbz	r0, .L82
 319:..//osal/cmsis_os/cmsis_os.c ****         return NULL;
 320:..//osal/cmsis_os/cmsis_os.c ****     }
 321:..//osal/cmsis_os/cmsis_os.c **** 
 322:..//osal/cmsis_os/cmsis_os.c ****     err = tos_sem_create((k_sem_t *)semaphore_def->sem, count);
 1048              		.loc 1 322 5 is_stmt 1 view .LVU224
ARM GAS  C:\Users\tianx\AppData\Local\Temp\ccD0IzLd.s 			page 25


 1049              		.loc 1 322 11 is_stmt 0 view .LVU225
 1050 0006 89B2     		uxth	r1, r1
 1051              	.LVL100:
 1052              		.loc 1 322 11 view .LVU226
 1053 0008 4068     		ldr	r0, [r0, #4]
 1054              	.LVL101:
 1055              		.loc 1 322 11 view .LVU227
 1056 000a FFF7FEFF 		bl	tos_sem_create
 1057              	.LVL102:
 323:..//osal/cmsis_os/cmsis_os.c ****     return err == K_ERR_NONE ? (k_sem_t *)semaphore_def->sem : NULL;
 1058              		.loc 1 323 5 is_stmt 1 view .LVU228
 1059              		.loc 1 323 62 is_stmt 0 view .LVU229
 1060 000e 08B9     		cbnz	r0, .L85
 1061              		.loc 1 323 62 discriminator 1 view .LVU230
 1062 0010 6068     		ldr	r0, [r4, #4]
 1063              	.LVL103:
 1064              	.L82:
 324:..//osal/cmsis_os/cmsis_os.c **** }
 1065              		.loc 1 324 1 view .LVU231
 1066 0012 10BD     		pop	{r4, pc}
 1067              	.LVL104:
 1068              	.L85:
 323:..//osal/cmsis_os/cmsis_os.c ****     return err == K_ERR_NONE ? (k_sem_t *)semaphore_def->sem : NULL;
 1069              		.loc 1 323 62 view .LVU232
 1070 0014 0020     		movs	r0, #0
 1071              	.LVL105:
 323:..//osal/cmsis_os/cmsis_os.c ****     return err == K_ERR_NONE ? (k_sem_t *)semaphore_def->sem : NULL;
 1072              		.loc 1 323 62 view .LVU233
 1073 0016 FCE7     		b	.L82
 1074              		.cfi_endproc
 1075              	.LFE132:
 1077              		.section	.text.osSemaphoreWait,"ax",%progbits
 1078              		.align	1
 1079              		.global	osSemaphoreWait
 1080              		.syntax unified
 1081              		.thumb
 1082              		.thumb_func
 1083              		.fpu softvfp
 1085              	osSemaphoreWait:
 1086              	.LVL106:
 1087              	.LFB133:
 325:..//osal/cmsis_os/cmsis_os.c **** 
 326:..//osal/cmsis_os/cmsis_os.c **** /**
 327:..//osal/cmsis_os/cmsis_os.c ****  * @brief Wait until a Semaphore token becomes available
 328:..//osal/cmsis_os/cmsis_os.c ****  * @param[in]   semaphore_id    semaphore object referenced with \ref osSemaphore.
 329:..//osal/cmsis_os/cmsis_os.c ****  * @param[in]   millisec        timeout value or 0 in case of no time-out.
 330:..//osal/cmsis_os/cmsis_os.c ****  * @return number of available tokens, or -1 in case of incorrect parameters.
 331:..//osal/cmsis_os/cmsis_os.c ****  */
 332:..//osal/cmsis_os/cmsis_os.c **** int32_t osSemaphoreWait(osSemaphoreId semaphore_id, uint32_t millisec)
 333:..//osal/cmsis_os/cmsis_os.c **** {
 1088              		.loc 1 333 1 is_stmt 1 view -0
 1089              		.cfi_startproc
 1090              		@ args = 0, pretend = 0, frame = 0
 1091              		@ frame_needed = 0, uses_anonymous_args = 0
 1092              		.loc 1 333 1 is_stmt 0 view .LVU235
 1093 0000 10B5     		push	{r4, lr}
 1094              	.LCFI27:
ARM GAS  C:\Users\tianx\AppData\Local\Temp\ccD0IzLd.s 			page 26


 1095              		.cfi_def_cfa_offset 8
 1096              		.cfi_offset 4, -8
 1097              		.cfi_offset 14, -4
 1098 0002 0446     		mov	r4, r0
 334:..//osal/cmsis_os/cmsis_os.c ****     k_err_t err;
 1099              		.loc 1 334 5 is_stmt 1 view .LVU236
 335:..//osal/cmsis_os/cmsis_os.c ****     k_tick_t timeout;
 1100              		.loc 1 335 5 view .LVU237
 336:..//osal/cmsis_os/cmsis_os.c **** 
 337:..//osal/cmsis_os/cmsis_os.c ****     if (millisec == osWaitForever) {
 1101              		.loc 1 337 5 view .LVU238
 1102              		.loc 1 337 8 is_stmt 0 view .LVU239
 1103 0004 B1F1FF3F 		cmp	r1, #-1
 1104 0008 09D1     		bne	.L93
 338:..//osal/cmsis_os/cmsis_os.c ****         timeout = TOS_TIME_FOREVER;
 1105              		.loc 1 338 17 view .LVU240
 1106 000a 4FF0FF32 		mov	r2, #-1
 1107 000e 4FF0FF33 		mov	r3, #-1
 1108              	.LVL107:
 1109              	.L88:
 339:..//osal/cmsis_os/cmsis_os.c ****     } else {
 340:..//osal/cmsis_os/cmsis_os.c ****         timeout = tos_millisec2tick(millisec);
 341:..//osal/cmsis_os/cmsis_os.c ****     }
 342:..//osal/cmsis_os/cmsis_os.c **** 
 343:..//osal/cmsis_os/cmsis_os.c ****     err = tos_sem_pend((k_sem_t *)semaphore_id, timeout);
 1110              		.loc 1 343 5 is_stmt 1 view .LVU241
 1111              		.loc 1 343 11 is_stmt 0 view .LVU242
 1112 0012 2046     		mov	r0, r4
 1113 0014 FFF7FEFF 		bl	tos_sem_pend
 1114              	.LVL108:
 344:..//osal/cmsis_os/cmsis_os.c **** 
 345:..//osal/cmsis_os/cmsis_os.c ****     return err == K_ERR_NONE ? ((k_sem_t *)semaphore_id)->count : -1;
 1115              		.loc 1 345 5 is_stmt 1 view .LVU243
 1116              		.loc 1 345 65 is_stmt 0 view .LVU244
 1117 0018 38B9     		cbnz	r0, .L91
 1118              		.loc 1 345 57 discriminator 1 view .LVU245
 1119 001a A089     		ldrh	r0, [r4, #12]
 1120              	.LVL109:
 1121              	.L87:
 346:..//osal/cmsis_os/cmsis_os.c **** }
 1122              		.loc 1 346 1 view .LVU246
 1123 001c 10BD     		pop	{r4, pc}
 1124              	.LVL110:
 1125              	.L93:
 340:..//osal/cmsis_os/cmsis_os.c ****     }
 1126              		.loc 1 340 9 is_stmt 1 view .LVU247
 340:..//osal/cmsis_os/cmsis_os.c ****     }
 1127              		.loc 1 340 19 is_stmt 0 view .LVU248
 1128 001e 0846     		mov	r0, r1
 1129              	.LVL111:
 340:..//osal/cmsis_os/cmsis_os.c ****     }
 1130              		.loc 1 340 19 view .LVU249
 1131 0020 FFF7FEFF 		bl	tos_millisec2tick
 1132              	.LVL112:
 340:..//osal/cmsis_os/cmsis_os.c ****     }
 1133              		.loc 1 340 19 view .LVU250
 1134 0024 0246     		mov	r2, r0
ARM GAS  C:\Users\tianx\AppData\Local\Temp\ccD0IzLd.s 			page 27


 1135 0026 0B46     		mov	r3, r1
 1136              	.LVL113:
 340:..//osal/cmsis_os/cmsis_os.c ****     }
 1137              		.loc 1 340 19 view .LVU251
 1138 0028 F3E7     		b	.L88
 1139              	.LVL114:
 1140              	.L91:
 345:..//osal/cmsis_os/cmsis_os.c **** }
 1141              		.loc 1 345 65 view .LVU252
 1142 002a 4FF0FF30 		mov	r0, #-1
 1143              	.LVL115:
 345:..//osal/cmsis_os/cmsis_os.c **** }
 1144              		.loc 1 345 65 view .LVU253
 1145 002e F5E7     		b	.L87
 1146              		.cfi_endproc
 1147              	.LFE133:
 1149              		.section	.text.osSemaphoreRelease,"ax",%progbits
 1150              		.align	1
 1151              		.global	osSemaphoreRelease
 1152              		.syntax unified
 1153              		.thumb
 1154              		.thumb_func
 1155              		.fpu softvfp
 1157              	osSemaphoreRelease:
 1158              	.LVL116:
 1159              	.LFB134:
 347:..//osal/cmsis_os/cmsis_os.c **** 
 348:..//osal/cmsis_os/cmsis_os.c **** /**
 349:..//osal/cmsis_os/cmsis_os.c ****  * @brief Release a Semaphore token
 350:..//osal/cmsis_os/cmsis_os.c ****  * @param[in]   semaphore_id    semaphore object referenced with \ref osSemaphore.
 351:..//osal/cmsis_os/cmsis_os.c ****  * @return status code that indicates the execution status of the function.
 352:..//osal/cmsis_os/cmsis_os.c ****  */
 353:..//osal/cmsis_os/cmsis_os.c **** osStatus osSemaphoreRelease(osSemaphoreId semaphore_id)
 354:..//osal/cmsis_os/cmsis_os.c **** {
 1160              		.loc 1 354 1 is_stmt 1 view -0
 1161              		.cfi_startproc
 1162              		@ args = 0, pretend = 0, frame = 0
 1163              		@ frame_needed = 0, uses_anonymous_args = 0
 1164              		.loc 1 354 1 is_stmt 0 view .LVU255
 1165 0000 08B5     		push	{r3, lr}
 1166              	.LCFI28:
 1167              		.cfi_def_cfa_offset 8
 1168              		.cfi_offset 3, -8
 1169              		.cfi_offset 14, -4
 355:..//osal/cmsis_os/cmsis_os.c ****     return errno_knl2cmsis(tos_sem_post((k_sem_t *)semaphore_id));
 1170              		.loc 1 355 5 is_stmt 1 view .LVU256
 1171              		.loc 1 355 12 is_stmt 0 view .LVU257
 1172 0002 FFF7FEFF 		bl	tos_sem_post
 1173              	.LVL117:
 1174              		.loc 1 355 12 view .LVU258
 1175 0006 FFF7FEFF 		bl	errno_knl2cmsis
 1176              	.LVL118:
 356:..//osal/cmsis_os/cmsis_os.c **** }
 1177              		.loc 1 356 1 view .LVU259
 1178 000a 08BD     		pop	{r3, pc}
 1179              		.cfi_endproc
 1180              	.LFE134:
ARM GAS  C:\Users\tianx\AppData\Local\Temp\ccD0IzLd.s 			page 28


 1182              		.section	.text.osSemaphoreDelete,"ax",%progbits
 1183              		.align	1
 1184              		.global	osSemaphoreDelete
 1185              		.syntax unified
 1186              		.thumb
 1187              		.thumb_func
 1188              		.fpu softvfp
 1190              	osSemaphoreDelete:
 1191              	.LVL119:
 1192              	.LFB135:
 357:..//osal/cmsis_os/cmsis_os.c **** 
 358:..//osal/cmsis_os/cmsis_os.c **** /**
 359:..//osal/cmsis_os/cmsis_os.c ****  * @brief Delete a Semaphore that was created by \ref osSemaphoreCreate.
 360:..//osal/cmsis_os/cmsis_os.c ****  * @param[in]   semaphore_id    semaphore object referenced with \ref osSemaphoreCreate.
 361:..//osal/cmsis_os/cmsis_os.c ****  * @return status code that indicates the execution status of the function.
 362:..//osal/cmsis_os/cmsis_os.c ****  */
 363:..//osal/cmsis_os/cmsis_os.c **** osStatus osSemaphoreDelete(osSemaphoreId semaphore_id)
 364:..//osal/cmsis_os/cmsis_os.c **** {
 1193              		.loc 1 364 1 is_stmt 1 view -0
 1194              		.cfi_startproc
 1195              		@ args = 0, pretend = 0, frame = 0
 1196              		@ frame_needed = 0, uses_anonymous_args = 0
 1197              		.loc 1 364 1 is_stmt 0 view .LVU261
 1198 0000 08B5     		push	{r3, lr}
 1199              	.LCFI29:
 1200              		.cfi_def_cfa_offset 8
 1201              		.cfi_offset 3, -8
 1202              		.cfi_offset 14, -4
 365:..//osal/cmsis_os/cmsis_os.c ****     return errno_knl2cmsis(tos_sem_destroy((k_sem_t *)semaphore_id));
 1203              		.loc 1 365 5 is_stmt 1 view .LVU262
 1204              		.loc 1 365 12 is_stmt 0 view .LVU263
 1205 0002 FFF7FEFF 		bl	tos_sem_destroy
 1206              	.LVL120:
 1207              		.loc 1 365 12 view .LVU264
 1208 0006 FFF7FEFF 		bl	errno_knl2cmsis
 1209              	.LVL121:
 366:..//osal/cmsis_os/cmsis_os.c **** }
 1210              		.loc 1 366 1 view .LVU265
 1211 000a 08BD     		pop	{r3, pc}
 1212              		.cfi_endproc
 1213              	.LFE135:
 1215              		.section	.text.osPoolCreate,"ax",%progbits
 1216              		.align	1
 1217              		.global	osPoolCreate
 1218              		.syntax unified
 1219              		.thumb
 1220              		.thumb_func
 1221              		.fpu softvfp
 1223              	osPoolCreate:
 1224              	.LVL122:
 1225              	.LFB136:
 367:..//osal/cmsis_os/cmsis_os.c **** 
 368:..//osal/cmsis_os/cmsis_os.c **** #endif // TOS_CFG_SEM_EN
 369:..//osal/cmsis_os/cmsis_os.c **** 
 370:..//osal/cmsis_os/cmsis_os.c **** //  ==== Memory Pool Management Functions ====
 371:..//osal/cmsis_os/cmsis_os.c **** 
 372:..//osal/cmsis_os/cmsis_os.c **** #if (defined (osFeature_Pool)  &&  (osFeature_Pool != 0))  // Memory Pool Management available
ARM GAS  C:\Users\tianx\AppData\Local\Temp\ccD0IzLd.s 			page 29


 373:..//osal/cmsis_os/cmsis_os.c **** 
 374:..//osal/cmsis_os/cmsis_os.c **** /**
 375:..//osal/cmsis_os/cmsis_os.c ****  * @brief Create and Initialize a memory pool
 376:..//osal/cmsis_os/cmsis_os.c ****  * @param[in]   pool_def    memory pool definition referenced with \ref osPool.
 377:..//osal/cmsis_os/cmsis_os.c ****  * @return memory pool ID for reference by other functions or NULL in case of error.
 378:..//osal/cmsis_os/cmsis_os.c ****  */
 379:..//osal/cmsis_os/cmsis_os.c **** osPoolId osPoolCreate(const osPoolDef_t *pool_def)
 380:..//osal/cmsis_os/cmsis_os.c **** {
 1226              		.loc 1 380 1 is_stmt 1 view -0
 1227              		.cfi_startproc
 1228              		@ args = 0, pretend = 0, frame = 0
 1229              		@ frame_needed = 0, uses_anonymous_args = 0
 1230              		.loc 1 380 1 is_stmt 0 view .LVU267
 1231 0000 10B5     		push	{r4, lr}
 1232              	.LCFI30:
 1233              		.cfi_def_cfa_offset 8
 1234              		.cfi_offset 4, -8
 1235              		.cfi_offset 14, -4
 381:..//osal/cmsis_os/cmsis_os.c ****     k_err_t err;
 1236              		.loc 1 381 5 is_stmt 1 view .LVU268
 382:..//osal/cmsis_os/cmsis_os.c **** 
 383:..//osal/cmsis_os/cmsis_os.c ****     if (!pool_def) {
 1237              		.loc 1 383 5 view .LVU269
 1238              		.loc 1 383 8 is_stmt 0 view .LVU270
 1239 0002 0446     		mov	r4, r0
 1240 0004 38B1     		cbz	r0, .L98
 384:..//osal/cmsis_os/cmsis_os.c ****         return NULL;
 385:..//osal/cmsis_os/cmsis_os.c ****     }
 386:..//osal/cmsis_os/cmsis_os.c **** 
 387:..//osal/cmsis_os/cmsis_os.c ****     err = tos_mmblk_pool_create((k_mmblk_pool_t *)pool_def->mmblk_pool,
 1241              		.loc 1 387 5 is_stmt 1 view .LVU271
 1242              		.loc 1 387 11 is_stmt 0 view .LVU272
 1243 0006 4368     		ldr	r3, [r0, #4]
 1244 0008 0268     		ldr	r2, [r0]
 1245 000a 8168     		ldr	r1, [r0, #8]
 1246 000c C068     		ldr	r0, [r0, #12]
 1247              	.LVL123:
 1248              		.loc 1 387 11 view .LVU273
 1249 000e FFF7FEFF 		bl	tos_mmblk_pool_create
 1250              	.LVL124:
 388:..//osal/cmsis_os/cmsis_os.c ****                                     pool_def->pool, pool_def->pool_sz, pool_def->item_sz);
 389:..//osal/cmsis_os/cmsis_os.c ****     return err == K_ERR_NONE ? pool_def->mmblk_pool : NULL;
 1251              		.loc 1 389 5 is_stmt 1 view .LVU274
 1252              		.loc 1 389 53 is_stmt 0 view .LVU275
 1253 0012 08B9     		cbnz	r0, .L101
 1254              		.loc 1 389 53 discriminator 1 view .LVU276
 1255 0014 E068     		ldr	r0, [r4, #12]
 1256              	.LVL125:
 1257              	.L98:
 390:..//osal/cmsis_os/cmsis_os.c **** }
 1258              		.loc 1 390 1 view .LVU277
 1259 0016 10BD     		pop	{r4, pc}
 1260              	.LVL126:
 1261              	.L101:
 389:..//osal/cmsis_os/cmsis_os.c **** }
 1262              		.loc 1 389 53 view .LVU278
 1263 0018 0020     		movs	r0, #0
ARM GAS  C:\Users\tianx\AppData\Local\Temp\ccD0IzLd.s 			page 30


 1264              	.LVL127:
 389:..//osal/cmsis_os/cmsis_os.c **** }
 1265              		.loc 1 389 53 view .LVU279
 1266 001a FCE7     		b	.L98
 1267              		.cfi_endproc
 1268              	.LFE136:
 1270              		.section	.text.osPoolAlloc,"ax",%progbits
 1271              		.align	1
 1272              		.global	osPoolAlloc
 1273              		.syntax unified
 1274              		.thumb
 1275              		.thumb_func
 1276              		.fpu softvfp
 1278              	osPoolAlloc:
 1279              	.LVL128:
 1280              	.LFB137:
 391:..//osal/cmsis_os/cmsis_os.c **** 
 392:..//osal/cmsis_os/cmsis_os.c **** /**
 393:..//osal/cmsis_os/cmsis_os.c ****  * @brief Allocate a memory block from a memory pool
 394:..//osal/cmsis_os/cmsis_os.c ****  * @param[in]   pool_id memory pool ID obtain referenced with \ref osPoolCreate.
 395:..//osal/cmsis_os/cmsis_os.c ****  * @return address of the allocated memory block or NULL in case of no memory available.
 396:..//osal/cmsis_os/cmsis_os.c ****  */
 397:..//osal/cmsis_os/cmsis_os.c **** void *osPoolAlloc(osPoolId pool_id)
 398:..//osal/cmsis_os/cmsis_os.c **** {
 1281              		.loc 1 398 1 is_stmt 1 view -0
 1282              		.cfi_startproc
 1283              		@ args = 0, pretend = 0, frame = 8
 1284              		@ frame_needed = 0, uses_anonymous_args = 0
 1285              		.loc 1 398 1 is_stmt 0 view .LVU281
 1286 0000 00B5     		push	{lr}
 1287              	.LCFI31:
 1288              		.cfi_def_cfa_offset 4
 1289              		.cfi_offset 14, -4
 1290 0002 83B0     		sub	sp, sp, #12
 1291              	.LCFI32:
 1292              		.cfi_def_cfa_offset 16
 399:..//osal/cmsis_os/cmsis_os.c ****     k_err_t err;
 1293              		.loc 1 399 5 is_stmt 1 view .LVU282
 400:..//osal/cmsis_os/cmsis_os.c ****     void *ptr = NULL;
 1294              		.loc 1 400 5 view .LVU283
 1295              		.loc 1 400 11 is_stmt 0 view .LVU284
 1296 0004 0023     		movs	r3, #0
 1297 0006 0193     		str	r3, [sp, #4]
 401:..//osal/cmsis_os/cmsis_os.c **** 
 402:..//osal/cmsis_os/cmsis_os.c ****     err = tos_mmblk_alloc((k_mmblk_pool_t *)pool_id, &ptr);
 1298              		.loc 1 402 5 is_stmt 1 view .LVU285
 1299              		.loc 1 402 11 is_stmt 0 view .LVU286
 1300 0008 01A9     		add	r1, sp, #4
 1301 000a FFF7FEFF 		bl	tos_mmblk_alloc
 1302              	.LVL129:
 403:..//osal/cmsis_os/cmsis_os.c ****     return err == K_ERR_NONE ? ptr : NULL;
 1303              		.loc 1 403 5 is_stmt 1 view .LVU287
 1304              		.loc 1 403 36 is_stmt 0 view .LVU288
 1305 000e 18B9     		cbnz	r0, .L105
 1306              		.loc 1 403 36 discriminator 1 view .LVU289
 1307 0010 0198     		ldr	r0, [sp, #4]
 1308              	.LVL130:
ARM GAS  C:\Users\tianx\AppData\Local\Temp\ccD0IzLd.s 			page 31


 1309              	.L103:
 404:..//osal/cmsis_os/cmsis_os.c **** }
 1310              		.loc 1 404 1 view .LVU290
 1311 0012 03B0     		add	sp, sp, #12
 1312              	.LCFI33:
 1313              		.cfi_remember_state
 1314              		.cfi_def_cfa_offset 4
 1315              		@ sp needed
 1316 0014 5DF804FB 		ldr	pc, [sp], #4
 1317              	.LVL131:
 1318              	.L105:
 1319              	.LCFI34:
 1320              		.cfi_restore_state
 403:..//osal/cmsis_os/cmsis_os.c ****     return err == K_ERR_NONE ? ptr : NULL;
 1321              		.loc 1 403 36 view .LVU291
 1322 0018 0020     		movs	r0, #0
 1323              	.LVL132:
 403:..//osal/cmsis_os/cmsis_os.c ****     return err == K_ERR_NONE ? ptr : NULL;
 1324              		.loc 1 403 36 view .LVU292
 1325 001a FAE7     		b	.L103
 1326              		.cfi_endproc
 1327              	.LFE137:
 1329              		.section	.text.osPoolCAlloc,"ax",%progbits
 1330              		.align	1
 1331              		.global	osPoolCAlloc
 1332              		.syntax unified
 1333              		.thumb
 1334              		.thumb_func
 1335              		.fpu softvfp
 1337              	osPoolCAlloc:
 1338              	.LVL133:
 1339              	.LFB138:
 405:..//osal/cmsis_os/cmsis_os.c **** 
 406:..//osal/cmsis_os/cmsis_os.c **** /**
 407:..//osal/cmsis_os/cmsis_os.c ****  * @brief Allocate a memory block from a memory pool and set memory block to zero
 408:..//osal/cmsis_os/cmsis_os.c ****  * @param[in]   pool_id memory pool ID obtain referenced with \ref osPoolCreate.
 409:..//osal/cmsis_os/cmsis_os.c ****  * @return address of the allocated memory block or NULL in case of no memory available.
 410:..//osal/cmsis_os/cmsis_os.c ****  */
 411:..//osal/cmsis_os/cmsis_os.c **** void *osPoolCAlloc(osPoolId pool_id)
 412:..//osal/cmsis_os/cmsis_os.c **** {
 1340              		.loc 1 412 1 is_stmt 1 view -0
 1341              		.cfi_startproc
 1342              		@ args = 0, pretend = 0, frame = 8
 1343              		@ frame_needed = 0, uses_anonymous_args = 0
 1344              		.loc 1 412 1 is_stmt 0 view .LVU294
 1345 0000 10B5     		push	{r4, lr}
 1346              	.LCFI35:
 1347              		.cfi_def_cfa_offset 8
 1348              		.cfi_offset 4, -8
 1349              		.cfi_offset 14, -4
 1350 0002 82B0     		sub	sp, sp, #8
 1351              	.LCFI36:
 1352              		.cfi_def_cfa_offset 16
 1353 0004 0446     		mov	r4, r0
 413:..//osal/cmsis_os/cmsis_os.c ****     k_err_t err;
 1354              		.loc 1 413 5 is_stmt 1 view .LVU295
 414:..//osal/cmsis_os/cmsis_os.c ****     void *ptr = NULL;
ARM GAS  C:\Users\tianx\AppData\Local\Temp\ccD0IzLd.s 			page 32


 1355              		.loc 1 414 5 view .LVU296
 1356              		.loc 1 414 11 is_stmt 0 view .LVU297
 1357 0006 0023     		movs	r3, #0
 1358 0008 0193     		str	r3, [sp, #4]
 415:..//osal/cmsis_os/cmsis_os.c **** 
 416:..//osal/cmsis_os/cmsis_os.c ****     err = tos_mmblk_alloc((k_mmblk_pool_t *)pool_id, &ptr);
 1359              		.loc 1 416 5 is_stmt 1 view .LVU298
 1360              		.loc 1 416 11 is_stmt 0 view .LVU299
 1361 000a 01A9     		add	r1, sp, #4
 1362 000c FFF7FEFF 		bl	tos_mmblk_alloc
 1363              	.LVL134:
 417:..//osal/cmsis_os/cmsis_os.c ****     if (err == K_ERR_NONE) {
 1364              		.loc 1 417 5 is_stmt 1 view .LVU300
 1365              		.loc 1 417 8 is_stmt 0 view .LVU301
 1366 0010 10B1     		cbz	r0, .L111
 418:..//osal/cmsis_os/cmsis_os.c ****         memset(ptr, 0, ((k_mmblk_pool_t *)pool_id)->blk_size);
 419:..//osal/cmsis_os/cmsis_os.c ****         return ptr;
 420:..//osal/cmsis_os/cmsis_os.c ****     }
 421:..//osal/cmsis_os/cmsis_os.c **** 
 422:..//osal/cmsis_os/cmsis_os.c ****     return NULL;
 1367              		.loc 1 422 12 view .LVU302
 1368 0012 0020     		movs	r0, #0
 1369              	.LVL135:
 1370              	.L107:
 423:..//osal/cmsis_os/cmsis_os.c **** }
 1371              		.loc 1 423 1 view .LVU303
 1372 0014 02B0     		add	sp, sp, #8
 1373              	.LCFI37:
 1374              		.cfi_remember_state
 1375              		.cfi_def_cfa_offset 8
 1376              		@ sp needed
 1377 0016 10BD     		pop	{r4, pc}
 1378              	.LVL136:
 1379              	.L111:
 1380              	.LCFI38:
 1381              		.cfi_restore_state
 418:..//osal/cmsis_os/cmsis_os.c ****         memset(ptr, 0, ((k_mmblk_pool_t *)pool_id)->blk_size);
 1382              		.loc 1 418 9 is_stmt 1 view .LVU304
 1383 0018 E268     		ldr	r2, [r4, #12]
 1384 001a 0021     		movs	r1, #0
 1385 001c 0198     		ldr	r0, [sp, #4]
 1386              	.LVL137:
 418:..//osal/cmsis_os/cmsis_os.c ****         memset(ptr, 0, ((k_mmblk_pool_t *)pool_id)->blk_size);
 1387              		.loc 1 418 9 is_stmt 0 view .LVU305
 1388 001e FFF7FEFF 		bl	memset
 1389              	.LVL138:
 419:..//osal/cmsis_os/cmsis_os.c ****     }
 1390              		.loc 1 419 9 is_stmt 1 view .LVU306
 419:..//osal/cmsis_os/cmsis_os.c ****     }
 1391              		.loc 1 419 16 is_stmt 0 view .LVU307
 1392 0022 0198     		ldr	r0, [sp, #4]
 1393 0024 F6E7     		b	.L107
 1394              		.cfi_endproc
 1395              	.LFE138:
 1397              		.section	.text.osPoolFree,"ax",%progbits
 1398              		.align	1
 1399              		.global	osPoolFree
ARM GAS  C:\Users\tianx\AppData\Local\Temp\ccD0IzLd.s 			page 33


 1400              		.syntax unified
 1401              		.thumb
 1402              		.thumb_func
 1403              		.fpu softvfp
 1405              	osPoolFree:
 1406              	.LVL139:
 1407              	.LFB139:
 424:..//osal/cmsis_os/cmsis_os.c **** 
 425:..//osal/cmsis_os/cmsis_os.c **** /**
 426:..//osal/cmsis_os/cmsis_os.c ****  * @brief Return an allocated memory block back to a specific memory pool
 427:..//osal/cmsis_os/cmsis_os.c ****  * @param[in]   pool_id memory pool ID obtain referenced with \ref osPoolCreate.
 428:..//osal/cmsis_os/cmsis_os.c ****  * @param[in]   block   address of the allocated memory block that is returned to the memory pool.
 429:..//osal/cmsis_os/cmsis_os.c ****  * @return status code that indicates the execution status of the function.
 430:..//osal/cmsis_os/cmsis_os.c ****  */
 431:..//osal/cmsis_os/cmsis_os.c **** osStatus osPoolFree(osPoolId pool_id, void *block)
 432:..//osal/cmsis_os/cmsis_os.c **** {
 1408              		.loc 1 432 1 is_stmt 1 view -0
 1409              		.cfi_startproc
 1410              		@ args = 0, pretend = 0, frame = 0
 1411              		@ frame_needed = 0, uses_anonymous_args = 0
 1412              		.loc 1 432 1 is_stmt 0 view .LVU309
 1413 0000 08B5     		push	{r3, lr}
 1414              	.LCFI39:
 1415              		.cfi_def_cfa_offset 8
 1416              		.cfi_offset 3, -8
 1417              		.cfi_offset 14, -4
 433:..//osal/cmsis_os/cmsis_os.c ****     return errno_knl2cmsis(tos_mmblk_free((k_mmblk_pool_t *)pool_id, block));
 1418              		.loc 1 433 5 is_stmt 1 view .LVU310
 1419              		.loc 1 433 12 is_stmt 0 view .LVU311
 1420 0002 FFF7FEFF 		bl	tos_mmblk_free
 1421              	.LVL140:
 1422              		.loc 1 433 12 view .LVU312
 1423 0006 FFF7FEFF 		bl	errno_knl2cmsis
 1424              	.LVL141:
 434:..//osal/cmsis_os/cmsis_os.c **** }
 1425              		.loc 1 434 1 view .LVU313
 1426 000a 08BD     		pop	{r3, pc}
 1427              		.cfi_endproc
 1428              	.LFE139:
 1430              		.section	.text.osMessageCreate,"ax",%progbits
 1431              		.align	1
 1432              		.global	osMessageCreate
 1433              		.syntax unified
 1434              		.thumb
 1435              		.thumb_func
 1436              		.fpu softvfp
 1438              	osMessageCreate:
 1439              	.LVL142:
 1440              	.LFB140:
 435:..//osal/cmsis_os/cmsis_os.c **** 
 436:..//osal/cmsis_os/cmsis_os.c **** #endif // Memory Pool Management available
 437:..//osal/cmsis_os/cmsis_os.c **** 
 438:..//osal/cmsis_os/cmsis_os.c **** #if TOS_CFG_MESSAGE_QUEUE_EN > 0u
 439:..//osal/cmsis_os/cmsis_os.c **** //  ==== Message Queue Management Functions ====
 440:..//osal/cmsis_os/cmsis_os.c **** 
 441:..//osal/cmsis_os/cmsis_os.c **** #if (defined (osFeature_MessageQ) && (osFeature_MessageQ != 0))     // Message Queues available
 442:..//osal/cmsis_os/cmsis_os.c **** 
ARM GAS  C:\Users\tianx\AppData\Local\Temp\ccD0IzLd.s 			page 34


 443:..//osal/cmsis_os/cmsis_os.c **** /**
 444:..//osal/cmsis_os/cmsis_os.c ****  * @brief Create and Initialize a Message Queue.
 445:..//osal/cmsis_os/cmsis_os.c ****  * @param[in]   queue_def   queue definition referenced with \ref osMessageQ.
 446:..//osal/cmsis_os/cmsis_os.c ****  * @param[in]   thread_id   thread ID (obtained by \ref osThreadCreate or \ref osThreadGetId) or NU
 447:..//osal/cmsis_os/cmsis_os.c ****  * @return message queue ID for reference by other functions or NULL in case of error.
 448:..//osal/cmsis_os/cmsis_os.c ****  */
 449:..//osal/cmsis_os/cmsis_os.c **** osMessageQId osMessageCreate(const osMessageQDef_t *queue_def, osThreadId thread_id)
 450:..//osal/cmsis_os/cmsis_os.c **** {
 1441              		.loc 1 450 1 is_stmt 1 view -0
 1442              		.cfi_startproc
 1443              		@ args = 0, pretend = 0, frame = 0
 1444              		@ frame_needed = 0, uses_anonymous_args = 0
 1445              		.loc 1 450 1 is_stmt 0 view .LVU315
 1446 0000 10B5     		push	{r4, lr}
 1447              	.LCFI40:
 1448              		.cfi_def_cfa_offset 8
 1449              		.cfi_offset 4, -8
 1450              		.cfi_offset 14, -4
 451:..//osal/cmsis_os/cmsis_os.c ****     k_err_t err;
 1451              		.loc 1 451 5 is_stmt 1 view .LVU316
 452:..//osal/cmsis_os/cmsis_os.c **** 
 453:..//osal/cmsis_os/cmsis_os.c ****     if (!queue_def) {
 1452              		.loc 1 453 5 view .LVU317
 1453              		.loc 1 453 8 is_stmt 0 view .LVU318
 1454 0002 0446     		mov	r4, r0
 1455 0004 30B1     		cbz	r0, .L114
 454:..//osal/cmsis_os/cmsis_os.c ****         return NULL;
 455:..//osal/cmsis_os/cmsis_os.c ****     }
 456:..//osal/cmsis_os/cmsis_os.c **** 
 457:..//osal/cmsis_os/cmsis_os.c ****     thread_id = thread_id; // make compiler happy
 1456              		.loc 1 457 5 is_stmt 1 view .LVU319
 458:..//osal/cmsis_os/cmsis_os.c **** 
 459:..//osal/cmsis_os/cmsis_os.c ****     err = tos_msg_q_create((k_msg_q_t *)queue_def->queue, queue_def->pool, queue_def->queue_sz);
 1457              		.loc 1 459 5 view .LVU320
 1458              		.loc 1 459 11 is_stmt 0 view .LVU321
 1459 0006 0268     		ldr	r2, [r0]
 1460 0008 8168     		ldr	r1, [r0, #8]
 1461              	.LVL143:
 1462              		.loc 1 459 11 view .LVU322
 1463 000a C068     		ldr	r0, [r0, #12]
 1464              	.LVL144:
 1465              		.loc 1 459 11 view .LVU323
 1466 000c FFF7FEFF 		bl	tos_msg_q_create
 1467              	.LVL145:
 460:..//osal/cmsis_os/cmsis_os.c ****     return err == K_ERR_NONE ? (k_msg_q_t *)queue_def->queue : NULL;
 1468              		.loc 1 460 5 is_stmt 1 view .LVU324
 1469              		.loc 1 460 62 is_stmt 0 view .LVU325
 1470 0010 08B9     		cbnz	r0, .L117
 1471              		.loc 1 460 62 discriminator 1 view .LVU326
 1472 0012 E068     		ldr	r0, [r4, #12]
 1473              	.LVL146:
 1474              	.L114:
 461:..//osal/cmsis_os/cmsis_os.c **** }
 1475              		.loc 1 461 1 view .LVU327
 1476 0014 10BD     		pop	{r4, pc}
 1477              	.LVL147:
 1478              	.L117:
ARM GAS  C:\Users\tianx\AppData\Local\Temp\ccD0IzLd.s 			page 35


 460:..//osal/cmsis_os/cmsis_os.c ****     return err == K_ERR_NONE ? (k_msg_q_t *)queue_def->queue : NULL;
 1479              		.loc 1 460 62 view .LVU328
 1480 0016 0020     		movs	r0, #0
 1481              	.LVL148:
 460:..//osal/cmsis_os/cmsis_os.c ****     return err == K_ERR_NONE ? (k_msg_q_t *)queue_def->queue : NULL;
 1482              		.loc 1 460 62 view .LVU329
 1483 0018 FCE7     		b	.L114
 1484              		.cfi_endproc
 1485              	.LFE140:
 1487              		.section	.text.osMessagePut,"ax",%progbits
 1488              		.align	1
 1489              		.global	osMessagePut
 1490              		.syntax unified
 1491              		.thumb
 1492              		.thumb_func
 1493              		.fpu softvfp
 1495              	osMessagePut:
 1496              	.LVL149:
 1497              	.LFB141:
 462:..//osal/cmsis_os/cmsis_os.c **** 
 463:..//osal/cmsis_os/cmsis_os.c **** /**
 464:..//osal/cmsis_os/cmsis_os.c ****  * @brief Put a Message to a Queue.
 465:..//osal/cmsis_os/cmsis_os.c ****  * @param[in]   queue_id    message queue ID obtained with \ref osMessageCreate.
 466:..//osal/cmsis_os/cmsis_os.c ****  * @param[in]   info        message information.
 467:..//osal/cmsis_os/cmsis_os.c ****  * @param[in]   millisec    timeout value or 0 in case of no time-out.
 468:..//osal/cmsis_os/cmsis_os.c ****  * @return status code that indicates the execution status of the function.
 469:..//osal/cmsis_os/cmsis_os.c ****  */
 470:..//osal/cmsis_os/cmsis_os.c **** osStatus osMessagePut(osMessageQId queue_id, uint32_t info, uint32_t millisec)
 471:..//osal/cmsis_os/cmsis_os.c **** {
 1498              		.loc 1 471 1 is_stmt 1 view -0
 1499              		.cfi_startproc
 1500              		@ args = 0, pretend = 0, frame = 0
 1501              		@ frame_needed = 0, uses_anonymous_args = 0
 1502              		.loc 1 471 1 is_stmt 0 view .LVU331
 1503 0000 08B5     		push	{r3, lr}
 1504              	.LCFI41:
 1505              		.cfi_def_cfa_offset 8
 1506              		.cfi_offset 3, -8
 1507              		.cfi_offset 14, -4
 472:..//osal/cmsis_os/cmsis_os.c ****     return errno_knl2cmsis(tos_msg_q_post((k_msg_q_t *)queue_id, (uint32_t*)info));
 1508              		.loc 1 472 5 is_stmt 1 view .LVU332
 1509              		.loc 1 472 12 is_stmt 0 view .LVU333
 1510 0002 FFF7FEFF 		bl	tos_msg_q_post
 1511              	.LVL150:
 1512              		.loc 1 472 12 view .LVU334
 1513 0006 FFF7FEFF 		bl	errno_knl2cmsis
 1514              	.LVL151:
 473:..//osal/cmsis_os/cmsis_os.c **** }
 1515              		.loc 1 473 1 view .LVU335
 1516 000a 08BD     		pop	{r3, pc}
 1517              		.cfi_endproc
 1518              	.LFE141:
 1520              		.section	.text.osMessageGet,"ax",%progbits
 1521              		.align	1
 1522              		.global	osMessageGet
 1523              		.syntax unified
 1524              		.thumb
ARM GAS  C:\Users\tianx\AppData\Local\Temp\ccD0IzLd.s 			page 36


 1525              		.thumb_func
 1526              		.fpu softvfp
 1528              	osMessageGet:
 1529              	.LVL152:
 1530              	.LFB142:
 474:..//osal/cmsis_os/cmsis_os.c **** 
 475:..//osal/cmsis_os/cmsis_os.c **** /**
 476:..//osal/cmsis_os/cmsis_os.c ****  * @brief Get a Message or Wait for a Message from a Queue.
 477:..//osal/cmsis_os/cmsis_os.c ****  * @param[in]   queue_id    message queue ID obtained with \ref osMessageCreate.
 478:..//osal/cmsis_os/cmsis_os.c ****  * @param[in]   millisec    timeout value or 0 in case of no time-out.
 479:..//osal/cmsis_os/cmsis_os.c ****  * @return event information that includes status code.
 480:..//osal/cmsis_os/cmsis_os.c ****  */
 481:..//osal/cmsis_os/cmsis_os.c **** osEvent osMessageGet(osMessageQId queue_id, uint32_t millisec)
 482:..//osal/cmsis_os/cmsis_os.c **** {
 1531              		.loc 1 482 1 is_stmt 1 view -0
 1532              		.cfi_startproc
 1533              		@ args = 0, pretend = 0, frame = 8
 1534              		@ frame_needed = 0, uses_anonymous_args = 0
 1535              		.loc 1 482 1 is_stmt 0 view .LVU337
 1536 0000 30B5     		push	{r4, r5, lr}
 1537              	.LCFI42:
 1538              		.cfi_def_cfa_offset 12
 1539              		.cfi_offset 4, -12
 1540              		.cfi_offset 5, -8
 1541              		.cfi_offset 14, -4
 1542 0002 83B0     		sub	sp, sp, #12
 1543              	.LCFI43:
 1544              		.cfi_def_cfa_offset 24
 1545 0004 0446     		mov	r4, r0
 1546 0006 0D46     		mov	r5, r1
 483:..//osal/cmsis_os/cmsis_os.c ****     osEvent event;
 1547              		.loc 1 483 5 is_stmt 1 view .LVU338
 484:..//osal/cmsis_os/cmsis_os.c ****     k_err_t err;
 1548              		.loc 1 484 5 view .LVU339
 485:..//osal/cmsis_os/cmsis_os.c ****     k_tick_t timeout;
 1549              		.loc 1 485 5 view .LVU340
 486:..//osal/cmsis_os/cmsis_os.c ****     void *msg_body = NULL;
 1550              		.loc 1 486 5 view .LVU341
 1551              		.loc 1 486 11 is_stmt 0 view .LVU342
 1552 0008 0023     		movs	r3, #0
 1553 000a 0193     		str	r3, [sp, #4]
 487:..//osal/cmsis_os/cmsis_os.c **** 
 488:..//osal/cmsis_os/cmsis_os.c ****     if (millisec == osWaitForever) {
 1554              		.loc 1 488 5 is_stmt 1 view .LVU343
 1555              		.loc 1 488 8 is_stmt 0 view .LVU344
 1556 000c B2F1FF3F 		cmp	r2, #-1
 1557 0010 11D1     		bne	.L127
 489:..//osal/cmsis_os/cmsis_os.c ****         timeout = TOS_TIME_FOREVER;
 1558              		.loc 1 489 17 view .LVU345
 1559 0012 4FF0FF32 		mov	r2, #-1
 1560              	.LVL153:
 1561              		.loc 1 489 17 view .LVU346
 1562 0016 4FF0FF33 		mov	r3, #-1
 1563              	.LVL154:
 1564              	.L122:
 490:..//osal/cmsis_os/cmsis_os.c ****     } else {
 491:..//osal/cmsis_os/cmsis_os.c ****         timeout = tos_millisec2tick(millisec);
ARM GAS  C:\Users\tianx\AppData\Local\Temp\ccD0IzLd.s 			page 37


 492:..//osal/cmsis_os/cmsis_os.c ****     }
 493:..//osal/cmsis_os/cmsis_os.c **** 
 494:..//osal/cmsis_os/cmsis_os.c ****     err = tos_msg_q_pend((k_msg_q_t *)queue_id, &msg_body, timeout);
 1565              		.loc 1 494 5 is_stmt 1 view .LVU347
 1566              		.loc 1 494 11 is_stmt 0 view .LVU348
 1567 001a 01A9     		add	r1, sp, #4
 1568 001c 2846     		mov	r0, r5
 1569 001e FFF7FEFF 		bl	tos_msg_q_pend
 1570              	.LVL155:
 495:..//osal/cmsis_os/cmsis_os.c ****     if (err == K_ERR_NONE) {
 1571              		.loc 1 495 5 is_stmt 1 view .LVU349
 1572              		.loc 1 495 8 is_stmt 0 view .LVU350
 1573 0022 70B9     		cbnz	r0, .L123
 496:..//osal/cmsis_os/cmsis_os.c ****         event.def.message_id    = queue_id;
 1574              		.loc 1 496 9 is_stmt 1 view .LVU351
 1575              		.loc 1 496 33 is_stmt 0 view .LVU352
 1576 0024 A560     		str	r5, [r4, #8]
 497:..//osal/cmsis_os/cmsis_os.c ****         event.status            = errno_knl2cmsis(err);
 1577              		.loc 1 497 9 is_stmt 1 view .LVU353
 1578              		.loc 1 497 35 is_stmt 0 view .LVU354
 1579 0026 FFF7FEFF 		bl	errno_knl2cmsis
 1580              	.LVL156:
 1581              		.loc 1 497 33 view .LVU355
 1582 002a 2060     		str	r0, [r4]
 498:..//osal/cmsis_os/cmsis_os.c ****         event.value.v           = (uint32_t)msg_body;
 1583              		.loc 1 498 9 is_stmt 1 view .LVU356
 1584              		.loc 1 498 35 is_stmt 0 view .LVU357
 1585 002c 019B     		ldr	r3, [sp, #4]
 1586              		.loc 1 498 33 view .LVU358
 1587 002e 6360     		str	r3, [r4, #4]
 1588              	.L121:
 499:..//osal/cmsis_os/cmsis_os.c ****     } else {
 500:..//osal/cmsis_os/cmsis_os.c ****         event.def.message_id    = NULL;
 501:..//osal/cmsis_os/cmsis_os.c ****         event.status            = osErrorOS;
 502:..//osal/cmsis_os/cmsis_os.c ****     }
 503:..//osal/cmsis_os/cmsis_os.c **** 
 504:..//osal/cmsis_os/cmsis_os.c ****     return event;
 505:..//osal/cmsis_os/cmsis_os.c **** }
 1589              		.loc 1 505 1 view .LVU359
 1590 0030 2046     		mov	r0, r4
 1591 0032 03B0     		add	sp, sp, #12
 1592              	.LCFI44:
 1593              		.cfi_remember_state
 1594              		.cfi_def_cfa_offset 12
 1595              		@ sp needed
 1596 0034 30BD     		pop	{r4, r5, pc}
 1597              	.LVL157:
 1598              	.L127:
 1599              	.LCFI45:
 1600              		.cfi_restore_state
 491:..//osal/cmsis_os/cmsis_os.c ****     }
 1601              		.loc 1 491 9 is_stmt 1 view .LVU360
 491:..//osal/cmsis_os/cmsis_os.c ****     }
 1602              		.loc 1 491 19 is_stmt 0 view .LVU361
 1603 0036 1046     		mov	r0, r2
 1604              	.LVL158:
 491:..//osal/cmsis_os/cmsis_os.c ****     }
ARM GAS  C:\Users\tianx\AppData\Local\Temp\ccD0IzLd.s 			page 38


 1605              		.loc 1 491 19 view .LVU362
 1606 0038 FFF7FEFF 		bl	tos_millisec2tick
 1607              	.LVL159:
 491:..//osal/cmsis_os/cmsis_os.c ****     }
 1608              		.loc 1 491 19 view .LVU363
 1609 003c 0246     		mov	r2, r0
 1610 003e 0B46     		mov	r3, r1
 1611              	.LVL160:
 491:..//osal/cmsis_os/cmsis_os.c ****     }
 1612              		.loc 1 491 19 view .LVU364
 1613 0040 EBE7     		b	.L122
 1614              	.LVL161:
 1615              	.L123:
 500:..//osal/cmsis_os/cmsis_os.c ****         event.status            = osErrorOS;
 1616              		.loc 1 500 9 is_stmt 1 view .LVU365
 500:..//osal/cmsis_os/cmsis_os.c ****         event.status            = osErrorOS;
 1617              		.loc 1 500 33 is_stmt 0 view .LVU366
 1618 0042 0023     		movs	r3, #0
 1619 0044 A360     		str	r3, [r4, #8]
 501:..//osal/cmsis_os/cmsis_os.c ****     }
 1620              		.loc 1 501 9 is_stmt 1 view .LVU367
 501:..//osal/cmsis_os/cmsis_os.c ****     }
 1621              		.loc 1 501 33 is_stmt 0 view .LVU368
 1622 0046 FF23     		movs	r3, #255
 1623 0048 2360     		str	r3, [r4]
 504:..//osal/cmsis_os/cmsis_os.c **** }
 1624              		.loc 1 504 5 is_stmt 1 view .LVU369
 504:..//osal/cmsis_os/cmsis_os.c **** }
 1625              		.loc 1 504 12 is_stmt 0 view .LVU370
 1626 004a F1E7     		b	.L121
 1627              		.cfi_endproc
 1628              	.LFE142:
 1630              		.text
 1631              	.Letext0:
 1632              		.file 2 "d:\\arm_gcc\\8 2019-q3-update\\lib\\gcc\\arm-none-eabi\\8.3.1\\include\\stddef.h"
 1633              		.file 3 "d:\\arm_gcc\\8 2019-q3-update\\arm-none-eabi\\include\\machine\\_default_types.h"
 1634              		.file 4 "d:\\arm_gcc\\8 2019-q3-update\\arm-none-eabi\\include\\sys\\_types.h"
 1635              		.file 5 "d:\\arm_gcc\\8 2019-q3-update\\arm-none-eabi\\include\\sys\\reent.h"
 1636              		.file 6 "d:\\arm_gcc\\8 2019-q3-update\\arm-none-eabi\\include\\sys\\lock.h"
 1637              		.file 7 "d:\\arm_gcc\\8 2019-q3-update\\arm-none-eabi\\include\\sys\\_stdint.h"
 1638              		.file 8 "..//kernel/core/include/tos_kerr.h"
 1639              		.file 9 "Drivers/CMSIS/Include/core_cm3.h"
 1640              		.file 10 "Drivers/CMSIS/Device/ST/STM32F1xx/Include/system_stm32f1xx.h"
 1641              		.file 11 "Drivers/STM32F1xx_HAL_Driver/Inc/stm32f1xx_hal.h"
 1642              		.file 12 "..//kernel/core/include/tos_ktypes.h"
 1643              		.file 13 "..//kernel/core/include/tos_task.h"
 1644              		.file 14 "d:\\arm_gcc\\8 2019-q3-update\\arm-none-eabi\\include\\stdlib.h"
 1645              		.file 15 "..//kernel/core/include/tos_list.h"
 1646              		.file 16 "..//kernel/core/include/tos_pend.h"
 1647              		.file 17 "..//kernel/core/include/tos_sys.h"
 1648              		.file 18 "..//kernel/core/include/tos_ring_queue.h"
 1649              		.file 19 "..//kernel/core/include/tos_mail_queue.h"
 1650              		.file 20 "..//kernel/core/include/tos_message_queue.h"
 1651              		.file 21 "..//kernel/core/include/tos_mutex.h"
 1652              		.file 22 "..//kernel/core/include/tos_sem.h"
 1653              		.file 23 "..//kernel/core/include/tos_timer.h"
 1654              		.file 24 "..//kernel/core/include/tos_mmblk.h"
ARM GAS  C:\Users\tianx\AppData\Local\Temp\ccD0IzLd.s 			page 39


 1655              		.file 25 "..//kernel/core/include/tos_mmheap.h"
 1656              		.file 26 "..//kernel/core/include/tos_sched.h"
 1657              		.file 27 "..//kernel/core/include/tos_global.h"
 1658              		.file 28 "..//osal/cmsis_os/cmsis_os.h"
 1659              		.file 29 "..//kernel/core/include/tos_time.h"
 1660              		.file 30 "<built-in>"
ARM GAS  C:\Users\tianx\AppData\Local\Temp\ccD0IzLd.s 			page 40

