ARM GAS  C:\Users\tianx\AppData\Local\Temp\ccOmbCCE.s 			page 1


   1              		.cpu cortex-m3
   2              		.eabi_attribute 20, 1
   3              		.eabi_attribute 21, 1
   4              		.eabi_attribute 23, 3
   5              		.eabi_attribute 24, 1
   6              		.eabi_attribute 25, 1
   7              		.eabi_attribute 26, 1
   8              		.eabi_attribute 30, 1
   9              		.eabi_attribute 34, 1
  10              		.eabi_attribute 18, 4
  11              		.file	"stm32f1xx_hal_dma.c"
  12              		.text
  13              	.Ltext0:
  14              		.cfi_sections	.debug_frame
  15              		.section	.text.DMA_SetConfig,"ax",%progbits
  16              		.align	1
  17              		.arch armv7-m
  18              		.syntax unified
  19              		.thumb
  20              		.thumb_func
  21              		.fpu softvfp
  23              	DMA_SetConfig:
  24              	.LVL0:
  25              	.LFB78:
  26              		.file 1 "Drivers/STM32F1xx_HAL_Driver/Src/stm32f1xx_hal_dma.c"
   1:Drivers/STM32F1xx_HAL_Driver/Src/stm32f1xx_hal_dma.c **** /**
   2:Drivers/STM32F1xx_HAL_Driver/Src/stm32f1xx_hal_dma.c ****   ******************************************************************************
   3:Drivers/STM32F1xx_HAL_Driver/Src/stm32f1xx_hal_dma.c ****   * @file    stm32f1xx_hal_dma.c
   4:Drivers/STM32F1xx_HAL_Driver/Src/stm32f1xx_hal_dma.c ****   * @author  MCD Application Team
   5:Drivers/STM32F1xx_HAL_Driver/Src/stm32f1xx_hal_dma.c ****   * @brief   DMA HAL module driver.
   6:Drivers/STM32F1xx_HAL_Driver/Src/stm32f1xx_hal_dma.c ****   *         This file provides firmware functions to manage the following
   7:Drivers/STM32F1xx_HAL_Driver/Src/stm32f1xx_hal_dma.c ****   *         functionalities of the Direct Memory Access (DMA) peripheral:
   8:Drivers/STM32F1xx_HAL_Driver/Src/stm32f1xx_hal_dma.c ****   *           + Initialization and de-initialization functions
   9:Drivers/STM32F1xx_HAL_Driver/Src/stm32f1xx_hal_dma.c ****   *           + IO operation functions
  10:Drivers/STM32F1xx_HAL_Driver/Src/stm32f1xx_hal_dma.c ****   *           + Peripheral State and errors functions
  11:Drivers/STM32F1xx_HAL_Driver/Src/stm32f1xx_hal_dma.c ****   @verbatim
  12:Drivers/STM32F1xx_HAL_Driver/Src/stm32f1xx_hal_dma.c ****   ==============================================================================
  13:Drivers/STM32F1xx_HAL_Driver/Src/stm32f1xx_hal_dma.c ****                         ##### How to use this driver #####
  14:Drivers/STM32F1xx_HAL_Driver/Src/stm32f1xx_hal_dma.c ****   ==============================================================================
  15:Drivers/STM32F1xx_HAL_Driver/Src/stm32f1xx_hal_dma.c ****   [..]
  16:Drivers/STM32F1xx_HAL_Driver/Src/stm32f1xx_hal_dma.c ****    (#) Enable and configure the peripheral to be connected to the DMA Channel
  17:Drivers/STM32F1xx_HAL_Driver/Src/stm32f1xx_hal_dma.c ****        (except for internal SRAM / FLASH memories: no initialization is 
  18:Drivers/STM32F1xx_HAL_Driver/Src/stm32f1xx_hal_dma.c ****        necessary). Please refer to the Reference manual for connection between peripherals
  19:Drivers/STM32F1xx_HAL_Driver/Src/stm32f1xx_hal_dma.c ****        and DMA requests.
  20:Drivers/STM32F1xx_HAL_Driver/Src/stm32f1xx_hal_dma.c **** 
  21:Drivers/STM32F1xx_HAL_Driver/Src/stm32f1xx_hal_dma.c ****    (#) For a given Channel, program the required configuration through the following parameters:
  22:Drivers/STM32F1xx_HAL_Driver/Src/stm32f1xx_hal_dma.c ****        Channel request, Transfer Direction, Source and Destination data formats,
  23:Drivers/STM32F1xx_HAL_Driver/Src/stm32f1xx_hal_dma.c ****        Circular or Normal mode, Channel Priority level, Source and Destination Increment mode
  24:Drivers/STM32F1xx_HAL_Driver/Src/stm32f1xx_hal_dma.c ****        using HAL_DMA_Init() function.
  25:Drivers/STM32F1xx_HAL_Driver/Src/stm32f1xx_hal_dma.c **** 
  26:Drivers/STM32F1xx_HAL_Driver/Src/stm32f1xx_hal_dma.c ****    (#) Use HAL_DMA_GetState() function to return the DMA state and HAL_DMA_GetError() in case of er
  27:Drivers/STM32F1xx_HAL_Driver/Src/stm32f1xx_hal_dma.c ****        detection.
  28:Drivers/STM32F1xx_HAL_Driver/Src/stm32f1xx_hal_dma.c ****                     
  29:Drivers/STM32F1xx_HAL_Driver/Src/stm32f1xx_hal_dma.c ****    (#) Use HAL_DMA_Abort() function to abort the current transfer
  30:Drivers/STM32F1xx_HAL_Driver/Src/stm32f1xx_hal_dma.c ****                    
  31:Drivers/STM32F1xx_HAL_Driver/Src/stm32f1xx_hal_dma.c ****      -@-   In Memory-to-Memory transfer mode, Circular mode is not allowed.
  32:Drivers/STM32F1xx_HAL_Driver/Src/stm32f1xx_hal_dma.c ****      *** Polling mode IO operation ***
ARM GAS  C:\Users\tianx\AppData\Local\Temp\ccOmbCCE.s 			page 2


  33:Drivers/STM32F1xx_HAL_Driver/Src/stm32f1xx_hal_dma.c ****      =================================
  34:Drivers/STM32F1xx_HAL_Driver/Src/stm32f1xx_hal_dma.c ****     [..]
  35:Drivers/STM32F1xx_HAL_Driver/Src/stm32f1xx_hal_dma.c ****           (+) Use HAL_DMA_Start() to start DMA transfer after the configuration of Source
  36:Drivers/STM32F1xx_HAL_Driver/Src/stm32f1xx_hal_dma.c ****               address and destination address and the Length of data to be transferred
  37:Drivers/STM32F1xx_HAL_Driver/Src/stm32f1xx_hal_dma.c ****           (+) Use HAL_DMA_PollForTransfer() to poll for the end of current transfer, in this
  38:Drivers/STM32F1xx_HAL_Driver/Src/stm32f1xx_hal_dma.c ****               case a fixed Timeout can be configured by User depending from his application.
  39:Drivers/STM32F1xx_HAL_Driver/Src/stm32f1xx_hal_dma.c **** 
  40:Drivers/STM32F1xx_HAL_Driver/Src/stm32f1xx_hal_dma.c ****      *** Interrupt mode IO operation ***
  41:Drivers/STM32F1xx_HAL_Driver/Src/stm32f1xx_hal_dma.c ****      ===================================
  42:Drivers/STM32F1xx_HAL_Driver/Src/stm32f1xx_hal_dma.c ****     [..]
  43:Drivers/STM32F1xx_HAL_Driver/Src/stm32f1xx_hal_dma.c ****           (+) Configure the DMA interrupt priority using HAL_NVIC_SetPriority()
  44:Drivers/STM32F1xx_HAL_Driver/Src/stm32f1xx_hal_dma.c ****           (+) Enable the DMA IRQ handler using HAL_NVIC_EnableIRQ()
  45:Drivers/STM32F1xx_HAL_Driver/Src/stm32f1xx_hal_dma.c ****           (+) Use HAL_DMA_Start_IT() to start DMA transfer after the configuration of
  46:Drivers/STM32F1xx_HAL_Driver/Src/stm32f1xx_hal_dma.c ****               Source address and destination address and the Length of data to be transferred.
  47:Drivers/STM32F1xx_HAL_Driver/Src/stm32f1xx_hal_dma.c ****               In this case the DMA interrupt is configured
  48:Drivers/STM32F1xx_HAL_Driver/Src/stm32f1xx_hal_dma.c ****           (+) Use HAL_DMA_IRQHandler() called under DMA_IRQHandler() Interrupt subroutine
  49:Drivers/STM32F1xx_HAL_Driver/Src/stm32f1xx_hal_dma.c ****           (+) At the end of data transfer HAL_DMA_IRQHandler() function is executed and user can
  50:Drivers/STM32F1xx_HAL_Driver/Src/stm32f1xx_hal_dma.c ****               add his own function by customization of function pointer XferCpltCallback and
  51:Drivers/STM32F1xx_HAL_Driver/Src/stm32f1xx_hal_dma.c ****               XferErrorCallback (i.e. a member of DMA handle structure).
  52:Drivers/STM32F1xx_HAL_Driver/Src/stm32f1xx_hal_dma.c **** 
  53:Drivers/STM32F1xx_HAL_Driver/Src/stm32f1xx_hal_dma.c ****      *** DMA HAL driver macros list ***
  54:Drivers/STM32F1xx_HAL_Driver/Src/stm32f1xx_hal_dma.c ****      ============================================= 
  55:Drivers/STM32F1xx_HAL_Driver/Src/stm32f1xx_hal_dma.c ****       [..]
  56:Drivers/STM32F1xx_HAL_Driver/Src/stm32f1xx_hal_dma.c ****        Below the list of most used macros in DMA HAL driver.
  57:Drivers/STM32F1xx_HAL_Driver/Src/stm32f1xx_hal_dma.c **** 
  58:Drivers/STM32F1xx_HAL_Driver/Src/stm32f1xx_hal_dma.c ****        (+) __HAL_DMA_ENABLE: Enable the specified DMA Channel.
  59:Drivers/STM32F1xx_HAL_Driver/Src/stm32f1xx_hal_dma.c ****        (+) __HAL_DMA_DISABLE: Disable the specified DMA Channel.
  60:Drivers/STM32F1xx_HAL_Driver/Src/stm32f1xx_hal_dma.c ****        (+) __HAL_DMA_GET_FLAG: Get the DMA Channel pending flags.
  61:Drivers/STM32F1xx_HAL_Driver/Src/stm32f1xx_hal_dma.c ****        (+) __HAL_DMA_CLEAR_FLAG: Clear the DMA Channel pending flags.
  62:Drivers/STM32F1xx_HAL_Driver/Src/stm32f1xx_hal_dma.c ****        (+) __HAL_DMA_ENABLE_IT: Enable the specified DMA Channel interrupts.
  63:Drivers/STM32F1xx_HAL_Driver/Src/stm32f1xx_hal_dma.c ****        (+) __HAL_DMA_DISABLE_IT: Disable the specified DMA Channel interrupts.
  64:Drivers/STM32F1xx_HAL_Driver/Src/stm32f1xx_hal_dma.c ****        (+) __HAL_DMA_GET_IT_SOURCE: Check whether the specified DMA Channel interrupt has occurred 
  65:Drivers/STM32F1xx_HAL_Driver/Src/stm32f1xx_hal_dma.c **** 
  66:Drivers/STM32F1xx_HAL_Driver/Src/stm32f1xx_hal_dma.c ****      [..] 
  67:Drivers/STM32F1xx_HAL_Driver/Src/stm32f1xx_hal_dma.c ****       (@) You can refer to the DMA HAL driver header file for more useful macros  
  68:Drivers/STM32F1xx_HAL_Driver/Src/stm32f1xx_hal_dma.c **** 
  69:Drivers/STM32F1xx_HAL_Driver/Src/stm32f1xx_hal_dma.c ****   @endverbatim
  70:Drivers/STM32F1xx_HAL_Driver/Src/stm32f1xx_hal_dma.c ****   ******************************************************************************
  71:Drivers/STM32F1xx_HAL_Driver/Src/stm32f1xx_hal_dma.c ****   * @attention
  72:Drivers/STM32F1xx_HAL_Driver/Src/stm32f1xx_hal_dma.c ****   *
  73:Drivers/STM32F1xx_HAL_Driver/Src/stm32f1xx_hal_dma.c ****   * <h2><center>&copy; COPYRIGHT(c) 2017 STMicroelectronics</center></h2>
  74:Drivers/STM32F1xx_HAL_Driver/Src/stm32f1xx_hal_dma.c ****   *
  75:Drivers/STM32F1xx_HAL_Driver/Src/stm32f1xx_hal_dma.c ****   * Redistribution and use in source and binary forms, with or without modification,
  76:Drivers/STM32F1xx_HAL_Driver/Src/stm32f1xx_hal_dma.c ****   * are permitted provided that the following conditions are met:
  77:Drivers/STM32F1xx_HAL_Driver/Src/stm32f1xx_hal_dma.c ****   *   1. Redistributions of source code must retain the above copyright notice,
  78:Drivers/STM32F1xx_HAL_Driver/Src/stm32f1xx_hal_dma.c ****   *      this list of conditions and the following disclaimer.
  79:Drivers/STM32F1xx_HAL_Driver/Src/stm32f1xx_hal_dma.c ****   *   2. Redistributions in binary form must reproduce the above copyright notice,
  80:Drivers/STM32F1xx_HAL_Driver/Src/stm32f1xx_hal_dma.c ****   *      this list of conditions and the following disclaimer in the documentation
  81:Drivers/STM32F1xx_HAL_Driver/Src/stm32f1xx_hal_dma.c ****   *      and/or other materials provided with the distribution.
  82:Drivers/STM32F1xx_HAL_Driver/Src/stm32f1xx_hal_dma.c ****   *   3. Neither the name of STMicroelectronics nor the names of its contributors
  83:Drivers/STM32F1xx_HAL_Driver/Src/stm32f1xx_hal_dma.c ****   *      may be used to endorse or promote products derived from this software
  84:Drivers/STM32F1xx_HAL_Driver/Src/stm32f1xx_hal_dma.c ****   *      without specific prior written permission.
  85:Drivers/STM32F1xx_HAL_Driver/Src/stm32f1xx_hal_dma.c ****   *
  86:Drivers/STM32F1xx_HAL_Driver/Src/stm32f1xx_hal_dma.c ****   * THIS SOFTWARE IS PROVIDED BY THE COPYRIGHT HOLDERS AND CONTRIBUTORS "AS IS"
  87:Drivers/STM32F1xx_HAL_Driver/Src/stm32f1xx_hal_dma.c ****   * AND ANY EXPRESS OR IMPLIED WARRANTIES, INCLUDING, BUT NOT LIMITED TO, THE
  88:Drivers/STM32F1xx_HAL_Driver/Src/stm32f1xx_hal_dma.c ****   * IMPLIED WARRANTIES OF MERCHANTABILITY AND FITNESS FOR A PARTICULAR PURPOSE ARE
  89:Drivers/STM32F1xx_HAL_Driver/Src/stm32f1xx_hal_dma.c ****   * DISCLAIMED. IN NO EVENT SHALL THE COPYRIGHT HOLDER OR CONTRIBUTORS BE LIABLE
ARM GAS  C:\Users\tianx\AppData\Local\Temp\ccOmbCCE.s 			page 3


  90:Drivers/STM32F1xx_HAL_Driver/Src/stm32f1xx_hal_dma.c ****   * FOR ANY DIRECT, INDIRECT, INCIDENTAL, SPECIAL, EXEMPLARY, OR CONSEQUENTIAL
  91:Drivers/STM32F1xx_HAL_Driver/Src/stm32f1xx_hal_dma.c ****   * DAMAGES (INCLUDING, BUT NOT LIMITED TO, PROCUREMENT OF SUBSTITUTE GOODS OR
  92:Drivers/STM32F1xx_HAL_Driver/Src/stm32f1xx_hal_dma.c ****   * SERVICES; LOSS OF USE, DATA, OR PROFITS; OR BUSINESS INTERRUPTION) HOWEVER
  93:Drivers/STM32F1xx_HAL_Driver/Src/stm32f1xx_hal_dma.c ****   * CAUSED AND ON ANY THEORY OF LIABILITY, WHETHER IN CONTRACT, STRICT LIABILITY,
  94:Drivers/STM32F1xx_HAL_Driver/Src/stm32f1xx_hal_dma.c ****   * OR TORT (INCLUDING NEGLIGENCE OR OTHERWISE) ARISING IN ANY WAY OUT OF THE USE
  95:Drivers/STM32F1xx_HAL_Driver/Src/stm32f1xx_hal_dma.c ****   * OF THIS SOFTWARE, EVEN IF ADVISED OF THE POSSIBILITY OF SUCH DAMAGE.
  96:Drivers/STM32F1xx_HAL_Driver/Src/stm32f1xx_hal_dma.c ****   *
  97:Drivers/STM32F1xx_HAL_Driver/Src/stm32f1xx_hal_dma.c ****   ******************************************************************************
  98:Drivers/STM32F1xx_HAL_Driver/Src/stm32f1xx_hal_dma.c ****   */
  99:Drivers/STM32F1xx_HAL_Driver/Src/stm32f1xx_hal_dma.c **** 
 100:Drivers/STM32F1xx_HAL_Driver/Src/stm32f1xx_hal_dma.c **** /* Includes ------------------------------------------------------------------*/
 101:Drivers/STM32F1xx_HAL_Driver/Src/stm32f1xx_hal_dma.c **** #include "stm32f1xx_hal.h"
 102:Drivers/STM32F1xx_HAL_Driver/Src/stm32f1xx_hal_dma.c **** 
 103:Drivers/STM32F1xx_HAL_Driver/Src/stm32f1xx_hal_dma.c **** /** @addtogroup STM32F1xx_HAL_Driver
 104:Drivers/STM32F1xx_HAL_Driver/Src/stm32f1xx_hal_dma.c ****   * @{
 105:Drivers/STM32F1xx_HAL_Driver/Src/stm32f1xx_hal_dma.c ****   */
 106:Drivers/STM32F1xx_HAL_Driver/Src/stm32f1xx_hal_dma.c **** 
 107:Drivers/STM32F1xx_HAL_Driver/Src/stm32f1xx_hal_dma.c **** /** @defgroup DMA DMA
 108:Drivers/STM32F1xx_HAL_Driver/Src/stm32f1xx_hal_dma.c ****   * @brief DMA HAL module driver
 109:Drivers/STM32F1xx_HAL_Driver/Src/stm32f1xx_hal_dma.c ****   * @{
 110:Drivers/STM32F1xx_HAL_Driver/Src/stm32f1xx_hal_dma.c ****   */
 111:Drivers/STM32F1xx_HAL_Driver/Src/stm32f1xx_hal_dma.c **** 
 112:Drivers/STM32F1xx_HAL_Driver/Src/stm32f1xx_hal_dma.c **** #ifdef HAL_DMA_MODULE_ENABLED
 113:Drivers/STM32F1xx_HAL_Driver/Src/stm32f1xx_hal_dma.c **** 
 114:Drivers/STM32F1xx_HAL_Driver/Src/stm32f1xx_hal_dma.c **** /* Private typedef -----------------------------------------------------------*/
 115:Drivers/STM32F1xx_HAL_Driver/Src/stm32f1xx_hal_dma.c **** /* Private define ------------------------------------------------------------*/
 116:Drivers/STM32F1xx_HAL_Driver/Src/stm32f1xx_hal_dma.c **** /* Private macro -------------------------------------------------------------*/
 117:Drivers/STM32F1xx_HAL_Driver/Src/stm32f1xx_hal_dma.c **** /* Private variables ---------------------------------------------------------*/
 118:Drivers/STM32F1xx_HAL_Driver/Src/stm32f1xx_hal_dma.c **** /* Private function prototypes -----------------------------------------------*/
 119:Drivers/STM32F1xx_HAL_Driver/Src/stm32f1xx_hal_dma.c **** /** @defgroup DMA_Private_Functions DMA Private Functions
 120:Drivers/STM32F1xx_HAL_Driver/Src/stm32f1xx_hal_dma.c ****   * @{
 121:Drivers/STM32F1xx_HAL_Driver/Src/stm32f1xx_hal_dma.c ****   */
 122:Drivers/STM32F1xx_HAL_Driver/Src/stm32f1xx_hal_dma.c **** static void DMA_SetConfig(DMA_HandleTypeDef *hdma, uint32_t SrcAddress, uint32_t DstAddress, uint32
 123:Drivers/STM32F1xx_HAL_Driver/Src/stm32f1xx_hal_dma.c **** /**
 124:Drivers/STM32F1xx_HAL_Driver/Src/stm32f1xx_hal_dma.c ****   * @}
 125:Drivers/STM32F1xx_HAL_Driver/Src/stm32f1xx_hal_dma.c ****   */
 126:Drivers/STM32F1xx_HAL_Driver/Src/stm32f1xx_hal_dma.c **** 
 127:Drivers/STM32F1xx_HAL_Driver/Src/stm32f1xx_hal_dma.c **** /* Exported functions ---------------------------------------------------------*/
 128:Drivers/STM32F1xx_HAL_Driver/Src/stm32f1xx_hal_dma.c **** 
 129:Drivers/STM32F1xx_HAL_Driver/Src/stm32f1xx_hal_dma.c **** /** @defgroup DMA_Exported_Functions DMA Exported Functions
 130:Drivers/STM32F1xx_HAL_Driver/Src/stm32f1xx_hal_dma.c ****   * @{
 131:Drivers/STM32F1xx_HAL_Driver/Src/stm32f1xx_hal_dma.c ****   */
 132:Drivers/STM32F1xx_HAL_Driver/Src/stm32f1xx_hal_dma.c **** 
 133:Drivers/STM32F1xx_HAL_Driver/Src/stm32f1xx_hal_dma.c **** /** @defgroup DMA_Exported_Functions_Group1 Initialization and de-initialization functions
 134:Drivers/STM32F1xx_HAL_Driver/Src/stm32f1xx_hal_dma.c ****   *  @brief   Initialization and de-initialization functions 
 135:Drivers/STM32F1xx_HAL_Driver/Src/stm32f1xx_hal_dma.c ****   *
 136:Drivers/STM32F1xx_HAL_Driver/Src/stm32f1xx_hal_dma.c **** @verbatim
 137:Drivers/STM32F1xx_HAL_Driver/Src/stm32f1xx_hal_dma.c ****  ===============================================================================
 138:Drivers/STM32F1xx_HAL_Driver/Src/stm32f1xx_hal_dma.c ****              ##### Initialization and de-initialization functions  #####
 139:Drivers/STM32F1xx_HAL_Driver/Src/stm32f1xx_hal_dma.c ****  ===============================================================================
 140:Drivers/STM32F1xx_HAL_Driver/Src/stm32f1xx_hal_dma.c ****     [..]
 141:Drivers/STM32F1xx_HAL_Driver/Src/stm32f1xx_hal_dma.c ****     This section provides functions allowing to initialize the DMA Channel source
 142:Drivers/STM32F1xx_HAL_Driver/Src/stm32f1xx_hal_dma.c ****     and destination addresses, incrementation and data sizes, transfer direction, 
 143:Drivers/STM32F1xx_HAL_Driver/Src/stm32f1xx_hal_dma.c ****     circular/normal mode selection, memory-to-memory mode selection and Channel priority value.
 144:Drivers/STM32F1xx_HAL_Driver/Src/stm32f1xx_hal_dma.c ****     [..]
 145:Drivers/STM32F1xx_HAL_Driver/Src/stm32f1xx_hal_dma.c ****     The HAL_DMA_Init() function follows the DMA configuration procedures as described in
 146:Drivers/STM32F1xx_HAL_Driver/Src/stm32f1xx_hal_dma.c ****     reference manual.  
ARM GAS  C:\Users\tianx\AppData\Local\Temp\ccOmbCCE.s 			page 4


 147:Drivers/STM32F1xx_HAL_Driver/Src/stm32f1xx_hal_dma.c **** 
 148:Drivers/STM32F1xx_HAL_Driver/Src/stm32f1xx_hal_dma.c **** @endverbatim
 149:Drivers/STM32F1xx_HAL_Driver/Src/stm32f1xx_hal_dma.c ****   * @{
 150:Drivers/STM32F1xx_HAL_Driver/Src/stm32f1xx_hal_dma.c ****   */
 151:Drivers/STM32F1xx_HAL_Driver/Src/stm32f1xx_hal_dma.c **** 
 152:Drivers/STM32F1xx_HAL_Driver/Src/stm32f1xx_hal_dma.c **** /**
 153:Drivers/STM32F1xx_HAL_Driver/Src/stm32f1xx_hal_dma.c ****   * @brief  Initialize the DMA according to the specified
 154:Drivers/STM32F1xx_HAL_Driver/Src/stm32f1xx_hal_dma.c ****   *         parameters in the DMA_InitTypeDef and initialize the associated handle.
 155:Drivers/STM32F1xx_HAL_Driver/Src/stm32f1xx_hal_dma.c ****   * @param  hdma: Pointer to a DMA_HandleTypeDef structure that contains
 156:Drivers/STM32F1xx_HAL_Driver/Src/stm32f1xx_hal_dma.c ****   *               the configuration information for the specified DMA Channel.
 157:Drivers/STM32F1xx_HAL_Driver/Src/stm32f1xx_hal_dma.c ****   * @retval HAL status
 158:Drivers/STM32F1xx_HAL_Driver/Src/stm32f1xx_hal_dma.c ****   */
 159:Drivers/STM32F1xx_HAL_Driver/Src/stm32f1xx_hal_dma.c **** HAL_StatusTypeDef HAL_DMA_Init(DMA_HandleTypeDef *hdma)
 160:Drivers/STM32F1xx_HAL_Driver/Src/stm32f1xx_hal_dma.c **** {
 161:Drivers/STM32F1xx_HAL_Driver/Src/stm32f1xx_hal_dma.c ****   uint32_t tmp = 0U;
 162:Drivers/STM32F1xx_HAL_Driver/Src/stm32f1xx_hal_dma.c **** 
 163:Drivers/STM32F1xx_HAL_Driver/Src/stm32f1xx_hal_dma.c ****   /* Check the DMA handle allocation */
 164:Drivers/STM32F1xx_HAL_Driver/Src/stm32f1xx_hal_dma.c ****   if(hdma == NULL)
 165:Drivers/STM32F1xx_HAL_Driver/Src/stm32f1xx_hal_dma.c ****   {
 166:Drivers/STM32F1xx_HAL_Driver/Src/stm32f1xx_hal_dma.c ****     return HAL_ERROR;
 167:Drivers/STM32F1xx_HAL_Driver/Src/stm32f1xx_hal_dma.c ****   }
 168:Drivers/STM32F1xx_HAL_Driver/Src/stm32f1xx_hal_dma.c **** 
 169:Drivers/STM32F1xx_HAL_Driver/Src/stm32f1xx_hal_dma.c ****   /* Check the parameters */
 170:Drivers/STM32F1xx_HAL_Driver/Src/stm32f1xx_hal_dma.c ****   assert_param(IS_DMA_ALL_INSTANCE(hdma->Instance));
 171:Drivers/STM32F1xx_HAL_Driver/Src/stm32f1xx_hal_dma.c ****   assert_param(IS_DMA_DIRECTION(hdma->Init.Direction));
 172:Drivers/STM32F1xx_HAL_Driver/Src/stm32f1xx_hal_dma.c ****   assert_param(IS_DMA_PERIPHERAL_INC_STATE(hdma->Init.PeriphInc));
 173:Drivers/STM32F1xx_HAL_Driver/Src/stm32f1xx_hal_dma.c ****   assert_param(IS_DMA_MEMORY_INC_STATE(hdma->Init.MemInc));
 174:Drivers/STM32F1xx_HAL_Driver/Src/stm32f1xx_hal_dma.c ****   assert_param(IS_DMA_PERIPHERAL_DATA_SIZE(hdma->Init.PeriphDataAlignment));
 175:Drivers/STM32F1xx_HAL_Driver/Src/stm32f1xx_hal_dma.c ****   assert_param(IS_DMA_MEMORY_DATA_SIZE(hdma->Init.MemDataAlignment));
 176:Drivers/STM32F1xx_HAL_Driver/Src/stm32f1xx_hal_dma.c ****   assert_param(IS_DMA_MODE(hdma->Init.Mode));
 177:Drivers/STM32F1xx_HAL_Driver/Src/stm32f1xx_hal_dma.c ****   assert_param(IS_DMA_PRIORITY(hdma->Init.Priority));
 178:Drivers/STM32F1xx_HAL_Driver/Src/stm32f1xx_hal_dma.c **** 
 179:Drivers/STM32F1xx_HAL_Driver/Src/stm32f1xx_hal_dma.c **** #if defined (STM32F101xE) || defined (STM32F101xG) || defined (STM32F103xE) || defined (STM32F103xG
 180:Drivers/STM32F1xx_HAL_Driver/Src/stm32f1xx_hal_dma.c ****   /* calculation of the channel index */
 181:Drivers/STM32F1xx_HAL_Driver/Src/stm32f1xx_hal_dma.c ****   if ((uint32_t)(hdma->Instance) < (uint32_t)(DMA2_Channel1))
 182:Drivers/STM32F1xx_HAL_Driver/Src/stm32f1xx_hal_dma.c ****   {
 183:Drivers/STM32F1xx_HAL_Driver/Src/stm32f1xx_hal_dma.c ****     /* DMA1 */
 184:Drivers/STM32F1xx_HAL_Driver/Src/stm32f1xx_hal_dma.c ****     hdma->ChannelIndex = (((uint32_t)hdma->Instance - (uint32_t)DMA1_Channel1) / ((uint32_t)DMA1_Ch
 185:Drivers/STM32F1xx_HAL_Driver/Src/stm32f1xx_hal_dma.c ****     hdma->DmaBaseAddress = DMA1;
 186:Drivers/STM32F1xx_HAL_Driver/Src/stm32f1xx_hal_dma.c ****   }
 187:Drivers/STM32F1xx_HAL_Driver/Src/stm32f1xx_hal_dma.c ****   else 
 188:Drivers/STM32F1xx_HAL_Driver/Src/stm32f1xx_hal_dma.c ****   {
 189:Drivers/STM32F1xx_HAL_Driver/Src/stm32f1xx_hal_dma.c ****     /* DMA2 */
 190:Drivers/STM32F1xx_HAL_Driver/Src/stm32f1xx_hal_dma.c ****     hdma->ChannelIndex = (((uint32_t)hdma->Instance - (uint32_t)DMA2_Channel1) / ((uint32_t)DMA2_Ch
 191:Drivers/STM32F1xx_HAL_Driver/Src/stm32f1xx_hal_dma.c ****     hdma->DmaBaseAddress = DMA2;
 192:Drivers/STM32F1xx_HAL_Driver/Src/stm32f1xx_hal_dma.c ****   }
 193:Drivers/STM32F1xx_HAL_Driver/Src/stm32f1xx_hal_dma.c **** #else
 194:Drivers/STM32F1xx_HAL_Driver/Src/stm32f1xx_hal_dma.c ****   /* DMA1 */
 195:Drivers/STM32F1xx_HAL_Driver/Src/stm32f1xx_hal_dma.c ****   hdma->ChannelIndex = (((uint32_t)hdma->Instance - (uint32_t)DMA1_Channel1) / ((uint32_t)DMA1_Chan
 196:Drivers/STM32F1xx_HAL_Driver/Src/stm32f1xx_hal_dma.c ****   hdma->DmaBaseAddress = DMA1;
 197:Drivers/STM32F1xx_HAL_Driver/Src/stm32f1xx_hal_dma.c **** #endif /* STM32F101xE || STM32F101xG || STM32F103xE || STM32F103xG || STM32F100xE || STM32F105xC ||
 198:Drivers/STM32F1xx_HAL_Driver/Src/stm32f1xx_hal_dma.c **** 
 199:Drivers/STM32F1xx_HAL_Driver/Src/stm32f1xx_hal_dma.c ****   /* Change DMA peripheral state */
 200:Drivers/STM32F1xx_HAL_Driver/Src/stm32f1xx_hal_dma.c ****   hdma->State = HAL_DMA_STATE_BUSY;
 201:Drivers/STM32F1xx_HAL_Driver/Src/stm32f1xx_hal_dma.c **** 
 202:Drivers/STM32F1xx_HAL_Driver/Src/stm32f1xx_hal_dma.c ****   /* Get the CR register value */
 203:Drivers/STM32F1xx_HAL_Driver/Src/stm32f1xx_hal_dma.c ****   tmp = hdma->Instance->CCR;
ARM GAS  C:\Users\tianx\AppData\Local\Temp\ccOmbCCE.s 			page 5


 204:Drivers/STM32F1xx_HAL_Driver/Src/stm32f1xx_hal_dma.c **** 
 205:Drivers/STM32F1xx_HAL_Driver/Src/stm32f1xx_hal_dma.c ****   /* Clear PL, MSIZE, PSIZE, MINC, PINC, CIRC and DIR bits */
 206:Drivers/STM32F1xx_HAL_Driver/Src/stm32f1xx_hal_dma.c ****   tmp &= ((uint32_t)~(DMA_CCR_PL    | DMA_CCR_MSIZE  | DMA_CCR_PSIZE  | \
 207:Drivers/STM32F1xx_HAL_Driver/Src/stm32f1xx_hal_dma.c ****                       DMA_CCR_MINC  | DMA_CCR_PINC   | DMA_CCR_CIRC   | \
 208:Drivers/STM32F1xx_HAL_Driver/Src/stm32f1xx_hal_dma.c ****                       DMA_CCR_DIR));
 209:Drivers/STM32F1xx_HAL_Driver/Src/stm32f1xx_hal_dma.c **** 
 210:Drivers/STM32F1xx_HAL_Driver/Src/stm32f1xx_hal_dma.c ****   /* Prepare the DMA Channel configuration */
 211:Drivers/STM32F1xx_HAL_Driver/Src/stm32f1xx_hal_dma.c ****   tmp |=  hdma->Init.Direction        |
 212:Drivers/STM32F1xx_HAL_Driver/Src/stm32f1xx_hal_dma.c ****           hdma->Init.PeriphInc           | hdma->Init.MemInc           |
 213:Drivers/STM32F1xx_HAL_Driver/Src/stm32f1xx_hal_dma.c ****           hdma->Init.PeriphDataAlignment | hdma->Init.MemDataAlignment |
 214:Drivers/STM32F1xx_HAL_Driver/Src/stm32f1xx_hal_dma.c ****           hdma->Init.Mode                | hdma->Init.Priority;
 215:Drivers/STM32F1xx_HAL_Driver/Src/stm32f1xx_hal_dma.c **** 
 216:Drivers/STM32F1xx_HAL_Driver/Src/stm32f1xx_hal_dma.c ****   /* Write to DMA Channel CR register */
 217:Drivers/STM32F1xx_HAL_Driver/Src/stm32f1xx_hal_dma.c ****   hdma->Instance->CCR = tmp;
 218:Drivers/STM32F1xx_HAL_Driver/Src/stm32f1xx_hal_dma.c **** 
 219:Drivers/STM32F1xx_HAL_Driver/Src/stm32f1xx_hal_dma.c ****   /* Initialise the error code */
 220:Drivers/STM32F1xx_HAL_Driver/Src/stm32f1xx_hal_dma.c ****   hdma->ErrorCode = HAL_DMA_ERROR_NONE;
 221:Drivers/STM32F1xx_HAL_Driver/Src/stm32f1xx_hal_dma.c **** 
 222:Drivers/STM32F1xx_HAL_Driver/Src/stm32f1xx_hal_dma.c ****   /* Initialize the DMA state*/
 223:Drivers/STM32F1xx_HAL_Driver/Src/stm32f1xx_hal_dma.c ****   hdma->State = HAL_DMA_STATE_READY;
 224:Drivers/STM32F1xx_HAL_Driver/Src/stm32f1xx_hal_dma.c ****   /* Allocate lock resource and initialize it */
 225:Drivers/STM32F1xx_HAL_Driver/Src/stm32f1xx_hal_dma.c ****   hdma->Lock = HAL_UNLOCKED;
 226:Drivers/STM32F1xx_HAL_Driver/Src/stm32f1xx_hal_dma.c **** 
 227:Drivers/STM32F1xx_HAL_Driver/Src/stm32f1xx_hal_dma.c ****   return HAL_OK;
 228:Drivers/STM32F1xx_HAL_Driver/Src/stm32f1xx_hal_dma.c **** }
 229:Drivers/STM32F1xx_HAL_Driver/Src/stm32f1xx_hal_dma.c **** 
 230:Drivers/STM32F1xx_HAL_Driver/Src/stm32f1xx_hal_dma.c **** /**
 231:Drivers/STM32F1xx_HAL_Driver/Src/stm32f1xx_hal_dma.c ****   * @brief  DeInitialize the DMA peripheral.
 232:Drivers/STM32F1xx_HAL_Driver/Src/stm32f1xx_hal_dma.c ****   * @param  hdma: pointer to a DMA_HandleTypeDef structure that contains
 233:Drivers/STM32F1xx_HAL_Driver/Src/stm32f1xx_hal_dma.c ****   *               the configuration information for the specified DMA Channel.
 234:Drivers/STM32F1xx_HAL_Driver/Src/stm32f1xx_hal_dma.c ****   * @retval HAL status
 235:Drivers/STM32F1xx_HAL_Driver/Src/stm32f1xx_hal_dma.c ****   */
 236:Drivers/STM32F1xx_HAL_Driver/Src/stm32f1xx_hal_dma.c **** HAL_StatusTypeDef HAL_DMA_DeInit(DMA_HandleTypeDef *hdma)
 237:Drivers/STM32F1xx_HAL_Driver/Src/stm32f1xx_hal_dma.c **** {
 238:Drivers/STM32F1xx_HAL_Driver/Src/stm32f1xx_hal_dma.c ****   /* Check the DMA handle allocation */
 239:Drivers/STM32F1xx_HAL_Driver/Src/stm32f1xx_hal_dma.c ****   if(hdma == NULL)
 240:Drivers/STM32F1xx_HAL_Driver/Src/stm32f1xx_hal_dma.c ****   {
 241:Drivers/STM32F1xx_HAL_Driver/Src/stm32f1xx_hal_dma.c ****     return HAL_ERROR;
 242:Drivers/STM32F1xx_HAL_Driver/Src/stm32f1xx_hal_dma.c ****   }
 243:Drivers/STM32F1xx_HAL_Driver/Src/stm32f1xx_hal_dma.c **** 
 244:Drivers/STM32F1xx_HAL_Driver/Src/stm32f1xx_hal_dma.c ****   /* Check the parameters */
 245:Drivers/STM32F1xx_HAL_Driver/Src/stm32f1xx_hal_dma.c ****   assert_param(IS_DMA_ALL_INSTANCE(hdma->Instance));
 246:Drivers/STM32F1xx_HAL_Driver/Src/stm32f1xx_hal_dma.c **** 
 247:Drivers/STM32F1xx_HAL_Driver/Src/stm32f1xx_hal_dma.c ****   /* Disable the selected DMA Channelx */
 248:Drivers/STM32F1xx_HAL_Driver/Src/stm32f1xx_hal_dma.c ****   __HAL_DMA_DISABLE(hdma);
 249:Drivers/STM32F1xx_HAL_Driver/Src/stm32f1xx_hal_dma.c **** 
 250:Drivers/STM32F1xx_HAL_Driver/Src/stm32f1xx_hal_dma.c ****   /* Reset DMA Channel control register */
 251:Drivers/STM32F1xx_HAL_Driver/Src/stm32f1xx_hal_dma.c ****   hdma->Instance->CCR  = 0U;
 252:Drivers/STM32F1xx_HAL_Driver/Src/stm32f1xx_hal_dma.c **** 
 253:Drivers/STM32F1xx_HAL_Driver/Src/stm32f1xx_hal_dma.c ****   /* Reset DMA Channel Number of Data to Transfer register */
 254:Drivers/STM32F1xx_HAL_Driver/Src/stm32f1xx_hal_dma.c ****   hdma->Instance->CNDTR = 0U;
 255:Drivers/STM32F1xx_HAL_Driver/Src/stm32f1xx_hal_dma.c **** 
 256:Drivers/STM32F1xx_HAL_Driver/Src/stm32f1xx_hal_dma.c ****   /* Reset DMA Channel peripheral address register */
 257:Drivers/STM32F1xx_HAL_Driver/Src/stm32f1xx_hal_dma.c ****   hdma->Instance->CPAR  = 0U;
 258:Drivers/STM32F1xx_HAL_Driver/Src/stm32f1xx_hal_dma.c **** 
 259:Drivers/STM32F1xx_HAL_Driver/Src/stm32f1xx_hal_dma.c ****   /* Reset DMA Channel memory address register */
 260:Drivers/STM32F1xx_HAL_Driver/Src/stm32f1xx_hal_dma.c ****   hdma->Instance->CMAR = 0U;
ARM GAS  C:\Users\tianx\AppData\Local\Temp\ccOmbCCE.s 			page 6


 261:Drivers/STM32F1xx_HAL_Driver/Src/stm32f1xx_hal_dma.c **** 
 262:Drivers/STM32F1xx_HAL_Driver/Src/stm32f1xx_hal_dma.c **** #if defined (STM32F101xE) || defined (STM32F101xG) || defined (STM32F103xE) || defined (STM32F103xG
 263:Drivers/STM32F1xx_HAL_Driver/Src/stm32f1xx_hal_dma.c ****   /* calculation of the channel index */
 264:Drivers/STM32F1xx_HAL_Driver/Src/stm32f1xx_hal_dma.c ****   if ((uint32_t)(hdma->Instance) < (uint32_t)(DMA2_Channel1))
 265:Drivers/STM32F1xx_HAL_Driver/Src/stm32f1xx_hal_dma.c ****   {
 266:Drivers/STM32F1xx_HAL_Driver/Src/stm32f1xx_hal_dma.c ****     /* DMA1 */
 267:Drivers/STM32F1xx_HAL_Driver/Src/stm32f1xx_hal_dma.c ****     hdma->ChannelIndex = (((uint32_t)hdma->Instance - (uint32_t)DMA1_Channel1) / ((uint32_t)DMA1_Ch
 268:Drivers/STM32F1xx_HAL_Driver/Src/stm32f1xx_hal_dma.c ****     hdma->DmaBaseAddress = DMA1;
 269:Drivers/STM32F1xx_HAL_Driver/Src/stm32f1xx_hal_dma.c ****   }
 270:Drivers/STM32F1xx_HAL_Driver/Src/stm32f1xx_hal_dma.c ****   else
 271:Drivers/STM32F1xx_HAL_Driver/Src/stm32f1xx_hal_dma.c ****   {
 272:Drivers/STM32F1xx_HAL_Driver/Src/stm32f1xx_hal_dma.c ****     /* DMA2 */
 273:Drivers/STM32F1xx_HAL_Driver/Src/stm32f1xx_hal_dma.c ****     hdma->ChannelIndex = (((uint32_t)hdma->Instance - (uint32_t)DMA2_Channel1) / ((uint32_t)DMA2_Ch
 274:Drivers/STM32F1xx_HAL_Driver/Src/stm32f1xx_hal_dma.c ****     hdma->DmaBaseAddress = DMA2;
 275:Drivers/STM32F1xx_HAL_Driver/Src/stm32f1xx_hal_dma.c ****   }
 276:Drivers/STM32F1xx_HAL_Driver/Src/stm32f1xx_hal_dma.c **** #else
 277:Drivers/STM32F1xx_HAL_Driver/Src/stm32f1xx_hal_dma.c ****   /* DMA1 */
 278:Drivers/STM32F1xx_HAL_Driver/Src/stm32f1xx_hal_dma.c ****   hdma->ChannelIndex = (((uint32_t)hdma->Instance - (uint32_t)DMA1_Channel1) / ((uint32_t)DMA1_Chan
 279:Drivers/STM32F1xx_HAL_Driver/Src/stm32f1xx_hal_dma.c ****   hdma->DmaBaseAddress = DMA1;
 280:Drivers/STM32F1xx_HAL_Driver/Src/stm32f1xx_hal_dma.c **** #endif /* STM32F101xE || STM32F101xG || STM32F103xE || STM32F103xG || STM32F100xE || STM32F105xC ||
 281:Drivers/STM32F1xx_HAL_Driver/Src/stm32f1xx_hal_dma.c **** 
 282:Drivers/STM32F1xx_HAL_Driver/Src/stm32f1xx_hal_dma.c ****   /* Clear all flags */
 283:Drivers/STM32F1xx_HAL_Driver/Src/stm32f1xx_hal_dma.c ****   hdma->DmaBaseAddress->IFCR = (DMA_ISR_GIF1 << (hdma->ChannelIndex));
 284:Drivers/STM32F1xx_HAL_Driver/Src/stm32f1xx_hal_dma.c **** 
 285:Drivers/STM32F1xx_HAL_Driver/Src/stm32f1xx_hal_dma.c ****   /* Clean all callbacks */
 286:Drivers/STM32F1xx_HAL_Driver/Src/stm32f1xx_hal_dma.c ****   hdma->XferCpltCallback = NULL;
 287:Drivers/STM32F1xx_HAL_Driver/Src/stm32f1xx_hal_dma.c ****   hdma->XferHalfCpltCallback = NULL;
 288:Drivers/STM32F1xx_HAL_Driver/Src/stm32f1xx_hal_dma.c ****   hdma->XferErrorCallback = NULL;
 289:Drivers/STM32F1xx_HAL_Driver/Src/stm32f1xx_hal_dma.c ****   hdma->XferAbortCallback = NULL;
 290:Drivers/STM32F1xx_HAL_Driver/Src/stm32f1xx_hal_dma.c **** 
 291:Drivers/STM32F1xx_HAL_Driver/Src/stm32f1xx_hal_dma.c ****   /* Reset the error code */
 292:Drivers/STM32F1xx_HAL_Driver/Src/stm32f1xx_hal_dma.c ****   hdma->ErrorCode = HAL_DMA_ERROR_NONE;
 293:Drivers/STM32F1xx_HAL_Driver/Src/stm32f1xx_hal_dma.c **** 
 294:Drivers/STM32F1xx_HAL_Driver/Src/stm32f1xx_hal_dma.c ****   /* Reset the DMA state */
 295:Drivers/STM32F1xx_HAL_Driver/Src/stm32f1xx_hal_dma.c ****   hdma->State = HAL_DMA_STATE_RESET;
 296:Drivers/STM32F1xx_HAL_Driver/Src/stm32f1xx_hal_dma.c **** 
 297:Drivers/STM32F1xx_HAL_Driver/Src/stm32f1xx_hal_dma.c ****   /* Release Lock */
 298:Drivers/STM32F1xx_HAL_Driver/Src/stm32f1xx_hal_dma.c ****   __HAL_UNLOCK(hdma);
 299:Drivers/STM32F1xx_HAL_Driver/Src/stm32f1xx_hal_dma.c **** 
 300:Drivers/STM32F1xx_HAL_Driver/Src/stm32f1xx_hal_dma.c ****   return HAL_OK;
 301:Drivers/STM32F1xx_HAL_Driver/Src/stm32f1xx_hal_dma.c **** }
 302:Drivers/STM32F1xx_HAL_Driver/Src/stm32f1xx_hal_dma.c **** 
 303:Drivers/STM32F1xx_HAL_Driver/Src/stm32f1xx_hal_dma.c **** /**
 304:Drivers/STM32F1xx_HAL_Driver/Src/stm32f1xx_hal_dma.c ****   * @}
 305:Drivers/STM32F1xx_HAL_Driver/Src/stm32f1xx_hal_dma.c ****   */
 306:Drivers/STM32F1xx_HAL_Driver/Src/stm32f1xx_hal_dma.c **** 
 307:Drivers/STM32F1xx_HAL_Driver/Src/stm32f1xx_hal_dma.c **** /** @defgroup DMA_Exported_Functions_Group2 Input and Output operation functions
 308:Drivers/STM32F1xx_HAL_Driver/Src/stm32f1xx_hal_dma.c ****   *  @brief   Input and Output operation functions
 309:Drivers/STM32F1xx_HAL_Driver/Src/stm32f1xx_hal_dma.c ****   *
 310:Drivers/STM32F1xx_HAL_Driver/Src/stm32f1xx_hal_dma.c **** @verbatim
 311:Drivers/STM32F1xx_HAL_Driver/Src/stm32f1xx_hal_dma.c ****  ===============================================================================
 312:Drivers/STM32F1xx_HAL_Driver/Src/stm32f1xx_hal_dma.c ****                       #####  IO operation functions  #####
 313:Drivers/STM32F1xx_HAL_Driver/Src/stm32f1xx_hal_dma.c ****  ===============================================================================
 314:Drivers/STM32F1xx_HAL_Driver/Src/stm32f1xx_hal_dma.c ****     [..]  This section provides functions allowing to:
 315:Drivers/STM32F1xx_HAL_Driver/Src/stm32f1xx_hal_dma.c ****       (+) Configure the source, destination address and data length and Start DMA transfer
 316:Drivers/STM32F1xx_HAL_Driver/Src/stm32f1xx_hal_dma.c ****       (+) Configure the source, destination address and data length and
 317:Drivers/STM32F1xx_HAL_Driver/Src/stm32f1xx_hal_dma.c ****           Start DMA transfer with interrupt
ARM GAS  C:\Users\tianx\AppData\Local\Temp\ccOmbCCE.s 			page 7


 318:Drivers/STM32F1xx_HAL_Driver/Src/stm32f1xx_hal_dma.c ****       (+) Abort DMA transfer
 319:Drivers/STM32F1xx_HAL_Driver/Src/stm32f1xx_hal_dma.c ****       (+) Poll for transfer complete
 320:Drivers/STM32F1xx_HAL_Driver/Src/stm32f1xx_hal_dma.c ****       (+) Handle DMA interrupt request
 321:Drivers/STM32F1xx_HAL_Driver/Src/stm32f1xx_hal_dma.c **** 
 322:Drivers/STM32F1xx_HAL_Driver/Src/stm32f1xx_hal_dma.c **** @endverbatim
 323:Drivers/STM32F1xx_HAL_Driver/Src/stm32f1xx_hal_dma.c ****   * @{
 324:Drivers/STM32F1xx_HAL_Driver/Src/stm32f1xx_hal_dma.c ****   */
 325:Drivers/STM32F1xx_HAL_Driver/Src/stm32f1xx_hal_dma.c **** 
 326:Drivers/STM32F1xx_HAL_Driver/Src/stm32f1xx_hal_dma.c **** /**
 327:Drivers/STM32F1xx_HAL_Driver/Src/stm32f1xx_hal_dma.c ****   * @brief  Start the DMA Transfer.
 328:Drivers/STM32F1xx_HAL_Driver/Src/stm32f1xx_hal_dma.c ****   * @param  hdma: pointer to a DMA_HandleTypeDef structure that contains
 329:Drivers/STM32F1xx_HAL_Driver/Src/stm32f1xx_hal_dma.c ****   *               the configuration information for the specified DMA Channel.
 330:Drivers/STM32F1xx_HAL_Driver/Src/stm32f1xx_hal_dma.c ****   * @param  SrcAddress: The source memory Buffer address
 331:Drivers/STM32F1xx_HAL_Driver/Src/stm32f1xx_hal_dma.c ****   * @param  DstAddress: The destination memory Buffer address
 332:Drivers/STM32F1xx_HAL_Driver/Src/stm32f1xx_hal_dma.c ****   * @param  DataLength: The length of data to be transferred from source to destination
 333:Drivers/STM32F1xx_HAL_Driver/Src/stm32f1xx_hal_dma.c ****   * @retval HAL status
 334:Drivers/STM32F1xx_HAL_Driver/Src/stm32f1xx_hal_dma.c ****   */
 335:Drivers/STM32F1xx_HAL_Driver/Src/stm32f1xx_hal_dma.c **** HAL_StatusTypeDef HAL_DMA_Start(DMA_HandleTypeDef *hdma, uint32_t SrcAddress, uint32_t DstAddress, 
 336:Drivers/STM32F1xx_HAL_Driver/Src/stm32f1xx_hal_dma.c **** {
 337:Drivers/STM32F1xx_HAL_Driver/Src/stm32f1xx_hal_dma.c ****   HAL_StatusTypeDef status = HAL_OK;
 338:Drivers/STM32F1xx_HAL_Driver/Src/stm32f1xx_hal_dma.c **** 
 339:Drivers/STM32F1xx_HAL_Driver/Src/stm32f1xx_hal_dma.c ****   /* Check the parameters */
 340:Drivers/STM32F1xx_HAL_Driver/Src/stm32f1xx_hal_dma.c ****   assert_param(IS_DMA_BUFFER_SIZE(DataLength));
 341:Drivers/STM32F1xx_HAL_Driver/Src/stm32f1xx_hal_dma.c **** 
 342:Drivers/STM32F1xx_HAL_Driver/Src/stm32f1xx_hal_dma.c ****   /* Process locked */
 343:Drivers/STM32F1xx_HAL_Driver/Src/stm32f1xx_hal_dma.c ****   __HAL_LOCK(hdma);
 344:Drivers/STM32F1xx_HAL_Driver/Src/stm32f1xx_hal_dma.c **** 
 345:Drivers/STM32F1xx_HAL_Driver/Src/stm32f1xx_hal_dma.c ****   if(HAL_DMA_STATE_READY == hdma->State)
 346:Drivers/STM32F1xx_HAL_Driver/Src/stm32f1xx_hal_dma.c ****   {
 347:Drivers/STM32F1xx_HAL_Driver/Src/stm32f1xx_hal_dma.c ****     /* Change DMA peripheral state */
 348:Drivers/STM32F1xx_HAL_Driver/Src/stm32f1xx_hal_dma.c ****     hdma->State = HAL_DMA_STATE_BUSY;
 349:Drivers/STM32F1xx_HAL_Driver/Src/stm32f1xx_hal_dma.c ****     hdma->ErrorCode = HAL_DMA_ERROR_NONE;
 350:Drivers/STM32F1xx_HAL_Driver/Src/stm32f1xx_hal_dma.c ****             
 351:Drivers/STM32F1xx_HAL_Driver/Src/stm32f1xx_hal_dma.c ****     /* Disable the peripheral */
 352:Drivers/STM32F1xx_HAL_Driver/Src/stm32f1xx_hal_dma.c ****     __HAL_DMA_DISABLE(hdma);
 353:Drivers/STM32F1xx_HAL_Driver/Src/stm32f1xx_hal_dma.c ****     
 354:Drivers/STM32F1xx_HAL_Driver/Src/stm32f1xx_hal_dma.c ****     /* Configure the source, destination address and the data length & clear flags*/
 355:Drivers/STM32F1xx_HAL_Driver/Src/stm32f1xx_hal_dma.c ****     DMA_SetConfig(hdma, SrcAddress, DstAddress, DataLength);
 356:Drivers/STM32F1xx_HAL_Driver/Src/stm32f1xx_hal_dma.c ****     
 357:Drivers/STM32F1xx_HAL_Driver/Src/stm32f1xx_hal_dma.c ****     /* Enable the Peripheral */
 358:Drivers/STM32F1xx_HAL_Driver/Src/stm32f1xx_hal_dma.c ****     __HAL_DMA_ENABLE(hdma);
 359:Drivers/STM32F1xx_HAL_Driver/Src/stm32f1xx_hal_dma.c ****   }
 360:Drivers/STM32F1xx_HAL_Driver/Src/stm32f1xx_hal_dma.c ****   else
 361:Drivers/STM32F1xx_HAL_Driver/Src/stm32f1xx_hal_dma.c ****   {
 362:Drivers/STM32F1xx_HAL_Driver/Src/stm32f1xx_hal_dma.c ****    /* Process Unlocked */
 363:Drivers/STM32F1xx_HAL_Driver/Src/stm32f1xx_hal_dma.c ****    __HAL_UNLOCK(hdma);  
 364:Drivers/STM32F1xx_HAL_Driver/Src/stm32f1xx_hal_dma.c ****    status = HAL_BUSY;
 365:Drivers/STM32F1xx_HAL_Driver/Src/stm32f1xx_hal_dma.c ****   }  
 366:Drivers/STM32F1xx_HAL_Driver/Src/stm32f1xx_hal_dma.c ****   return status;
 367:Drivers/STM32F1xx_HAL_Driver/Src/stm32f1xx_hal_dma.c **** }
 368:Drivers/STM32F1xx_HAL_Driver/Src/stm32f1xx_hal_dma.c **** 
 369:Drivers/STM32F1xx_HAL_Driver/Src/stm32f1xx_hal_dma.c **** /**
 370:Drivers/STM32F1xx_HAL_Driver/Src/stm32f1xx_hal_dma.c ****   * @brief  Start the DMA Transfer with interrupt enabled.
 371:Drivers/STM32F1xx_HAL_Driver/Src/stm32f1xx_hal_dma.c ****   * @param  hdma: pointer to a DMA_HandleTypeDef structure that contains
 372:Drivers/STM32F1xx_HAL_Driver/Src/stm32f1xx_hal_dma.c ****   *               the configuration information for the specified DMA Channel.
 373:Drivers/STM32F1xx_HAL_Driver/Src/stm32f1xx_hal_dma.c ****   * @param  SrcAddress: The source memory Buffer address
 374:Drivers/STM32F1xx_HAL_Driver/Src/stm32f1xx_hal_dma.c ****   * @param  DstAddress: The destination memory Buffer address
ARM GAS  C:\Users\tianx\AppData\Local\Temp\ccOmbCCE.s 			page 8


 375:Drivers/STM32F1xx_HAL_Driver/Src/stm32f1xx_hal_dma.c ****   * @param  DataLength: The length of data to be transferred from source to destination
 376:Drivers/STM32F1xx_HAL_Driver/Src/stm32f1xx_hal_dma.c ****   * @retval HAL status
 377:Drivers/STM32F1xx_HAL_Driver/Src/stm32f1xx_hal_dma.c ****   */
 378:Drivers/STM32F1xx_HAL_Driver/Src/stm32f1xx_hal_dma.c **** HAL_StatusTypeDef HAL_DMA_Start_IT(DMA_HandleTypeDef *hdma, uint32_t SrcAddress, uint32_t DstAddres
 379:Drivers/STM32F1xx_HAL_Driver/Src/stm32f1xx_hal_dma.c **** {
 380:Drivers/STM32F1xx_HAL_Driver/Src/stm32f1xx_hal_dma.c ****   HAL_StatusTypeDef status = HAL_OK;
 381:Drivers/STM32F1xx_HAL_Driver/Src/stm32f1xx_hal_dma.c **** 
 382:Drivers/STM32F1xx_HAL_Driver/Src/stm32f1xx_hal_dma.c ****   /* Check the parameters */
 383:Drivers/STM32F1xx_HAL_Driver/Src/stm32f1xx_hal_dma.c ****   assert_param(IS_DMA_BUFFER_SIZE(DataLength));
 384:Drivers/STM32F1xx_HAL_Driver/Src/stm32f1xx_hal_dma.c **** 
 385:Drivers/STM32F1xx_HAL_Driver/Src/stm32f1xx_hal_dma.c ****   /* Process locked */
 386:Drivers/STM32F1xx_HAL_Driver/Src/stm32f1xx_hal_dma.c ****   __HAL_LOCK(hdma);
 387:Drivers/STM32F1xx_HAL_Driver/Src/stm32f1xx_hal_dma.c ****   
 388:Drivers/STM32F1xx_HAL_Driver/Src/stm32f1xx_hal_dma.c ****   if(HAL_DMA_STATE_READY == hdma->State)
 389:Drivers/STM32F1xx_HAL_Driver/Src/stm32f1xx_hal_dma.c ****   {
 390:Drivers/STM32F1xx_HAL_Driver/Src/stm32f1xx_hal_dma.c ****     /* Change DMA peripheral state */
 391:Drivers/STM32F1xx_HAL_Driver/Src/stm32f1xx_hal_dma.c ****     hdma->State = HAL_DMA_STATE_BUSY;
 392:Drivers/STM32F1xx_HAL_Driver/Src/stm32f1xx_hal_dma.c ****     hdma->ErrorCode = HAL_DMA_ERROR_NONE;
 393:Drivers/STM32F1xx_HAL_Driver/Src/stm32f1xx_hal_dma.c ****     
 394:Drivers/STM32F1xx_HAL_Driver/Src/stm32f1xx_hal_dma.c ****     /* Disable the peripheral */
 395:Drivers/STM32F1xx_HAL_Driver/Src/stm32f1xx_hal_dma.c ****     __HAL_DMA_DISABLE(hdma);
 396:Drivers/STM32F1xx_HAL_Driver/Src/stm32f1xx_hal_dma.c ****     
 397:Drivers/STM32F1xx_HAL_Driver/Src/stm32f1xx_hal_dma.c ****     /* Configure the source, destination address and the data length & clear flags*/
 398:Drivers/STM32F1xx_HAL_Driver/Src/stm32f1xx_hal_dma.c ****     DMA_SetConfig(hdma, SrcAddress, DstAddress, DataLength);
 399:Drivers/STM32F1xx_HAL_Driver/Src/stm32f1xx_hal_dma.c ****     
 400:Drivers/STM32F1xx_HAL_Driver/Src/stm32f1xx_hal_dma.c ****     /* Enable the transfer complete interrupt */
 401:Drivers/STM32F1xx_HAL_Driver/Src/stm32f1xx_hal_dma.c ****     /* Enable the transfer Error interrupt */
 402:Drivers/STM32F1xx_HAL_Driver/Src/stm32f1xx_hal_dma.c ****     if(NULL != hdma->XferHalfCpltCallback)
 403:Drivers/STM32F1xx_HAL_Driver/Src/stm32f1xx_hal_dma.c ****     {
 404:Drivers/STM32F1xx_HAL_Driver/Src/stm32f1xx_hal_dma.c ****       /* Enable the Half transfer complete interrupt as well */
 405:Drivers/STM32F1xx_HAL_Driver/Src/stm32f1xx_hal_dma.c ****       __HAL_DMA_ENABLE_IT(hdma, (DMA_IT_TC | DMA_IT_HT | DMA_IT_TE));
 406:Drivers/STM32F1xx_HAL_Driver/Src/stm32f1xx_hal_dma.c ****     }
 407:Drivers/STM32F1xx_HAL_Driver/Src/stm32f1xx_hal_dma.c ****     else
 408:Drivers/STM32F1xx_HAL_Driver/Src/stm32f1xx_hal_dma.c ****     {
 409:Drivers/STM32F1xx_HAL_Driver/Src/stm32f1xx_hal_dma.c ****       __HAL_DMA_DISABLE_IT(hdma, DMA_IT_HT);
 410:Drivers/STM32F1xx_HAL_Driver/Src/stm32f1xx_hal_dma.c ****       __HAL_DMA_ENABLE_IT(hdma, (DMA_IT_TC | DMA_IT_TE));
 411:Drivers/STM32F1xx_HAL_Driver/Src/stm32f1xx_hal_dma.c ****     }
 412:Drivers/STM32F1xx_HAL_Driver/Src/stm32f1xx_hal_dma.c ****     /* Enable the Peripheral */
 413:Drivers/STM32F1xx_HAL_Driver/Src/stm32f1xx_hal_dma.c ****     __HAL_DMA_ENABLE(hdma);
 414:Drivers/STM32F1xx_HAL_Driver/Src/stm32f1xx_hal_dma.c ****   }
 415:Drivers/STM32F1xx_HAL_Driver/Src/stm32f1xx_hal_dma.c ****   else
 416:Drivers/STM32F1xx_HAL_Driver/Src/stm32f1xx_hal_dma.c ****   {      
 417:Drivers/STM32F1xx_HAL_Driver/Src/stm32f1xx_hal_dma.c ****     /* Process Unlocked */
 418:Drivers/STM32F1xx_HAL_Driver/Src/stm32f1xx_hal_dma.c ****     __HAL_UNLOCK(hdma); 
 419:Drivers/STM32F1xx_HAL_Driver/Src/stm32f1xx_hal_dma.c **** 
 420:Drivers/STM32F1xx_HAL_Driver/Src/stm32f1xx_hal_dma.c ****     /* Remain BUSY */
 421:Drivers/STM32F1xx_HAL_Driver/Src/stm32f1xx_hal_dma.c ****     status = HAL_BUSY;
 422:Drivers/STM32F1xx_HAL_Driver/Src/stm32f1xx_hal_dma.c ****   }    
 423:Drivers/STM32F1xx_HAL_Driver/Src/stm32f1xx_hal_dma.c ****   return status;
 424:Drivers/STM32F1xx_HAL_Driver/Src/stm32f1xx_hal_dma.c **** }
 425:Drivers/STM32F1xx_HAL_Driver/Src/stm32f1xx_hal_dma.c **** 
 426:Drivers/STM32F1xx_HAL_Driver/Src/stm32f1xx_hal_dma.c **** /**
 427:Drivers/STM32F1xx_HAL_Driver/Src/stm32f1xx_hal_dma.c ****   * @brief  Abort the DMA Transfer.
 428:Drivers/STM32F1xx_HAL_Driver/Src/stm32f1xx_hal_dma.c ****   * @param  hdma: pointer to a DMA_HandleTypeDef structure that contains
 429:Drivers/STM32F1xx_HAL_Driver/Src/stm32f1xx_hal_dma.c ****   *               the configuration information for the specified DMA Channel.
 430:Drivers/STM32F1xx_HAL_Driver/Src/stm32f1xx_hal_dma.c ****   * @retval HAL status
 431:Drivers/STM32F1xx_HAL_Driver/Src/stm32f1xx_hal_dma.c ****   */
ARM GAS  C:\Users\tianx\AppData\Local\Temp\ccOmbCCE.s 			page 9


 432:Drivers/STM32F1xx_HAL_Driver/Src/stm32f1xx_hal_dma.c **** HAL_StatusTypeDef HAL_DMA_Abort(DMA_HandleTypeDef *hdma)
 433:Drivers/STM32F1xx_HAL_Driver/Src/stm32f1xx_hal_dma.c **** {
 434:Drivers/STM32F1xx_HAL_Driver/Src/stm32f1xx_hal_dma.c ****   HAL_StatusTypeDef status = HAL_OK;
 435:Drivers/STM32F1xx_HAL_Driver/Src/stm32f1xx_hal_dma.c **** 
 436:Drivers/STM32F1xx_HAL_Driver/Src/stm32f1xx_hal_dma.c ****   /* Disable DMA IT */
 437:Drivers/STM32F1xx_HAL_Driver/Src/stm32f1xx_hal_dma.c ****   __HAL_DMA_DISABLE_IT(hdma, (DMA_IT_TC | DMA_IT_HT | DMA_IT_TE));
 438:Drivers/STM32F1xx_HAL_Driver/Src/stm32f1xx_hal_dma.c ****     
 439:Drivers/STM32F1xx_HAL_Driver/Src/stm32f1xx_hal_dma.c ****   /* Disable the channel */
 440:Drivers/STM32F1xx_HAL_Driver/Src/stm32f1xx_hal_dma.c ****   __HAL_DMA_DISABLE(hdma);
 441:Drivers/STM32F1xx_HAL_Driver/Src/stm32f1xx_hal_dma.c ****     
 442:Drivers/STM32F1xx_HAL_Driver/Src/stm32f1xx_hal_dma.c ****   /* Clear all flags */
 443:Drivers/STM32F1xx_HAL_Driver/Src/stm32f1xx_hal_dma.c ****   hdma->DmaBaseAddress->IFCR = (DMA_ISR_GIF1 << hdma->ChannelIndex);
 444:Drivers/STM32F1xx_HAL_Driver/Src/stm32f1xx_hal_dma.c **** 
 445:Drivers/STM32F1xx_HAL_Driver/Src/stm32f1xx_hal_dma.c ****   /* Change the DMA state */
 446:Drivers/STM32F1xx_HAL_Driver/Src/stm32f1xx_hal_dma.c ****   hdma->State = HAL_DMA_STATE_READY;
 447:Drivers/STM32F1xx_HAL_Driver/Src/stm32f1xx_hal_dma.c **** 
 448:Drivers/STM32F1xx_HAL_Driver/Src/stm32f1xx_hal_dma.c ****   /* Process Unlocked */
 449:Drivers/STM32F1xx_HAL_Driver/Src/stm32f1xx_hal_dma.c ****   __HAL_UNLOCK(hdma);      
 450:Drivers/STM32F1xx_HAL_Driver/Src/stm32f1xx_hal_dma.c ****   
 451:Drivers/STM32F1xx_HAL_Driver/Src/stm32f1xx_hal_dma.c ****   return status; 
 452:Drivers/STM32F1xx_HAL_Driver/Src/stm32f1xx_hal_dma.c **** }
 453:Drivers/STM32F1xx_HAL_Driver/Src/stm32f1xx_hal_dma.c **** 
 454:Drivers/STM32F1xx_HAL_Driver/Src/stm32f1xx_hal_dma.c **** /**
 455:Drivers/STM32F1xx_HAL_Driver/Src/stm32f1xx_hal_dma.c ****   * @brief  Aborts the DMA Transfer in Interrupt mode.
 456:Drivers/STM32F1xx_HAL_Driver/Src/stm32f1xx_hal_dma.c ****   * @param  hdma  : pointer to a DMA_HandleTypeDef structure that contains
 457:Drivers/STM32F1xx_HAL_Driver/Src/stm32f1xx_hal_dma.c ****   *                 the configuration information for the specified DMA Channel.
 458:Drivers/STM32F1xx_HAL_Driver/Src/stm32f1xx_hal_dma.c ****   * @retval HAL status
 459:Drivers/STM32F1xx_HAL_Driver/Src/stm32f1xx_hal_dma.c ****   */
 460:Drivers/STM32F1xx_HAL_Driver/Src/stm32f1xx_hal_dma.c **** HAL_StatusTypeDef HAL_DMA_Abort_IT(DMA_HandleTypeDef *hdma)
 461:Drivers/STM32F1xx_HAL_Driver/Src/stm32f1xx_hal_dma.c **** {  
 462:Drivers/STM32F1xx_HAL_Driver/Src/stm32f1xx_hal_dma.c ****   HAL_StatusTypeDef status = HAL_OK;
 463:Drivers/STM32F1xx_HAL_Driver/Src/stm32f1xx_hal_dma.c ****   
 464:Drivers/STM32F1xx_HAL_Driver/Src/stm32f1xx_hal_dma.c ****   if(HAL_DMA_STATE_BUSY != hdma->State)
 465:Drivers/STM32F1xx_HAL_Driver/Src/stm32f1xx_hal_dma.c ****   {
 466:Drivers/STM32F1xx_HAL_Driver/Src/stm32f1xx_hal_dma.c ****     /* no transfer ongoing */
 467:Drivers/STM32F1xx_HAL_Driver/Src/stm32f1xx_hal_dma.c ****     hdma->ErrorCode = HAL_DMA_ERROR_NO_XFER;
 468:Drivers/STM32F1xx_HAL_Driver/Src/stm32f1xx_hal_dma.c ****         
 469:Drivers/STM32F1xx_HAL_Driver/Src/stm32f1xx_hal_dma.c ****     status = HAL_ERROR;
 470:Drivers/STM32F1xx_HAL_Driver/Src/stm32f1xx_hal_dma.c ****   }
 471:Drivers/STM32F1xx_HAL_Driver/Src/stm32f1xx_hal_dma.c ****   else
 472:Drivers/STM32F1xx_HAL_Driver/Src/stm32f1xx_hal_dma.c ****   { 
 473:Drivers/STM32F1xx_HAL_Driver/Src/stm32f1xx_hal_dma.c ****     /* Disable DMA IT */
 474:Drivers/STM32F1xx_HAL_Driver/Src/stm32f1xx_hal_dma.c ****     __HAL_DMA_DISABLE_IT(hdma, (DMA_IT_TC | DMA_IT_HT | DMA_IT_TE));
 475:Drivers/STM32F1xx_HAL_Driver/Src/stm32f1xx_hal_dma.c **** 
 476:Drivers/STM32F1xx_HAL_Driver/Src/stm32f1xx_hal_dma.c ****     /* Disable the channel */
 477:Drivers/STM32F1xx_HAL_Driver/Src/stm32f1xx_hal_dma.c ****     __HAL_DMA_DISABLE(hdma);
 478:Drivers/STM32F1xx_HAL_Driver/Src/stm32f1xx_hal_dma.c **** 
 479:Drivers/STM32F1xx_HAL_Driver/Src/stm32f1xx_hal_dma.c ****     /* Clear all flags */
 480:Drivers/STM32F1xx_HAL_Driver/Src/stm32f1xx_hal_dma.c ****     __HAL_DMA_CLEAR_FLAG(hdma, __HAL_DMA_GET_GI_FLAG_INDEX(hdma));
 481:Drivers/STM32F1xx_HAL_Driver/Src/stm32f1xx_hal_dma.c **** 
 482:Drivers/STM32F1xx_HAL_Driver/Src/stm32f1xx_hal_dma.c ****     /* Change the DMA state */
 483:Drivers/STM32F1xx_HAL_Driver/Src/stm32f1xx_hal_dma.c ****     hdma->State = HAL_DMA_STATE_READY;
 484:Drivers/STM32F1xx_HAL_Driver/Src/stm32f1xx_hal_dma.c **** 
 485:Drivers/STM32F1xx_HAL_Driver/Src/stm32f1xx_hal_dma.c ****     /* Process Unlocked */
 486:Drivers/STM32F1xx_HAL_Driver/Src/stm32f1xx_hal_dma.c ****     __HAL_UNLOCK(hdma);
 487:Drivers/STM32F1xx_HAL_Driver/Src/stm32f1xx_hal_dma.c **** 
 488:Drivers/STM32F1xx_HAL_Driver/Src/stm32f1xx_hal_dma.c ****     /* Call User Abort callback */
ARM GAS  C:\Users\tianx\AppData\Local\Temp\ccOmbCCE.s 			page 10


 489:Drivers/STM32F1xx_HAL_Driver/Src/stm32f1xx_hal_dma.c ****     if(hdma->XferAbortCallback != NULL)
 490:Drivers/STM32F1xx_HAL_Driver/Src/stm32f1xx_hal_dma.c ****     {
 491:Drivers/STM32F1xx_HAL_Driver/Src/stm32f1xx_hal_dma.c ****       hdma->XferAbortCallback(hdma);
 492:Drivers/STM32F1xx_HAL_Driver/Src/stm32f1xx_hal_dma.c ****     } 
 493:Drivers/STM32F1xx_HAL_Driver/Src/stm32f1xx_hal_dma.c ****   }
 494:Drivers/STM32F1xx_HAL_Driver/Src/stm32f1xx_hal_dma.c ****   return status;
 495:Drivers/STM32F1xx_HAL_Driver/Src/stm32f1xx_hal_dma.c **** }
 496:Drivers/STM32F1xx_HAL_Driver/Src/stm32f1xx_hal_dma.c **** 
 497:Drivers/STM32F1xx_HAL_Driver/Src/stm32f1xx_hal_dma.c **** /**
 498:Drivers/STM32F1xx_HAL_Driver/Src/stm32f1xx_hal_dma.c ****   * @brief  Polling for transfer complete.
 499:Drivers/STM32F1xx_HAL_Driver/Src/stm32f1xx_hal_dma.c ****   * @param  hdma:    pointer to a DMA_HandleTypeDef structure that contains
 500:Drivers/STM32F1xx_HAL_Driver/Src/stm32f1xx_hal_dma.c ****   *                  the configuration information for the specified DMA Channel.
 501:Drivers/STM32F1xx_HAL_Driver/Src/stm32f1xx_hal_dma.c ****   * @param  CompleteLevel: Specifies the DMA level complete.
 502:Drivers/STM32F1xx_HAL_Driver/Src/stm32f1xx_hal_dma.c ****   * @param  Timeout:       Timeout duration.
 503:Drivers/STM32F1xx_HAL_Driver/Src/stm32f1xx_hal_dma.c ****   * @retval HAL status
 504:Drivers/STM32F1xx_HAL_Driver/Src/stm32f1xx_hal_dma.c ****   */
 505:Drivers/STM32F1xx_HAL_Driver/Src/stm32f1xx_hal_dma.c **** HAL_StatusTypeDef HAL_DMA_PollForTransfer(DMA_HandleTypeDef *hdma, uint32_t CompleteLevel, uint32_t
 506:Drivers/STM32F1xx_HAL_Driver/Src/stm32f1xx_hal_dma.c **** {
 507:Drivers/STM32F1xx_HAL_Driver/Src/stm32f1xx_hal_dma.c ****   uint32_t temp;
 508:Drivers/STM32F1xx_HAL_Driver/Src/stm32f1xx_hal_dma.c ****   uint32_t tickstart = 0U;
 509:Drivers/STM32F1xx_HAL_Driver/Src/stm32f1xx_hal_dma.c **** 
 510:Drivers/STM32F1xx_HAL_Driver/Src/stm32f1xx_hal_dma.c ****   if(HAL_DMA_STATE_BUSY != hdma->State)
 511:Drivers/STM32F1xx_HAL_Driver/Src/stm32f1xx_hal_dma.c ****   {
 512:Drivers/STM32F1xx_HAL_Driver/Src/stm32f1xx_hal_dma.c ****     /* no transfer ongoing */
 513:Drivers/STM32F1xx_HAL_Driver/Src/stm32f1xx_hal_dma.c ****     hdma->ErrorCode = HAL_DMA_ERROR_NO_XFER;
 514:Drivers/STM32F1xx_HAL_Driver/Src/stm32f1xx_hal_dma.c ****     __HAL_UNLOCK(hdma);
 515:Drivers/STM32F1xx_HAL_Driver/Src/stm32f1xx_hal_dma.c ****     return HAL_ERROR;
 516:Drivers/STM32F1xx_HAL_Driver/Src/stm32f1xx_hal_dma.c ****   }
 517:Drivers/STM32F1xx_HAL_Driver/Src/stm32f1xx_hal_dma.c **** 
 518:Drivers/STM32F1xx_HAL_Driver/Src/stm32f1xx_hal_dma.c ****   /* Polling mode not supported in circular mode */
 519:Drivers/STM32F1xx_HAL_Driver/Src/stm32f1xx_hal_dma.c ****   if (RESET != (hdma->Instance->CCR & DMA_CCR_CIRC))
 520:Drivers/STM32F1xx_HAL_Driver/Src/stm32f1xx_hal_dma.c ****   {
 521:Drivers/STM32F1xx_HAL_Driver/Src/stm32f1xx_hal_dma.c ****     hdma->ErrorCode = HAL_DMA_ERROR_NOT_SUPPORTED;
 522:Drivers/STM32F1xx_HAL_Driver/Src/stm32f1xx_hal_dma.c ****     return HAL_ERROR;
 523:Drivers/STM32F1xx_HAL_Driver/Src/stm32f1xx_hal_dma.c ****   }
 524:Drivers/STM32F1xx_HAL_Driver/Src/stm32f1xx_hal_dma.c ****   
 525:Drivers/STM32F1xx_HAL_Driver/Src/stm32f1xx_hal_dma.c ****   /* Get the level transfer complete flag */
 526:Drivers/STM32F1xx_HAL_Driver/Src/stm32f1xx_hal_dma.c ****   if(CompleteLevel == HAL_DMA_FULL_TRANSFER)
 527:Drivers/STM32F1xx_HAL_Driver/Src/stm32f1xx_hal_dma.c ****   {
 528:Drivers/STM32F1xx_HAL_Driver/Src/stm32f1xx_hal_dma.c ****     /* Transfer Complete flag */
 529:Drivers/STM32F1xx_HAL_Driver/Src/stm32f1xx_hal_dma.c ****     temp = __HAL_DMA_GET_TC_FLAG_INDEX(hdma);
 530:Drivers/STM32F1xx_HAL_Driver/Src/stm32f1xx_hal_dma.c ****   }
 531:Drivers/STM32F1xx_HAL_Driver/Src/stm32f1xx_hal_dma.c ****   else
 532:Drivers/STM32F1xx_HAL_Driver/Src/stm32f1xx_hal_dma.c ****   {
 533:Drivers/STM32F1xx_HAL_Driver/Src/stm32f1xx_hal_dma.c ****     /* Half Transfer Complete flag */
 534:Drivers/STM32F1xx_HAL_Driver/Src/stm32f1xx_hal_dma.c ****     temp = __HAL_DMA_GET_HT_FLAG_INDEX(hdma);
 535:Drivers/STM32F1xx_HAL_Driver/Src/stm32f1xx_hal_dma.c ****   }
 536:Drivers/STM32F1xx_HAL_Driver/Src/stm32f1xx_hal_dma.c **** 
 537:Drivers/STM32F1xx_HAL_Driver/Src/stm32f1xx_hal_dma.c ****   /* Get tick */
 538:Drivers/STM32F1xx_HAL_Driver/Src/stm32f1xx_hal_dma.c ****   tickstart = HAL_GetTick();
 539:Drivers/STM32F1xx_HAL_Driver/Src/stm32f1xx_hal_dma.c **** 
 540:Drivers/STM32F1xx_HAL_Driver/Src/stm32f1xx_hal_dma.c ****   while(__HAL_DMA_GET_FLAG(hdma, temp) == RESET)
 541:Drivers/STM32F1xx_HAL_Driver/Src/stm32f1xx_hal_dma.c ****   {
 542:Drivers/STM32F1xx_HAL_Driver/Src/stm32f1xx_hal_dma.c ****     if((__HAL_DMA_GET_FLAG(hdma, __HAL_DMA_GET_TE_FLAG_INDEX(hdma)) != RESET))
 543:Drivers/STM32F1xx_HAL_Driver/Src/stm32f1xx_hal_dma.c ****     {
 544:Drivers/STM32F1xx_HAL_Driver/Src/stm32f1xx_hal_dma.c ****       /* When a DMA transfer error occurs */
 545:Drivers/STM32F1xx_HAL_Driver/Src/stm32f1xx_hal_dma.c ****       /* A hardware clear of its EN bits is performed */
ARM GAS  C:\Users\tianx\AppData\Local\Temp\ccOmbCCE.s 			page 11


 546:Drivers/STM32F1xx_HAL_Driver/Src/stm32f1xx_hal_dma.c ****       /* Clear all flags */
 547:Drivers/STM32F1xx_HAL_Driver/Src/stm32f1xx_hal_dma.c ****       hdma->DmaBaseAddress->IFCR = (DMA_ISR_GIF1 << hdma->ChannelIndex);
 548:Drivers/STM32F1xx_HAL_Driver/Src/stm32f1xx_hal_dma.c **** 
 549:Drivers/STM32F1xx_HAL_Driver/Src/stm32f1xx_hal_dma.c ****       /* Update error code */
 550:Drivers/STM32F1xx_HAL_Driver/Src/stm32f1xx_hal_dma.c ****       SET_BIT(hdma->ErrorCode, HAL_DMA_ERROR_TE);
 551:Drivers/STM32F1xx_HAL_Driver/Src/stm32f1xx_hal_dma.c **** 
 552:Drivers/STM32F1xx_HAL_Driver/Src/stm32f1xx_hal_dma.c ****       /* Change the DMA state */
 553:Drivers/STM32F1xx_HAL_Driver/Src/stm32f1xx_hal_dma.c ****       hdma->State= HAL_DMA_STATE_READY;
 554:Drivers/STM32F1xx_HAL_Driver/Src/stm32f1xx_hal_dma.c **** 
 555:Drivers/STM32F1xx_HAL_Driver/Src/stm32f1xx_hal_dma.c ****       /* Process Unlocked */
 556:Drivers/STM32F1xx_HAL_Driver/Src/stm32f1xx_hal_dma.c ****       __HAL_UNLOCK(hdma);
 557:Drivers/STM32F1xx_HAL_Driver/Src/stm32f1xx_hal_dma.c **** 
 558:Drivers/STM32F1xx_HAL_Driver/Src/stm32f1xx_hal_dma.c ****       return HAL_ERROR;
 559:Drivers/STM32F1xx_HAL_Driver/Src/stm32f1xx_hal_dma.c ****     }
 560:Drivers/STM32F1xx_HAL_Driver/Src/stm32f1xx_hal_dma.c ****     /* Check for the Timeout */
 561:Drivers/STM32F1xx_HAL_Driver/Src/stm32f1xx_hal_dma.c ****     if(Timeout != HAL_MAX_DELAY)
 562:Drivers/STM32F1xx_HAL_Driver/Src/stm32f1xx_hal_dma.c ****     {
 563:Drivers/STM32F1xx_HAL_Driver/Src/stm32f1xx_hal_dma.c ****       if((Timeout == 0U) || ((HAL_GetTick() - tickstart) > Timeout))
 564:Drivers/STM32F1xx_HAL_Driver/Src/stm32f1xx_hal_dma.c ****       {
 565:Drivers/STM32F1xx_HAL_Driver/Src/stm32f1xx_hal_dma.c ****         /* Update error code */
 566:Drivers/STM32F1xx_HAL_Driver/Src/stm32f1xx_hal_dma.c ****         SET_BIT(hdma->ErrorCode, HAL_DMA_ERROR_TIMEOUT);
 567:Drivers/STM32F1xx_HAL_Driver/Src/stm32f1xx_hal_dma.c **** 
 568:Drivers/STM32F1xx_HAL_Driver/Src/stm32f1xx_hal_dma.c ****         /* Change the DMA state */
 569:Drivers/STM32F1xx_HAL_Driver/Src/stm32f1xx_hal_dma.c ****         hdma->State = HAL_DMA_STATE_READY;
 570:Drivers/STM32F1xx_HAL_Driver/Src/stm32f1xx_hal_dma.c **** 
 571:Drivers/STM32F1xx_HAL_Driver/Src/stm32f1xx_hal_dma.c ****         /* Process Unlocked */
 572:Drivers/STM32F1xx_HAL_Driver/Src/stm32f1xx_hal_dma.c ****         __HAL_UNLOCK(hdma);
 573:Drivers/STM32F1xx_HAL_Driver/Src/stm32f1xx_hal_dma.c **** 
 574:Drivers/STM32F1xx_HAL_Driver/Src/stm32f1xx_hal_dma.c ****         return HAL_ERROR;
 575:Drivers/STM32F1xx_HAL_Driver/Src/stm32f1xx_hal_dma.c ****       }
 576:Drivers/STM32F1xx_HAL_Driver/Src/stm32f1xx_hal_dma.c ****     }
 577:Drivers/STM32F1xx_HAL_Driver/Src/stm32f1xx_hal_dma.c ****   }
 578:Drivers/STM32F1xx_HAL_Driver/Src/stm32f1xx_hal_dma.c **** 
 579:Drivers/STM32F1xx_HAL_Driver/Src/stm32f1xx_hal_dma.c ****   if(CompleteLevel == HAL_DMA_FULL_TRANSFER)
 580:Drivers/STM32F1xx_HAL_Driver/Src/stm32f1xx_hal_dma.c ****   {
 581:Drivers/STM32F1xx_HAL_Driver/Src/stm32f1xx_hal_dma.c ****     /* Clear the transfer complete flag */
 582:Drivers/STM32F1xx_HAL_Driver/Src/stm32f1xx_hal_dma.c ****     __HAL_DMA_CLEAR_FLAG(hdma, __HAL_DMA_GET_TC_FLAG_INDEX(hdma));
 583:Drivers/STM32F1xx_HAL_Driver/Src/stm32f1xx_hal_dma.c **** 
 584:Drivers/STM32F1xx_HAL_Driver/Src/stm32f1xx_hal_dma.c ****     /* The selected Channelx EN bit is cleared (DMA is disabled and
 585:Drivers/STM32F1xx_HAL_Driver/Src/stm32f1xx_hal_dma.c ****     all transfers are complete) */
 586:Drivers/STM32F1xx_HAL_Driver/Src/stm32f1xx_hal_dma.c ****     hdma->State = HAL_DMA_STATE_READY;
 587:Drivers/STM32F1xx_HAL_Driver/Src/stm32f1xx_hal_dma.c ****   }
 588:Drivers/STM32F1xx_HAL_Driver/Src/stm32f1xx_hal_dma.c ****   else
 589:Drivers/STM32F1xx_HAL_Driver/Src/stm32f1xx_hal_dma.c ****   {
 590:Drivers/STM32F1xx_HAL_Driver/Src/stm32f1xx_hal_dma.c ****     /* Clear the half transfer complete flag */
 591:Drivers/STM32F1xx_HAL_Driver/Src/stm32f1xx_hal_dma.c ****     __HAL_DMA_CLEAR_FLAG(hdma, __HAL_DMA_GET_HT_FLAG_INDEX(hdma));
 592:Drivers/STM32F1xx_HAL_Driver/Src/stm32f1xx_hal_dma.c ****   }
 593:Drivers/STM32F1xx_HAL_Driver/Src/stm32f1xx_hal_dma.c ****   
 594:Drivers/STM32F1xx_HAL_Driver/Src/stm32f1xx_hal_dma.c ****   /* Process unlocked */
 595:Drivers/STM32F1xx_HAL_Driver/Src/stm32f1xx_hal_dma.c ****   __HAL_UNLOCK(hdma);
 596:Drivers/STM32F1xx_HAL_Driver/Src/stm32f1xx_hal_dma.c **** 
 597:Drivers/STM32F1xx_HAL_Driver/Src/stm32f1xx_hal_dma.c ****   return HAL_OK;
 598:Drivers/STM32F1xx_HAL_Driver/Src/stm32f1xx_hal_dma.c **** }
 599:Drivers/STM32F1xx_HAL_Driver/Src/stm32f1xx_hal_dma.c **** 
 600:Drivers/STM32F1xx_HAL_Driver/Src/stm32f1xx_hal_dma.c **** /**
 601:Drivers/STM32F1xx_HAL_Driver/Src/stm32f1xx_hal_dma.c ****   * @brief  Handles DMA interrupt request.
 602:Drivers/STM32F1xx_HAL_Driver/Src/stm32f1xx_hal_dma.c ****   * @param  hdma: pointer to a DMA_HandleTypeDef structure that contains
ARM GAS  C:\Users\tianx\AppData\Local\Temp\ccOmbCCE.s 			page 12


 603:Drivers/STM32F1xx_HAL_Driver/Src/stm32f1xx_hal_dma.c ****   *               the configuration information for the specified DMA Channel.  
 604:Drivers/STM32F1xx_HAL_Driver/Src/stm32f1xx_hal_dma.c ****   * @retval None
 605:Drivers/STM32F1xx_HAL_Driver/Src/stm32f1xx_hal_dma.c ****   */
 606:Drivers/STM32F1xx_HAL_Driver/Src/stm32f1xx_hal_dma.c **** void HAL_DMA_IRQHandler(DMA_HandleTypeDef *hdma)
 607:Drivers/STM32F1xx_HAL_Driver/Src/stm32f1xx_hal_dma.c **** {
 608:Drivers/STM32F1xx_HAL_Driver/Src/stm32f1xx_hal_dma.c ****   uint32_t flag_it = hdma->DmaBaseAddress->ISR;
 609:Drivers/STM32F1xx_HAL_Driver/Src/stm32f1xx_hal_dma.c ****   uint32_t source_it = hdma->Instance->CCR;
 610:Drivers/STM32F1xx_HAL_Driver/Src/stm32f1xx_hal_dma.c ****   
 611:Drivers/STM32F1xx_HAL_Driver/Src/stm32f1xx_hal_dma.c ****   /* Half Transfer Complete Interrupt management ******************************/
 612:Drivers/STM32F1xx_HAL_Driver/Src/stm32f1xx_hal_dma.c ****   if (((flag_it & (DMA_FLAG_HT1 << hdma->ChannelIndex)) != RESET) && ((source_it & DMA_IT_HT) != RE
 613:Drivers/STM32F1xx_HAL_Driver/Src/stm32f1xx_hal_dma.c ****   {
 614:Drivers/STM32F1xx_HAL_Driver/Src/stm32f1xx_hal_dma.c ****     /* Disable the half transfer interrupt if the DMA mode is not CIRCULAR */
 615:Drivers/STM32F1xx_HAL_Driver/Src/stm32f1xx_hal_dma.c ****     if((hdma->Instance->CCR & DMA_CCR_CIRC) == 0U)
 616:Drivers/STM32F1xx_HAL_Driver/Src/stm32f1xx_hal_dma.c ****     {
 617:Drivers/STM32F1xx_HAL_Driver/Src/stm32f1xx_hal_dma.c ****       /* Disable the half transfer interrupt */
 618:Drivers/STM32F1xx_HAL_Driver/Src/stm32f1xx_hal_dma.c ****       __HAL_DMA_DISABLE_IT(hdma, DMA_IT_HT);
 619:Drivers/STM32F1xx_HAL_Driver/Src/stm32f1xx_hal_dma.c ****     }
 620:Drivers/STM32F1xx_HAL_Driver/Src/stm32f1xx_hal_dma.c ****     /* Clear the half transfer complete flag */
 621:Drivers/STM32F1xx_HAL_Driver/Src/stm32f1xx_hal_dma.c ****     __HAL_DMA_CLEAR_FLAG(hdma, __HAL_DMA_GET_HT_FLAG_INDEX(hdma));
 622:Drivers/STM32F1xx_HAL_Driver/Src/stm32f1xx_hal_dma.c **** 
 623:Drivers/STM32F1xx_HAL_Driver/Src/stm32f1xx_hal_dma.c ****     /* DMA peripheral state is not updated in Half Transfer */
 624:Drivers/STM32F1xx_HAL_Driver/Src/stm32f1xx_hal_dma.c ****     /* but in Transfer Complete case */
 625:Drivers/STM32F1xx_HAL_Driver/Src/stm32f1xx_hal_dma.c **** 
 626:Drivers/STM32F1xx_HAL_Driver/Src/stm32f1xx_hal_dma.c ****     if(hdma->XferHalfCpltCallback != NULL)
 627:Drivers/STM32F1xx_HAL_Driver/Src/stm32f1xx_hal_dma.c ****     {
 628:Drivers/STM32F1xx_HAL_Driver/Src/stm32f1xx_hal_dma.c ****       /* Half transfer callback */
 629:Drivers/STM32F1xx_HAL_Driver/Src/stm32f1xx_hal_dma.c ****       hdma->XferHalfCpltCallback(hdma);
 630:Drivers/STM32F1xx_HAL_Driver/Src/stm32f1xx_hal_dma.c ****     }
 631:Drivers/STM32F1xx_HAL_Driver/Src/stm32f1xx_hal_dma.c ****   }
 632:Drivers/STM32F1xx_HAL_Driver/Src/stm32f1xx_hal_dma.c **** 
 633:Drivers/STM32F1xx_HAL_Driver/Src/stm32f1xx_hal_dma.c ****   /* Transfer Complete Interrupt management ***********************************/
 634:Drivers/STM32F1xx_HAL_Driver/Src/stm32f1xx_hal_dma.c ****   else if (((flag_it & (DMA_FLAG_TC1 << hdma->ChannelIndex)) != RESET) && ((source_it & DMA_IT_TC) 
 635:Drivers/STM32F1xx_HAL_Driver/Src/stm32f1xx_hal_dma.c ****   {
 636:Drivers/STM32F1xx_HAL_Driver/Src/stm32f1xx_hal_dma.c ****     if((hdma->Instance->CCR & DMA_CCR_CIRC) == 0U)
 637:Drivers/STM32F1xx_HAL_Driver/Src/stm32f1xx_hal_dma.c ****     {
 638:Drivers/STM32F1xx_HAL_Driver/Src/stm32f1xx_hal_dma.c ****       /* Disable the transfer complete and error interrupt */
 639:Drivers/STM32F1xx_HAL_Driver/Src/stm32f1xx_hal_dma.c ****       __HAL_DMA_DISABLE_IT(hdma, DMA_IT_TE | DMA_IT_TC);  
 640:Drivers/STM32F1xx_HAL_Driver/Src/stm32f1xx_hal_dma.c **** 
 641:Drivers/STM32F1xx_HAL_Driver/Src/stm32f1xx_hal_dma.c ****       /* Change the DMA state */
 642:Drivers/STM32F1xx_HAL_Driver/Src/stm32f1xx_hal_dma.c ****       hdma->State = HAL_DMA_STATE_READY;
 643:Drivers/STM32F1xx_HAL_Driver/Src/stm32f1xx_hal_dma.c ****     }
 644:Drivers/STM32F1xx_HAL_Driver/Src/stm32f1xx_hal_dma.c ****     /* Clear the transfer complete flag */
 645:Drivers/STM32F1xx_HAL_Driver/Src/stm32f1xx_hal_dma.c ****       __HAL_DMA_CLEAR_FLAG(hdma, __HAL_DMA_GET_TC_FLAG_INDEX(hdma));
 646:Drivers/STM32F1xx_HAL_Driver/Src/stm32f1xx_hal_dma.c **** 
 647:Drivers/STM32F1xx_HAL_Driver/Src/stm32f1xx_hal_dma.c ****     /* Process Unlocked */
 648:Drivers/STM32F1xx_HAL_Driver/Src/stm32f1xx_hal_dma.c ****     __HAL_UNLOCK(hdma);
 649:Drivers/STM32F1xx_HAL_Driver/Src/stm32f1xx_hal_dma.c **** 
 650:Drivers/STM32F1xx_HAL_Driver/Src/stm32f1xx_hal_dma.c ****     if(hdma->XferCpltCallback != NULL)
 651:Drivers/STM32F1xx_HAL_Driver/Src/stm32f1xx_hal_dma.c ****     {
 652:Drivers/STM32F1xx_HAL_Driver/Src/stm32f1xx_hal_dma.c ****       /* Transfer complete callback */
 653:Drivers/STM32F1xx_HAL_Driver/Src/stm32f1xx_hal_dma.c ****       hdma->XferCpltCallback(hdma);
 654:Drivers/STM32F1xx_HAL_Driver/Src/stm32f1xx_hal_dma.c ****     }
 655:Drivers/STM32F1xx_HAL_Driver/Src/stm32f1xx_hal_dma.c ****   }
 656:Drivers/STM32F1xx_HAL_Driver/Src/stm32f1xx_hal_dma.c **** 
 657:Drivers/STM32F1xx_HAL_Driver/Src/stm32f1xx_hal_dma.c ****   /* Transfer Error Interrupt management **************************************/
 658:Drivers/STM32F1xx_HAL_Driver/Src/stm32f1xx_hal_dma.c ****   else if (( RESET != (flag_it & (DMA_FLAG_TE1 << hdma->ChannelIndex))) && (RESET != (source_it & D
 659:Drivers/STM32F1xx_HAL_Driver/Src/stm32f1xx_hal_dma.c ****   {
ARM GAS  C:\Users\tianx\AppData\Local\Temp\ccOmbCCE.s 			page 13


 660:Drivers/STM32F1xx_HAL_Driver/Src/stm32f1xx_hal_dma.c ****     /* When a DMA transfer error occurs */
 661:Drivers/STM32F1xx_HAL_Driver/Src/stm32f1xx_hal_dma.c ****     /* A hardware clear of its EN bits is performed */
 662:Drivers/STM32F1xx_HAL_Driver/Src/stm32f1xx_hal_dma.c ****     /* Disable ALL DMA IT */
 663:Drivers/STM32F1xx_HAL_Driver/Src/stm32f1xx_hal_dma.c ****     __HAL_DMA_DISABLE_IT(hdma, (DMA_IT_TC | DMA_IT_HT | DMA_IT_TE));
 664:Drivers/STM32F1xx_HAL_Driver/Src/stm32f1xx_hal_dma.c **** 
 665:Drivers/STM32F1xx_HAL_Driver/Src/stm32f1xx_hal_dma.c ****     /* Clear all flags */
 666:Drivers/STM32F1xx_HAL_Driver/Src/stm32f1xx_hal_dma.c ****     hdma->DmaBaseAddress->IFCR = (DMA_ISR_GIF1 << hdma->ChannelIndex);
 667:Drivers/STM32F1xx_HAL_Driver/Src/stm32f1xx_hal_dma.c **** 
 668:Drivers/STM32F1xx_HAL_Driver/Src/stm32f1xx_hal_dma.c ****     /* Update error code */
 669:Drivers/STM32F1xx_HAL_Driver/Src/stm32f1xx_hal_dma.c ****     hdma->ErrorCode = HAL_DMA_ERROR_TE;
 670:Drivers/STM32F1xx_HAL_Driver/Src/stm32f1xx_hal_dma.c **** 
 671:Drivers/STM32F1xx_HAL_Driver/Src/stm32f1xx_hal_dma.c ****     /* Change the DMA state */
 672:Drivers/STM32F1xx_HAL_Driver/Src/stm32f1xx_hal_dma.c ****     hdma->State = HAL_DMA_STATE_READY;
 673:Drivers/STM32F1xx_HAL_Driver/Src/stm32f1xx_hal_dma.c **** 
 674:Drivers/STM32F1xx_HAL_Driver/Src/stm32f1xx_hal_dma.c ****     /* Process Unlocked */
 675:Drivers/STM32F1xx_HAL_Driver/Src/stm32f1xx_hal_dma.c ****     __HAL_UNLOCK(hdma);
 676:Drivers/STM32F1xx_HAL_Driver/Src/stm32f1xx_hal_dma.c **** 
 677:Drivers/STM32F1xx_HAL_Driver/Src/stm32f1xx_hal_dma.c ****     if (hdma->XferErrorCallback != NULL)
 678:Drivers/STM32F1xx_HAL_Driver/Src/stm32f1xx_hal_dma.c ****     {
 679:Drivers/STM32F1xx_HAL_Driver/Src/stm32f1xx_hal_dma.c ****       /* Transfer error callback */
 680:Drivers/STM32F1xx_HAL_Driver/Src/stm32f1xx_hal_dma.c ****       hdma->XferErrorCallback(hdma);
 681:Drivers/STM32F1xx_HAL_Driver/Src/stm32f1xx_hal_dma.c ****     }
 682:Drivers/STM32F1xx_HAL_Driver/Src/stm32f1xx_hal_dma.c ****   }
 683:Drivers/STM32F1xx_HAL_Driver/Src/stm32f1xx_hal_dma.c ****   return;
 684:Drivers/STM32F1xx_HAL_Driver/Src/stm32f1xx_hal_dma.c **** }
 685:Drivers/STM32F1xx_HAL_Driver/Src/stm32f1xx_hal_dma.c **** 
 686:Drivers/STM32F1xx_HAL_Driver/Src/stm32f1xx_hal_dma.c **** /**
 687:Drivers/STM32F1xx_HAL_Driver/Src/stm32f1xx_hal_dma.c ****   * @brief Register callbacks
 688:Drivers/STM32F1xx_HAL_Driver/Src/stm32f1xx_hal_dma.c ****   * @param hdma: pointer to a DMA_HandleTypeDef structure that contains
 689:Drivers/STM32F1xx_HAL_Driver/Src/stm32f1xx_hal_dma.c ****   *              the configuration information for the specified DMA Channel.
 690:Drivers/STM32F1xx_HAL_Driver/Src/stm32f1xx_hal_dma.c ****   * @param CallbackID: User Callback identifer
 691:Drivers/STM32F1xx_HAL_Driver/Src/stm32f1xx_hal_dma.c ****   *                    a HAL_DMA_CallbackIDTypeDef ENUM as parameter.
 692:Drivers/STM32F1xx_HAL_Driver/Src/stm32f1xx_hal_dma.c ****   * @param pCallback: pointer to private callbacsk function which has pointer to 
 693:Drivers/STM32F1xx_HAL_Driver/Src/stm32f1xx_hal_dma.c ****   *                   a DMA_HandleTypeDef structure as parameter.
 694:Drivers/STM32F1xx_HAL_Driver/Src/stm32f1xx_hal_dma.c ****   * @retval HAL status
 695:Drivers/STM32F1xx_HAL_Driver/Src/stm32f1xx_hal_dma.c ****   */                          
 696:Drivers/STM32F1xx_HAL_Driver/Src/stm32f1xx_hal_dma.c **** HAL_StatusTypeDef HAL_DMA_RegisterCallback(DMA_HandleTypeDef *hdma, HAL_DMA_CallbackIDTypeDef Callb
 697:Drivers/STM32F1xx_HAL_Driver/Src/stm32f1xx_hal_dma.c **** {
 698:Drivers/STM32F1xx_HAL_Driver/Src/stm32f1xx_hal_dma.c ****   HAL_StatusTypeDef status = HAL_OK;
 699:Drivers/STM32F1xx_HAL_Driver/Src/stm32f1xx_hal_dma.c ****   
 700:Drivers/STM32F1xx_HAL_Driver/Src/stm32f1xx_hal_dma.c ****   /* Process locked */
 701:Drivers/STM32F1xx_HAL_Driver/Src/stm32f1xx_hal_dma.c ****   __HAL_LOCK(hdma);
 702:Drivers/STM32F1xx_HAL_Driver/Src/stm32f1xx_hal_dma.c ****   
 703:Drivers/STM32F1xx_HAL_Driver/Src/stm32f1xx_hal_dma.c ****   if(HAL_DMA_STATE_READY == hdma->State)
 704:Drivers/STM32F1xx_HAL_Driver/Src/stm32f1xx_hal_dma.c ****   {
 705:Drivers/STM32F1xx_HAL_Driver/Src/stm32f1xx_hal_dma.c ****     switch (CallbackID)
 706:Drivers/STM32F1xx_HAL_Driver/Src/stm32f1xx_hal_dma.c ****     {
 707:Drivers/STM32F1xx_HAL_Driver/Src/stm32f1xx_hal_dma.c ****     case  HAL_DMA_XFER_CPLT_CB_ID:
 708:Drivers/STM32F1xx_HAL_Driver/Src/stm32f1xx_hal_dma.c ****       hdma->XferCpltCallback = pCallback;
 709:Drivers/STM32F1xx_HAL_Driver/Src/stm32f1xx_hal_dma.c ****       break;
 710:Drivers/STM32F1xx_HAL_Driver/Src/stm32f1xx_hal_dma.c ****       
 711:Drivers/STM32F1xx_HAL_Driver/Src/stm32f1xx_hal_dma.c ****     case  HAL_DMA_XFER_HALFCPLT_CB_ID:
 712:Drivers/STM32F1xx_HAL_Driver/Src/stm32f1xx_hal_dma.c ****       hdma->XferHalfCpltCallback = pCallback;
 713:Drivers/STM32F1xx_HAL_Driver/Src/stm32f1xx_hal_dma.c ****       break;         
 714:Drivers/STM32F1xx_HAL_Driver/Src/stm32f1xx_hal_dma.c **** 
 715:Drivers/STM32F1xx_HAL_Driver/Src/stm32f1xx_hal_dma.c ****     case  HAL_DMA_XFER_ERROR_CB_ID:
 716:Drivers/STM32F1xx_HAL_Driver/Src/stm32f1xx_hal_dma.c ****       hdma->XferErrorCallback = pCallback;
ARM GAS  C:\Users\tianx\AppData\Local\Temp\ccOmbCCE.s 			page 14


 717:Drivers/STM32F1xx_HAL_Driver/Src/stm32f1xx_hal_dma.c ****       break;         
 718:Drivers/STM32F1xx_HAL_Driver/Src/stm32f1xx_hal_dma.c ****       
 719:Drivers/STM32F1xx_HAL_Driver/Src/stm32f1xx_hal_dma.c ****     case  HAL_DMA_XFER_ABORT_CB_ID:
 720:Drivers/STM32F1xx_HAL_Driver/Src/stm32f1xx_hal_dma.c ****       hdma->XferAbortCallback = pCallback;
 721:Drivers/STM32F1xx_HAL_Driver/Src/stm32f1xx_hal_dma.c ****       break; 
 722:Drivers/STM32F1xx_HAL_Driver/Src/stm32f1xx_hal_dma.c ****       
 723:Drivers/STM32F1xx_HAL_Driver/Src/stm32f1xx_hal_dma.c ****     default:
 724:Drivers/STM32F1xx_HAL_Driver/Src/stm32f1xx_hal_dma.c ****       status = HAL_ERROR;
 725:Drivers/STM32F1xx_HAL_Driver/Src/stm32f1xx_hal_dma.c ****       break;                                                            
 726:Drivers/STM32F1xx_HAL_Driver/Src/stm32f1xx_hal_dma.c ****     }
 727:Drivers/STM32F1xx_HAL_Driver/Src/stm32f1xx_hal_dma.c ****   }
 728:Drivers/STM32F1xx_HAL_Driver/Src/stm32f1xx_hal_dma.c ****   else
 729:Drivers/STM32F1xx_HAL_Driver/Src/stm32f1xx_hal_dma.c ****   {
 730:Drivers/STM32F1xx_HAL_Driver/Src/stm32f1xx_hal_dma.c ****     status = HAL_ERROR;
 731:Drivers/STM32F1xx_HAL_Driver/Src/stm32f1xx_hal_dma.c ****   } 
 732:Drivers/STM32F1xx_HAL_Driver/Src/stm32f1xx_hal_dma.c ****   
 733:Drivers/STM32F1xx_HAL_Driver/Src/stm32f1xx_hal_dma.c ****   /* Release Lock */
 734:Drivers/STM32F1xx_HAL_Driver/Src/stm32f1xx_hal_dma.c ****   __HAL_UNLOCK(hdma);
 735:Drivers/STM32F1xx_HAL_Driver/Src/stm32f1xx_hal_dma.c ****   
 736:Drivers/STM32F1xx_HAL_Driver/Src/stm32f1xx_hal_dma.c ****   return status;
 737:Drivers/STM32F1xx_HAL_Driver/Src/stm32f1xx_hal_dma.c **** }
 738:Drivers/STM32F1xx_HAL_Driver/Src/stm32f1xx_hal_dma.c **** 
 739:Drivers/STM32F1xx_HAL_Driver/Src/stm32f1xx_hal_dma.c **** /**
 740:Drivers/STM32F1xx_HAL_Driver/Src/stm32f1xx_hal_dma.c ****   * @brief UnRegister callbacks
 741:Drivers/STM32F1xx_HAL_Driver/Src/stm32f1xx_hal_dma.c ****   * @param hdma: pointer to a DMA_HandleTypeDef structure that contains
 742:Drivers/STM32F1xx_HAL_Driver/Src/stm32f1xx_hal_dma.c ****   *              the configuration information for the specified DMA Channel.
 743:Drivers/STM32F1xx_HAL_Driver/Src/stm32f1xx_hal_dma.c ****   * @param CallbackID: User Callback identifer
 744:Drivers/STM32F1xx_HAL_Driver/Src/stm32f1xx_hal_dma.c ****   *                    a HAL_DMA_CallbackIDTypeDef ENUM as parameter.
 745:Drivers/STM32F1xx_HAL_Driver/Src/stm32f1xx_hal_dma.c ****   * @retval HAL status
 746:Drivers/STM32F1xx_HAL_Driver/Src/stm32f1xx_hal_dma.c ****   */              
 747:Drivers/STM32F1xx_HAL_Driver/Src/stm32f1xx_hal_dma.c **** HAL_StatusTypeDef HAL_DMA_UnRegisterCallback(DMA_HandleTypeDef *hdma, HAL_DMA_CallbackIDTypeDef Cal
 748:Drivers/STM32F1xx_HAL_Driver/Src/stm32f1xx_hal_dma.c **** {
 749:Drivers/STM32F1xx_HAL_Driver/Src/stm32f1xx_hal_dma.c ****   HAL_StatusTypeDef status = HAL_OK;
 750:Drivers/STM32F1xx_HAL_Driver/Src/stm32f1xx_hal_dma.c **** 
 751:Drivers/STM32F1xx_HAL_Driver/Src/stm32f1xx_hal_dma.c ****   /* Process locked */
 752:Drivers/STM32F1xx_HAL_Driver/Src/stm32f1xx_hal_dma.c ****   __HAL_LOCK(hdma);
 753:Drivers/STM32F1xx_HAL_Driver/Src/stm32f1xx_hal_dma.c ****   
 754:Drivers/STM32F1xx_HAL_Driver/Src/stm32f1xx_hal_dma.c ****   if(HAL_DMA_STATE_READY == hdma->State)
 755:Drivers/STM32F1xx_HAL_Driver/Src/stm32f1xx_hal_dma.c ****   {
 756:Drivers/STM32F1xx_HAL_Driver/Src/stm32f1xx_hal_dma.c ****     switch (CallbackID)
 757:Drivers/STM32F1xx_HAL_Driver/Src/stm32f1xx_hal_dma.c ****     {
 758:Drivers/STM32F1xx_HAL_Driver/Src/stm32f1xx_hal_dma.c ****     case  HAL_DMA_XFER_CPLT_CB_ID:
 759:Drivers/STM32F1xx_HAL_Driver/Src/stm32f1xx_hal_dma.c ****       hdma->XferCpltCallback = NULL;
 760:Drivers/STM32F1xx_HAL_Driver/Src/stm32f1xx_hal_dma.c ****       break;
 761:Drivers/STM32F1xx_HAL_Driver/Src/stm32f1xx_hal_dma.c **** 
 762:Drivers/STM32F1xx_HAL_Driver/Src/stm32f1xx_hal_dma.c ****     case  HAL_DMA_XFER_HALFCPLT_CB_ID:
 763:Drivers/STM32F1xx_HAL_Driver/Src/stm32f1xx_hal_dma.c ****       hdma->XferHalfCpltCallback = NULL;
 764:Drivers/STM32F1xx_HAL_Driver/Src/stm32f1xx_hal_dma.c ****       break;         
 765:Drivers/STM32F1xx_HAL_Driver/Src/stm32f1xx_hal_dma.c **** 
 766:Drivers/STM32F1xx_HAL_Driver/Src/stm32f1xx_hal_dma.c ****     case  HAL_DMA_XFER_ERROR_CB_ID:
 767:Drivers/STM32F1xx_HAL_Driver/Src/stm32f1xx_hal_dma.c ****       hdma->XferErrorCallback = NULL;
 768:Drivers/STM32F1xx_HAL_Driver/Src/stm32f1xx_hal_dma.c ****       break;         
 769:Drivers/STM32F1xx_HAL_Driver/Src/stm32f1xx_hal_dma.c **** 
 770:Drivers/STM32F1xx_HAL_Driver/Src/stm32f1xx_hal_dma.c ****     case  HAL_DMA_XFER_ABORT_CB_ID:
 771:Drivers/STM32F1xx_HAL_Driver/Src/stm32f1xx_hal_dma.c ****       hdma->XferAbortCallback = NULL;
 772:Drivers/STM32F1xx_HAL_Driver/Src/stm32f1xx_hal_dma.c ****       break; 
 773:Drivers/STM32F1xx_HAL_Driver/Src/stm32f1xx_hal_dma.c **** 
ARM GAS  C:\Users\tianx\AppData\Local\Temp\ccOmbCCE.s 			page 15


 774:Drivers/STM32F1xx_HAL_Driver/Src/stm32f1xx_hal_dma.c ****     case   HAL_DMA_XFER_ALL_CB_ID:
 775:Drivers/STM32F1xx_HAL_Driver/Src/stm32f1xx_hal_dma.c ****       hdma->XferCpltCallback = NULL;
 776:Drivers/STM32F1xx_HAL_Driver/Src/stm32f1xx_hal_dma.c ****       hdma->XferHalfCpltCallback = NULL;
 777:Drivers/STM32F1xx_HAL_Driver/Src/stm32f1xx_hal_dma.c ****       hdma->XferErrorCallback = NULL;
 778:Drivers/STM32F1xx_HAL_Driver/Src/stm32f1xx_hal_dma.c ****       hdma->XferAbortCallback = NULL;
 779:Drivers/STM32F1xx_HAL_Driver/Src/stm32f1xx_hal_dma.c ****       break; 
 780:Drivers/STM32F1xx_HAL_Driver/Src/stm32f1xx_hal_dma.c **** 
 781:Drivers/STM32F1xx_HAL_Driver/Src/stm32f1xx_hal_dma.c ****     default:
 782:Drivers/STM32F1xx_HAL_Driver/Src/stm32f1xx_hal_dma.c ****       status = HAL_ERROR;
 783:Drivers/STM32F1xx_HAL_Driver/Src/stm32f1xx_hal_dma.c ****       break;
 784:Drivers/STM32F1xx_HAL_Driver/Src/stm32f1xx_hal_dma.c ****     }
 785:Drivers/STM32F1xx_HAL_Driver/Src/stm32f1xx_hal_dma.c ****   }
 786:Drivers/STM32F1xx_HAL_Driver/Src/stm32f1xx_hal_dma.c ****   else
 787:Drivers/STM32F1xx_HAL_Driver/Src/stm32f1xx_hal_dma.c ****   {
 788:Drivers/STM32F1xx_HAL_Driver/Src/stm32f1xx_hal_dma.c ****     status = HAL_ERROR;
 789:Drivers/STM32F1xx_HAL_Driver/Src/stm32f1xx_hal_dma.c ****   } 
 790:Drivers/STM32F1xx_HAL_Driver/Src/stm32f1xx_hal_dma.c ****   
 791:Drivers/STM32F1xx_HAL_Driver/Src/stm32f1xx_hal_dma.c ****   /* Release Lock */
 792:Drivers/STM32F1xx_HAL_Driver/Src/stm32f1xx_hal_dma.c ****   __HAL_UNLOCK(hdma);
 793:Drivers/STM32F1xx_HAL_Driver/Src/stm32f1xx_hal_dma.c ****   
 794:Drivers/STM32F1xx_HAL_Driver/Src/stm32f1xx_hal_dma.c ****   return status;
 795:Drivers/STM32F1xx_HAL_Driver/Src/stm32f1xx_hal_dma.c **** }
 796:Drivers/STM32F1xx_HAL_Driver/Src/stm32f1xx_hal_dma.c ****   
 797:Drivers/STM32F1xx_HAL_Driver/Src/stm32f1xx_hal_dma.c **** /**
 798:Drivers/STM32F1xx_HAL_Driver/Src/stm32f1xx_hal_dma.c ****   * @}
 799:Drivers/STM32F1xx_HAL_Driver/Src/stm32f1xx_hal_dma.c ****   */
 800:Drivers/STM32F1xx_HAL_Driver/Src/stm32f1xx_hal_dma.c **** 
 801:Drivers/STM32F1xx_HAL_Driver/Src/stm32f1xx_hal_dma.c **** /** @defgroup DMA_Exported_Functions_Group3 Peripheral State and Errors functions
 802:Drivers/STM32F1xx_HAL_Driver/Src/stm32f1xx_hal_dma.c ****   *  @brief    Peripheral State and Errors functions
 803:Drivers/STM32F1xx_HAL_Driver/Src/stm32f1xx_hal_dma.c ****   *
 804:Drivers/STM32F1xx_HAL_Driver/Src/stm32f1xx_hal_dma.c **** @verbatim
 805:Drivers/STM32F1xx_HAL_Driver/Src/stm32f1xx_hal_dma.c ****  ===============================================================================
 806:Drivers/STM32F1xx_HAL_Driver/Src/stm32f1xx_hal_dma.c ****             ##### Peripheral State and Errors functions #####
 807:Drivers/STM32F1xx_HAL_Driver/Src/stm32f1xx_hal_dma.c ****  ===============================================================================  
 808:Drivers/STM32F1xx_HAL_Driver/Src/stm32f1xx_hal_dma.c ****     [..]
 809:Drivers/STM32F1xx_HAL_Driver/Src/stm32f1xx_hal_dma.c ****     This subsection provides functions allowing to
 810:Drivers/STM32F1xx_HAL_Driver/Src/stm32f1xx_hal_dma.c ****       (+) Check the DMA state
 811:Drivers/STM32F1xx_HAL_Driver/Src/stm32f1xx_hal_dma.c ****       (+) Get error code
 812:Drivers/STM32F1xx_HAL_Driver/Src/stm32f1xx_hal_dma.c **** 
 813:Drivers/STM32F1xx_HAL_Driver/Src/stm32f1xx_hal_dma.c **** @endverbatim
 814:Drivers/STM32F1xx_HAL_Driver/Src/stm32f1xx_hal_dma.c ****   * @{
 815:Drivers/STM32F1xx_HAL_Driver/Src/stm32f1xx_hal_dma.c ****   */
 816:Drivers/STM32F1xx_HAL_Driver/Src/stm32f1xx_hal_dma.c **** 
 817:Drivers/STM32F1xx_HAL_Driver/Src/stm32f1xx_hal_dma.c **** /**
 818:Drivers/STM32F1xx_HAL_Driver/Src/stm32f1xx_hal_dma.c ****   * @brief  Return the DMA hande state.
 819:Drivers/STM32F1xx_HAL_Driver/Src/stm32f1xx_hal_dma.c ****   * @param  hdma: pointer to a DMA_HandleTypeDef structure that contains
 820:Drivers/STM32F1xx_HAL_Driver/Src/stm32f1xx_hal_dma.c ****   *               the configuration information for the specified DMA Channel.
 821:Drivers/STM32F1xx_HAL_Driver/Src/stm32f1xx_hal_dma.c ****   * @retval HAL state
 822:Drivers/STM32F1xx_HAL_Driver/Src/stm32f1xx_hal_dma.c ****   */
 823:Drivers/STM32F1xx_HAL_Driver/Src/stm32f1xx_hal_dma.c **** HAL_DMA_StateTypeDef HAL_DMA_GetState(DMA_HandleTypeDef *hdma)
 824:Drivers/STM32F1xx_HAL_Driver/Src/stm32f1xx_hal_dma.c **** {
 825:Drivers/STM32F1xx_HAL_Driver/Src/stm32f1xx_hal_dma.c ****   /* Return DMA handle state */
 826:Drivers/STM32F1xx_HAL_Driver/Src/stm32f1xx_hal_dma.c ****   return hdma->State;
 827:Drivers/STM32F1xx_HAL_Driver/Src/stm32f1xx_hal_dma.c **** }
 828:Drivers/STM32F1xx_HAL_Driver/Src/stm32f1xx_hal_dma.c **** 
 829:Drivers/STM32F1xx_HAL_Driver/Src/stm32f1xx_hal_dma.c **** /**
 830:Drivers/STM32F1xx_HAL_Driver/Src/stm32f1xx_hal_dma.c ****   * @brief  Return the DMA error code.
ARM GAS  C:\Users\tianx\AppData\Local\Temp\ccOmbCCE.s 			page 16


 831:Drivers/STM32F1xx_HAL_Driver/Src/stm32f1xx_hal_dma.c ****   * @param  hdma : pointer to a DMA_HandleTypeDef structure that contains
 832:Drivers/STM32F1xx_HAL_Driver/Src/stm32f1xx_hal_dma.c ****   *              the configuration information for the specified DMA Channel.
 833:Drivers/STM32F1xx_HAL_Driver/Src/stm32f1xx_hal_dma.c ****   * @retval DMA Error Code
 834:Drivers/STM32F1xx_HAL_Driver/Src/stm32f1xx_hal_dma.c ****   */
 835:Drivers/STM32F1xx_HAL_Driver/Src/stm32f1xx_hal_dma.c **** uint32_t HAL_DMA_GetError(DMA_HandleTypeDef *hdma)
 836:Drivers/STM32F1xx_HAL_Driver/Src/stm32f1xx_hal_dma.c **** {
 837:Drivers/STM32F1xx_HAL_Driver/Src/stm32f1xx_hal_dma.c ****   return hdma->ErrorCode;
 838:Drivers/STM32F1xx_HAL_Driver/Src/stm32f1xx_hal_dma.c **** }
 839:Drivers/STM32F1xx_HAL_Driver/Src/stm32f1xx_hal_dma.c **** 
 840:Drivers/STM32F1xx_HAL_Driver/Src/stm32f1xx_hal_dma.c **** /**
 841:Drivers/STM32F1xx_HAL_Driver/Src/stm32f1xx_hal_dma.c ****   * @}
 842:Drivers/STM32F1xx_HAL_Driver/Src/stm32f1xx_hal_dma.c ****   */
 843:Drivers/STM32F1xx_HAL_Driver/Src/stm32f1xx_hal_dma.c **** 
 844:Drivers/STM32F1xx_HAL_Driver/Src/stm32f1xx_hal_dma.c **** /**
 845:Drivers/STM32F1xx_HAL_Driver/Src/stm32f1xx_hal_dma.c ****   * @}
 846:Drivers/STM32F1xx_HAL_Driver/Src/stm32f1xx_hal_dma.c ****   */
 847:Drivers/STM32F1xx_HAL_Driver/Src/stm32f1xx_hal_dma.c **** 
 848:Drivers/STM32F1xx_HAL_Driver/Src/stm32f1xx_hal_dma.c **** /** @addtogroup DMA_Private_Functions
 849:Drivers/STM32F1xx_HAL_Driver/Src/stm32f1xx_hal_dma.c ****   * @{
 850:Drivers/STM32F1xx_HAL_Driver/Src/stm32f1xx_hal_dma.c ****   */
 851:Drivers/STM32F1xx_HAL_Driver/Src/stm32f1xx_hal_dma.c **** 
 852:Drivers/STM32F1xx_HAL_Driver/Src/stm32f1xx_hal_dma.c **** /**
 853:Drivers/STM32F1xx_HAL_Driver/Src/stm32f1xx_hal_dma.c ****   * @brief  Sets the DMA Transfer parameter.
 854:Drivers/STM32F1xx_HAL_Driver/Src/stm32f1xx_hal_dma.c ****   * @param  hdma:       pointer to a DMA_HandleTypeDef structure that contains
 855:Drivers/STM32F1xx_HAL_Driver/Src/stm32f1xx_hal_dma.c ****   *                     the configuration information for the specified DMA Channel.
 856:Drivers/STM32F1xx_HAL_Driver/Src/stm32f1xx_hal_dma.c ****   * @param  SrcAddress: The source memory Buffer address
 857:Drivers/STM32F1xx_HAL_Driver/Src/stm32f1xx_hal_dma.c ****   * @param  DstAddress: The destination memory Buffer address
 858:Drivers/STM32F1xx_HAL_Driver/Src/stm32f1xx_hal_dma.c ****   * @param  DataLength: The length of data to be transferred from source to destination
 859:Drivers/STM32F1xx_HAL_Driver/Src/stm32f1xx_hal_dma.c ****   * @retval HAL status
 860:Drivers/STM32F1xx_HAL_Driver/Src/stm32f1xx_hal_dma.c ****   */
 861:Drivers/STM32F1xx_HAL_Driver/Src/stm32f1xx_hal_dma.c **** static void DMA_SetConfig(DMA_HandleTypeDef *hdma, uint32_t SrcAddress, uint32_t DstAddress, uint32
 862:Drivers/STM32F1xx_HAL_Driver/Src/stm32f1xx_hal_dma.c **** {
  27              		.loc 1 862 1 view -0
  28              		.cfi_startproc
  29              		@ args = 0, pretend = 0, frame = 0
  30              		@ frame_needed = 0, uses_anonymous_args = 0
  31              		@ link register save eliminated.
  32              		.loc 1 862 1 is_stmt 0 view .LVU1
  33 0000 70B4     		push	{r4, r5, r6}
  34              	.LCFI0:
  35              		.cfi_def_cfa_offset 12
  36              		.cfi_offset 4, -12
  37              		.cfi_offset 5, -8
  38              		.cfi_offset 6, -4
 863:Drivers/STM32F1xx_HAL_Driver/Src/stm32f1xx_hal_dma.c ****   /* Clear all flags */
 864:Drivers/STM32F1xx_HAL_Driver/Src/stm32f1xx_hal_dma.c ****   hdma->DmaBaseAddress->IFCR = (DMA_ISR_GIF1 << hdma->ChannelIndex);
  39              		.loc 1 864 3 is_stmt 1 view .LVU2
  40              		.loc 1 864 53 is_stmt 0 view .LVU3
  41 0002 066C     		ldr	r6, [r0, #64]
  42              		.loc 1 864 7 view .LVU4
  43 0004 C56B     		ldr	r5, [r0, #60]
  44              		.loc 1 864 46 view .LVU5
  45 0006 0124     		movs	r4, #1
  46 0008 B440     		lsls	r4, r4, r6
  47              		.loc 1 864 30 view .LVU6
  48 000a 6C60     		str	r4, [r5, #4]
 865:Drivers/STM32F1xx_HAL_Driver/Src/stm32f1xx_hal_dma.c **** 
ARM GAS  C:\Users\tianx\AppData\Local\Temp\ccOmbCCE.s 			page 17


 866:Drivers/STM32F1xx_HAL_Driver/Src/stm32f1xx_hal_dma.c ****   /* Configure DMA Channel data length */
 867:Drivers/STM32F1xx_HAL_Driver/Src/stm32f1xx_hal_dma.c ****   hdma->Instance->CNDTR = DataLength;
  49              		.loc 1 867 3 is_stmt 1 view .LVU7
  50              		.loc 1 867 7 is_stmt 0 view .LVU8
  51 000c 0468     		ldr	r4, [r0]
  52              		.loc 1 867 25 view .LVU9
  53 000e 6360     		str	r3, [r4, #4]
 868:Drivers/STM32F1xx_HAL_Driver/Src/stm32f1xx_hal_dma.c **** 
 869:Drivers/STM32F1xx_HAL_Driver/Src/stm32f1xx_hal_dma.c ****   /* Memory to Peripheral */
 870:Drivers/STM32F1xx_HAL_Driver/Src/stm32f1xx_hal_dma.c ****   if((hdma->Init.Direction) == DMA_MEMORY_TO_PERIPH)
  54              		.loc 1 870 3 is_stmt 1 view .LVU10
  55              		.loc 1 870 17 is_stmt 0 view .LVU11
  56 0010 4368     		ldr	r3, [r0, #4]
  57              	.LVL1:
  58              		.loc 1 870 5 view .LVU12
  59 0012 102B     		cmp	r3, #16
  60 0014 05D0     		beq	.L5
 871:Drivers/STM32F1xx_HAL_Driver/Src/stm32f1xx_hal_dma.c ****   {
 872:Drivers/STM32F1xx_HAL_Driver/Src/stm32f1xx_hal_dma.c ****     /* Configure DMA Channel destination address */
 873:Drivers/STM32F1xx_HAL_Driver/Src/stm32f1xx_hal_dma.c ****     hdma->Instance->CPAR = DstAddress;
 874:Drivers/STM32F1xx_HAL_Driver/Src/stm32f1xx_hal_dma.c **** 
 875:Drivers/STM32F1xx_HAL_Driver/Src/stm32f1xx_hal_dma.c ****     /* Configure DMA Channel source address */
 876:Drivers/STM32F1xx_HAL_Driver/Src/stm32f1xx_hal_dma.c ****     hdma->Instance->CMAR = SrcAddress;
 877:Drivers/STM32F1xx_HAL_Driver/Src/stm32f1xx_hal_dma.c ****   }
 878:Drivers/STM32F1xx_HAL_Driver/Src/stm32f1xx_hal_dma.c ****   /* Peripheral to Memory */
 879:Drivers/STM32F1xx_HAL_Driver/Src/stm32f1xx_hal_dma.c ****   else
 880:Drivers/STM32F1xx_HAL_Driver/Src/stm32f1xx_hal_dma.c ****   {
 881:Drivers/STM32F1xx_HAL_Driver/Src/stm32f1xx_hal_dma.c ****     /* Configure DMA Channel source address */
 882:Drivers/STM32F1xx_HAL_Driver/Src/stm32f1xx_hal_dma.c ****     hdma->Instance->CPAR = SrcAddress;
  61              		.loc 1 882 5 is_stmt 1 view .LVU13
  62              		.loc 1 882 9 is_stmt 0 view .LVU14
  63 0016 0368     		ldr	r3, [r0]
  64              		.loc 1 882 26 view .LVU15
  65 0018 9960     		str	r1, [r3, #8]
  66              	.LVL2:
 883:Drivers/STM32F1xx_HAL_Driver/Src/stm32f1xx_hal_dma.c **** 
 884:Drivers/STM32F1xx_HAL_Driver/Src/stm32f1xx_hal_dma.c ****     /* Configure DMA Channel destination address */
 885:Drivers/STM32F1xx_HAL_Driver/Src/stm32f1xx_hal_dma.c ****     hdma->Instance->CMAR = DstAddress;
  67              		.loc 1 885 5 is_stmt 1 view .LVU16
  68              		.loc 1 885 9 is_stmt 0 view .LVU17
  69 001a 0368     		ldr	r3, [r0]
  70              		.loc 1 885 26 view .LVU18
  71 001c DA60     		str	r2, [r3, #12]
  72              	.L1:
 886:Drivers/STM32F1xx_HAL_Driver/Src/stm32f1xx_hal_dma.c ****   }
 887:Drivers/STM32F1xx_HAL_Driver/Src/stm32f1xx_hal_dma.c **** }
  73              		.loc 1 887 1 view .LVU19
  74 001e 70BC     		pop	{r4, r5, r6}
  75              	.LCFI1:
  76              		.cfi_remember_state
  77              		.cfi_restore 6
  78              		.cfi_restore 5
  79              		.cfi_restore 4
  80              		.cfi_def_cfa_offset 0
  81 0020 7047     		bx	lr
  82              	.LVL3:
  83              	.L5:
ARM GAS  C:\Users\tianx\AppData\Local\Temp\ccOmbCCE.s 			page 18


  84              	.LCFI2:
  85              		.cfi_restore_state
 873:Drivers/STM32F1xx_HAL_Driver/Src/stm32f1xx_hal_dma.c **** 
  86              		.loc 1 873 5 is_stmt 1 view .LVU20
 873:Drivers/STM32F1xx_HAL_Driver/Src/stm32f1xx_hal_dma.c **** 
  87              		.loc 1 873 9 is_stmt 0 view .LVU21
  88 0022 0368     		ldr	r3, [r0]
 873:Drivers/STM32F1xx_HAL_Driver/Src/stm32f1xx_hal_dma.c **** 
  89              		.loc 1 873 26 view .LVU22
  90 0024 9A60     		str	r2, [r3, #8]
  91              	.LVL4:
 876:Drivers/STM32F1xx_HAL_Driver/Src/stm32f1xx_hal_dma.c ****   }
  92              		.loc 1 876 5 is_stmt 1 view .LVU23
 876:Drivers/STM32F1xx_HAL_Driver/Src/stm32f1xx_hal_dma.c ****   }
  93              		.loc 1 876 9 is_stmt 0 view .LVU24
  94 0026 0368     		ldr	r3, [r0]
 876:Drivers/STM32F1xx_HAL_Driver/Src/stm32f1xx_hal_dma.c ****   }
  95              		.loc 1 876 26 view .LVU25
  96 0028 D960     		str	r1, [r3, #12]
  97 002a F8E7     		b	.L1
  98              		.cfi_endproc
  99              	.LFE78:
 101              		.section	.text.HAL_DMA_Init,"ax",%progbits
 102              		.align	1
 103              		.global	HAL_DMA_Init
 104              		.syntax unified
 105              		.thumb
 106              		.thumb_func
 107              		.fpu softvfp
 109              	HAL_DMA_Init:
 110              	.LVL5:
 111              	.LFB66:
 160:Drivers/STM32F1xx_HAL_Driver/Src/stm32f1xx_hal_dma.c ****   uint32_t tmp = 0U;
 112              		.loc 1 160 1 is_stmt 1 view -0
 113              		.cfi_startproc
 114              		@ args = 0, pretend = 0, frame = 0
 115              		@ frame_needed = 0, uses_anonymous_args = 0
 116              		@ link register save eliminated.
 161:Drivers/STM32F1xx_HAL_Driver/Src/stm32f1xx_hal_dma.c **** 
 117              		.loc 1 161 3 view .LVU27
 164:Drivers/STM32F1xx_HAL_Driver/Src/stm32f1xx_hal_dma.c ****   {
 118              		.loc 1 164 3 view .LVU28
 164:Drivers/STM32F1xx_HAL_Driver/Src/stm32f1xx_hal_dma.c ****   {
 119              		.loc 1 164 5 is_stmt 0 view .LVU29
 120 0000 0028     		cmp	r0, #0
 121 0002 3AD0     		beq	.L10
 160:Drivers/STM32F1xx_HAL_Driver/Src/stm32f1xx_hal_dma.c ****   uint32_t tmp = 0U;
 122              		.loc 1 160 1 view .LVU30
 123 0004 10B4     		push	{r4}
 124              	.LCFI3:
 125              		.cfi_def_cfa_offset 4
 126              		.cfi_offset 4, -4
 127 0006 0246     		mov	r2, r0
 170:Drivers/STM32F1xx_HAL_Driver/Src/stm32f1xx_hal_dma.c ****   assert_param(IS_DMA_DIRECTION(hdma->Init.Direction));
 128              		.loc 1 170 3 is_stmt 1 view .LVU31
 171:Drivers/STM32F1xx_HAL_Driver/Src/stm32f1xx_hal_dma.c ****   assert_param(IS_DMA_PERIPHERAL_INC_STATE(hdma->Init.PeriphInc));
 129              		.loc 1 171 3 view .LVU32
ARM GAS  C:\Users\tianx\AppData\Local\Temp\ccOmbCCE.s 			page 19


 172:Drivers/STM32F1xx_HAL_Driver/Src/stm32f1xx_hal_dma.c ****   assert_param(IS_DMA_MEMORY_INC_STATE(hdma->Init.MemInc));
 130              		.loc 1 172 3 view .LVU33
 173:Drivers/STM32F1xx_HAL_Driver/Src/stm32f1xx_hal_dma.c ****   assert_param(IS_DMA_PERIPHERAL_DATA_SIZE(hdma->Init.PeriphDataAlignment));
 131              		.loc 1 173 3 view .LVU34
 174:Drivers/STM32F1xx_HAL_Driver/Src/stm32f1xx_hal_dma.c ****   assert_param(IS_DMA_MEMORY_DATA_SIZE(hdma->Init.MemDataAlignment));
 132              		.loc 1 174 3 view .LVU35
 175:Drivers/STM32F1xx_HAL_Driver/Src/stm32f1xx_hal_dma.c ****   assert_param(IS_DMA_MODE(hdma->Init.Mode));
 133              		.loc 1 175 3 view .LVU36
 176:Drivers/STM32F1xx_HAL_Driver/Src/stm32f1xx_hal_dma.c ****   assert_param(IS_DMA_PRIORITY(hdma->Init.Priority));
 134              		.loc 1 176 3 view .LVU37
 177:Drivers/STM32F1xx_HAL_Driver/Src/stm32f1xx_hal_dma.c **** 
 135              		.loc 1 177 3 view .LVU38
 181:Drivers/STM32F1xx_HAL_Driver/Src/stm32f1xx_hal_dma.c ****   {
 136              		.loc 1 181 3 view .LVU39
 181:Drivers/STM32F1xx_HAL_Driver/Src/stm32f1xx_hal_dma.c ****   {
 137              		.loc 1 181 22 is_stmt 0 view .LVU40
 138 0008 0068     		ldr	r0, [r0]
 139              	.LVL6:
 181:Drivers/STM32F1xx_HAL_Driver/Src/stm32f1xx_hal_dma.c ****   {
 140              		.loc 1 181 6 view .LVU41
 141 000a 1D4B     		ldr	r3, .L15
 142 000c 9842     		cmp	r0, r3
 143 000e 29D8     		bhi	.L8
 184:Drivers/STM32F1xx_HAL_Driver/Src/stm32f1xx_hal_dma.c ****     hdma->DmaBaseAddress = DMA1;
 144              		.loc 1 184 5 is_stmt 1 view .LVU42
 184:Drivers/STM32F1xx_HAL_Driver/Src/stm32f1xx_hal_dma.c ****     hdma->DmaBaseAddress = DMA1;
 145              		.loc 1 184 53 is_stmt 0 view .LVU43
 146 0010 1C4B     		ldr	r3, .L15+4
 147 0012 0344     		add	r3, r3, r0
 184:Drivers/STM32F1xx_HAL_Driver/Src/stm32f1xx_hal_dma.c ****     hdma->DmaBaseAddress = DMA1;
 148              		.loc 1 184 80 view .LVU44
 149 0014 1C49     		ldr	r1, .L15+8
 150 0016 A1FB0313 		umull	r1, r3, r1, r3
 151 001a 1B09     		lsrs	r3, r3, #4
 184:Drivers/STM32F1xx_HAL_Driver/Src/stm32f1xx_hal_dma.c ****     hdma->DmaBaseAddress = DMA1;
 152              		.loc 1 184 135 view .LVU45
 153 001c 9B00     		lsls	r3, r3, #2
 184:Drivers/STM32F1xx_HAL_Driver/Src/stm32f1xx_hal_dma.c ****     hdma->DmaBaseAddress = DMA1;
 154              		.loc 1 184 24 view .LVU46
 155 001e 1364     		str	r3, [r2, #64]
 185:Drivers/STM32F1xx_HAL_Driver/Src/stm32f1xx_hal_dma.c ****   }
 156              		.loc 1 185 5 is_stmt 1 view .LVU47
 185:Drivers/STM32F1xx_HAL_Driver/Src/stm32f1xx_hal_dma.c ****   }
 157              		.loc 1 185 26 is_stmt 0 view .LVU48
 158 0020 1A4B     		ldr	r3, .L15+12
 159 0022 D363     		str	r3, [r2, #60]
 160              	.L9:
 200:Drivers/STM32F1xx_HAL_Driver/Src/stm32f1xx_hal_dma.c **** 
 161              		.loc 1 200 3 is_stmt 1 view .LVU49
 200:Drivers/STM32F1xx_HAL_Driver/Src/stm32f1xx_hal_dma.c **** 
 162              		.loc 1 200 15 is_stmt 0 view .LVU50
 163 0024 0223     		movs	r3, #2
 164 0026 82F82130 		strb	r3, [r2, #33]
 203:Drivers/STM32F1xx_HAL_Driver/Src/stm32f1xx_hal_dma.c **** 
 165              		.loc 1 203 3 is_stmt 1 view .LVU51
 203:Drivers/STM32F1xx_HAL_Driver/Src/stm32f1xx_hal_dma.c **** 
 166              		.loc 1 203 7 is_stmt 0 view .LVU52
ARM GAS  C:\Users\tianx\AppData\Local\Temp\ccOmbCCE.s 			page 20


 167 002a 0168     		ldr	r1, [r0]
 168              	.LVL7:
 206:Drivers/STM32F1xx_HAL_Driver/Src/stm32f1xx_hal_dma.c ****                       DMA_CCR_MINC  | DMA_CCR_PINC   | DMA_CCR_CIRC   | \
 169              		.loc 1 206 3 is_stmt 1 view .LVU53
 206:Drivers/STM32F1xx_HAL_Driver/Src/stm32f1xx_hal_dma.c ****                       DMA_CCR_MINC  | DMA_CCR_PINC   | DMA_CCR_CIRC   | \
 170              		.loc 1 206 7 is_stmt 0 view .LVU54
 171 002c 21F47F51 		bic	r1, r1, #16320
 172              	.LVL8:
 206:Drivers/STM32F1xx_HAL_Driver/Src/stm32f1xx_hal_dma.c ****                       DMA_CCR_MINC  | DMA_CCR_PINC   | DMA_CCR_CIRC   | \
 173              		.loc 1 206 7 view .LVU55
 174 0030 21F03001 		bic	r1, r1, #48
 175              	.LVL9:
 211:Drivers/STM32F1xx_HAL_Driver/Src/stm32f1xx_hal_dma.c ****           hdma->Init.PeriphInc           | hdma->Init.MemInc           |
 176              		.loc 1 211 3 is_stmt 1 view .LVU56
 211:Drivers/STM32F1xx_HAL_Driver/Src/stm32f1xx_hal_dma.c ****           hdma->Init.PeriphInc           | hdma->Init.MemInc           |
 177              		.loc 1 211 21 is_stmt 0 view .LVU57
 178 0034 5368     		ldr	r3, [r2, #4]
 212:Drivers/STM32F1xx_HAL_Driver/Src/stm32f1xx_hal_dma.c ****           hdma->Init.PeriphDataAlignment | hdma->Init.MemDataAlignment |
 179              		.loc 1 212 21 view .LVU58
 180 0036 9468     		ldr	r4, [r2, #8]
 211:Drivers/STM32F1xx_HAL_Driver/Src/stm32f1xx_hal_dma.c ****           hdma->Init.PeriphInc           | hdma->Init.MemInc           |
 181              		.loc 1 211 39 view .LVU59
 182 0038 2343     		orrs	r3, r3, r4
 212:Drivers/STM32F1xx_HAL_Driver/Src/stm32f1xx_hal_dma.c ****           hdma->Init.PeriphDataAlignment | hdma->Init.MemDataAlignment |
 183              		.loc 1 212 54 view .LVU60
 184 003a D468     		ldr	r4, [r2, #12]
 212:Drivers/STM32F1xx_HAL_Driver/Src/stm32f1xx_hal_dma.c ****           hdma->Init.PeriphDataAlignment | hdma->Init.MemDataAlignment |
 185              		.loc 1 212 42 view .LVU61
 186 003c 2343     		orrs	r3, r3, r4
 213:Drivers/STM32F1xx_HAL_Driver/Src/stm32f1xx_hal_dma.c ****           hdma->Init.Mode                | hdma->Init.Priority;
 187              		.loc 1 213 21 view .LVU62
 188 003e 1469     		ldr	r4, [r2, #16]
 212:Drivers/STM32F1xx_HAL_Driver/Src/stm32f1xx_hal_dma.c ****           hdma->Init.PeriphDataAlignment | hdma->Init.MemDataAlignment |
 189              		.loc 1 212 72 view .LVU63
 190 0040 2343     		orrs	r3, r3, r4
 213:Drivers/STM32F1xx_HAL_Driver/Src/stm32f1xx_hal_dma.c ****           hdma->Init.Mode                | hdma->Init.Priority;
 191              		.loc 1 213 54 view .LVU64
 192 0042 5469     		ldr	r4, [r2, #20]
 213:Drivers/STM32F1xx_HAL_Driver/Src/stm32f1xx_hal_dma.c ****           hdma->Init.Mode                | hdma->Init.Priority;
 193              		.loc 1 213 42 view .LVU65
 194 0044 2343     		orrs	r3, r3, r4
 214:Drivers/STM32F1xx_HAL_Driver/Src/stm32f1xx_hal_dma.c **** 
 195              		.loc 1 214 21 view .LVU66
 196 0046 9469     		ldr	r4, [r2, #24]
 213:Drivers/STM32F1xx_HAL_Driver/Src/stm32f1xx_hal_dma.c ****           hdma->Init.Mode                | hdma->Init.Priority;
 197              		.loc 1 213 72 view .LVU67
 198 0048 2343     		orrs	r3, r3, r4
 214:Drivers/STM32F1xx_HAL_Driver/Src/stm32f1xx_hal_dma.c **** 
 199              		.loc 1 214 54 view .LVU68
 200 004a D469     		ldr	r4, [r2, #28]
 214:Drivers/STM32F1xx_HAL_Driver/Src/stm32f1xx_hal_dma.c **** 
 201              		.loc 1 214 42 view .LVU69
 202 004c 2343     		orrs	r3, r3, r4
 211:Drivers/STM32F1xx_HAL_Driver/Src/stm32f1xx_hal_dma.c ****           hdma->Init.PeriphInc           | hdma->Init.MemInc           |
 203              		.loc 1 211 7 view .LVU70
 204 004e 0B43     		orrs	r3, r3, r1
 205              	.LVL10:
ARM GAS  C:\Users\tianx\AppData\Local\Temp\ccOmbCCE.s 			page 21


 217:Drivers/STM32F1xx_HAL_Driver/Src/stm32f1xx_hal_dma.c **** 
 206              		.loc 1 217 3 is_stmt 1 view .LVU71
 217:Drivers/STM32F1xx_HAL_Driver/Src/stm32f1xx_hal_dma.c **** 
 207              		.loc 1 217 23 is_stmt 0 view .LVU72
 208 0050 0360     		str	r3, [r0]
 220:Drivers/STM32F1xx_HAL_Driver/Src/stm32f1xx_hal_dma.c **** 
 209              		.loc 1 220 3 is_stmt 1 view .LVU73
 220:Drivers/STM32F1xx_HAL_Driver/Src/stm32f1xx_hal_dma.c **** 
 210              		.loc 1 220 19 is_stmt 0 view .LVU74
 211 0052 0020     		movs	r0, #0
 212 0054 9063     		str	r0, [r2, #56]
 223:Drivers/STM32F1xx_HAL_Driver/Src/stm32f1xx_hal_dma.c ****   /* Allocate lock resource and initialize it */
 213              		.loc 1 223 3 is_stmt 1 view .LVU75
 223:Drivers/STM32F1xx_HAL_Driver/Src/stm32f1xx_hal_dma.c ****   /* Allocate lock resource and initialize it */
 214              		.loc 1 223 15 is_stmt 0 view .LVU76
 215 0056 0123     		movs	r3, #1
 216              	.LVL11:
 223:Drivers/STM32F1xx_HAL_Driver/Src/stm32f1xx_hal_dma.c ****   /* Allocate lock resource and initialize it */
 217              		.loc 1 223 15 view .LVU77
 218 0058 82F82130 		strb	r3, [r2, #33]
 225:Drivers/STM32F1xx_HAL_Driver/Src/stm32f1xx_hal_dma.c **** 
 219              		.loc 1 225 3 is_stmt 1 view .LVU78
 225:Drivers/STM32F1xx_HAL_Driver/Src/stm32f1xx_hal_dma.c **** 
 220              		.loc 1 225 14 is_stmt 0 view .LVU79
 221 005c 82F82000 		strb	r0, [r2, #32]
 227:Drivers/STM32F1xx_HAL_Driver/Src/stm32f1xx_hal_dma.c **** }
 222              		.loc 1 227 3 is_stmt 1 view .LVU80
 228:Drivers/STM32F1xx_HAL_Driver/Src/stm32f1xx_hal_dma.c **** 
 223              		.loc 1 228 1 is_stmt 0 view .LVU81
 224 0060 10BC     		pop	{r4}
 225              	.LCFI4:
 226              		.cfi_remember_state
 227              		.cfi_restore 4
 228              		.cfi_def_cfa_offset 0
 229 0062 7047     		bx	lr
 230              	.LVL12:
 231              	.L8:
 232              	.LCFI5:
 233              		.cfi_restore_state
 190:Drivers/STM32F1xx_HAL_Driver/Src/stm32f1xx_hal_dma.c ****     hdma->DmaBaseAddress = DMA2;
 234              		.loc 1 190 5 is_stmt 1 view .LVU82
 190:Drivers/STM32F1xx_HAL_Driver/Src/stm32f1xx_hal_dma.c ****     hdma->DmaBaseAddress = DMA2;
 235              		.loc 1 190 53 is_stmt 0 view .LVU83
 236 0064 0A4B     		ldr	r3, .L15+16
 237 0066 0344     		add	r3, r3, r0
 190:Drivers/STM32F1xx_HAL_Driver/Src/stm32f1xx_hal_dma.c ****     hdma->DmaBaseAddress = DMA2;
 238              		.loc 1 190 80 view .LVU84
 239 0068 0749     		ldr	r1, .L15+8
 240 006a A1FB0313 		umull	r1, r3, r1, r3
 241 006e 1B09     		lsrs	r3, r3, #4
 190:Drivers/STM32F1xx_HAL_Driver/Src/stm32f1xx_hal_dma.c ****     hdma->DmaBaseAddress = DMA2;
 242              		.loc 1 190 135 view .LVU85
 243 0070 9B00     		lsls	r3, r3, #2
 190:Drivers/STM32F1xx_HAL_Driver/Src/stm32f1xx_hal_dma.c ****     hdma->DmaBaseAddress = DMA2;
 244              		.loc 1 190 24 view .LVU86
 245 0072 1364     		str	r3, [r2, #64]
 191:Drivers/STM32F1xx_HAL_Driver/Src/stm32f1xx_hal_dma.c ****   }
ARM GAS  C:\Users\tianx\AppData\Local\Temp\ccOmbCCE.s 			page 22


 246              		.loc 1 191 5 is_stmt 1 view .LVU87
 191:Drivers/STM32F1xx_HAL_Driver/Src/stm32f1xx_hal_dma.c ****   }
 247              		.loc 1 191 26 is_stmt 0 view .LVU88
 248 0074 074B     		ldr	r3, .L15+20
 249 0076 D363     		str	r3, [r2, #60]
 250 0078 D4E7     		b	.L9
 251              	.LVL13:
 252              	.L10:
 253              	.LCFI6:
 254              		.cfi_def_cfa_offset 0
 255              		.cfi_restore 4
 166:Drivers/STM32F1xx_HAL_Driver/Src/stm32f1xx_hal_dma.c ****   }
 256              		.loc 1 166 12 view .LVU89
 257 007a 0120     		movs	r0, #1
 258              	.LVL14:
 228:Drivers/STM32F1xx_HAL_Driver/Src/stm32f1xx_hal_dma.c **** 
 259              		.loc 1 228 1 view .LVU90
 260 007c 7047     		bx	lr
 261              	.L16:
 262 007e 00BF     		.align	2
 263              	.L15:
 264 0080 07040240 		.word	1073873927
 265 0084 F8FFFDBF 		.word	-1073872904
 266 0088 CDCCCCCC 		.word	-858993459
 267 008c 00000240 		.word	1073872896
 268 0090 F8FBFDBF 		.word	-1073873928
 269 0094 00040240 		.word	1073873920
 270              		.cfi_endproc
 271              	.LFE66:
 273              		.section	.text.HAL_DMA_DeInit,"ax",%progbits
 274              		.align	1
 275              		.global	HAL_DMA_DeInit
 276              		.syntax unified
 277              		.thumb
 278              		.thumb_func
 279              		.fpu softvfp
 281              	HAL_DMA_DeInit:
 282              	.LVL15:
 283              	.LFB67:
 237:Drivers/STM32F1xx_HAL_Driver/Src/stm32f1xx_hal_dma.c ****   /* Check the DMA handle allocation */
 284              		.loc 1 237 1 is_stmt 1 view -0
 285              		.cfi_startproc
 286              		@ args = 0, pretend = 0, frame = 0
 287              		@ frame_needed = 0, uses_anonymous_args = 0
 288              		@ link register save eliminated.
 239:Drivers/STM32F1xx_HAL_Driver/Src/stm32f1xx_hal_dma.c ****   {
 289              		.loc 1 239 3 view .LVU92
 239:Drivers/STM32F1xx_HAL_Driver/Src/stm32f1xx_hal_dma.c ****   {
 290              		.loc 1 239 5 is_stmt 0 view .LVU93
 291 0000 0346     		mov	r3, r0
 292 0002 0028     		cmp	r0, #0
 293 0004 36D0     		beq	.L21
 245:Drivers/STM32F1xx_HAL_Driver/Src/stm32f1xx_hal_dma.c **** 
 294              		.loc 1 245 3 is_stmt 1 view .LVU94
 248:Drivers/STM32F1xx_HAL_Driver/Src/stm32f1xx_hal_dma.c **** 
 295              		.loc 1 248 3 view .LVU95
 296 0006 0168     		ldr	r1, [r0]
ARM GAS  C:\Users\tianx\AppData\Local\Temp\ccOmbCCE.s 			page 23


 297 0008 0A68     		ldr	r2, [r1]
 298 000a 22F00102 		bic	r2, r2, #1
 299 000e 0A60     		str	r2, [r1]
 251:Drivers/STM32F1xx_HAL_Driver/Src/stm32f1xx_hal_dma.c **** 
 300              		.loc 1 251 3 view .LVU96
 251:Drivers/STM32F1xx_HAL_Driver/Src/stm32f1xx_hal_dma.c **** 
 301              		.loc 1 251 7 is_stmt 0 view .LVU97
 302 0010 0168     		ldr	r1, [r0]
 251:Drivers/STM32F1xx_HAL_Driver/Src/stm32f1xx_hal_dma.c **** 
 303              		.loc 1 251 24 view .LVU98
 304 0012 0022     		movs	r2, #0
 305 0014 0A60     		str	r2, [r1]
 254:Drivers/STM32F1xx_HAL_Driver/Src/stm32f1xx_hal_dma.c **** 
 306              		.loc 1 254 3 is_stmt 1 view .LVU99
 254:Drivers/STM32F1xx_HAL_Driver/Src/stm32f1xx_hal_dma.c **** 
 307              		.loc 1 254 7 is_stmt 0 view .LVU100
 308 0016 0168     		ldr	r1, [r0]
 254:Drivers/STM32F1xx_HAL_Driver/Src/stm32f1xx_hal_dma.c **** 
 309              		.loc 1 254 25 view .LVU101
 310 0018 4A60     		str	r2, [r1, #4]
 257:Drivers/STM32F1xx_HAL_Driver/Src/stm32f1xx_hal_dma.c **** 
 311              		.loc 1 257 3 is_stmt 1 view .LVU102
 257:Drivers/STM32F1xx_HAL_Driver/Src/stm32f1xx_hal_dma.c **** 
 312              		.loc 1 257 7 is_stmt 0 view .LVU103
 313 001a 0168     		ldr	r1, [r0]
 257:Drivers/STM32F1xx_HAL_Driver/Src/stm32f1xx_hal_dma.c **** 
 314              		.loc 1 257 25 view .LVU104
 315 001c 8A60     		str	r2, [r1, #8]
 260:Drivers/STM32F1xx_HAL_Driver/Src/stm32f1xx_hal_dma.c **** 
 316              		.loc 1 260 3 is_stmt 1 view .LVU105
 260:Drivers/STM32F1xx_HAL_Driver/Src/stm32f1xx_hal_dma.c **** 
 317              		.loc 1 260 7 is_stmt 0 view .LVU106
 318 001e 0168     		ldr	r1, [r0]
 260:Drivers/STM32F1xx_HAL_Driver/Src/stm32f1xx_hal_dma.c **** 
 319              		.loc 1 260 24 view .LVU107
 320 0020 CA60     		str	r2, [r1, #12]
 264:Drivers/STM32F1xx_HAL_Driver/Src/stm32f1xx_hal_dma.c ****   {
 321              		.loc 1 264 3 is_stmt 1 view .LVU108
 264:Drivers/STM32F1xx_HAL_Driver/Src/stm32f1xx_hal_dma.c ****   {
 322              		.loc 1 264 22 is_stmt 0 view .LVU109
 323 0022 0168     		ldr	r1, [r0]
 264:Drivers/STM32F1xx_HAL_Driver/Src/stm32f1xx_hal_dma.c ****   {
 324              		.loc 1 264 6 view .LVU110
 325 0024 144A     		ldr	r2, .L22
 326 0026 9142     		cmp	r1, r2
 327 0028 19D8     		bhi	.L19
 267:Drivers/STM32F1xx_HAL_Driver/Src/stm32f1xx_hal_dma.c ****     hdma->DmaBaseAddress = DMA1;
 328              		.loc 1 267 5 is_stmt 1 view .LVU111
 267:Drivers/STM32F1xx_HAL_Driver/Src/stm32f1xx_hal_dma.c ****     hdma->DmaBaseAddress = DMA1;
 329              		.loc 1 267 53 is_stmt 0 view .LVU112
 330 002a 144A     		ldr	r2, .L22+4
 331 002c 0A44     		add	r2, r2, r1
 267:Drivers/STM32F1xx_HAL_Driver/Src/stm32f1xx_hal_dma.c ****     hdma->DmaBaseAddress = DMA1;
 332              		.loc 1 267 80 view .LVU113
 333 002e 1449     		ldr	r1, .L22+8
 334 0030 A1FB0212 		umull	r1, r2, r1, r2
 335 0034 1209     		lsrs	r2, r2, #4
ARM GAS  C:\Users\tianx\AppData\Local\Temp\ccOmbCCE.s 			page 24


 267:Drivers/STM32F1xx_HAL_Driver/Src/stm32f1xx_hal_dma.c ****     hdma->DmaBaseAddress = DMA1;
 336              		.loc 1 267 135 view .LVU114
 337 0036 9200     		lsls	r2, r2, #2
 267:Drivers/STM32F1xx_HAL_Driver/Src/stm32f1xx_hal_dma.c ****     hdma->DmaBaseAddress = DMA1;
 338              		.loc 1 267 24 view .LVU115
 339 0038 0264     		str	r2, [r0, #64]
 268:Drivers/STM32F1xx_HAL_Driver/Src/stm32f1xx_hal_dma.c ****   }
 340              		.loc 1 268 5 is_stmt 1 view .LVU116
 268:Drivers/STM32F1xx_HAL_Driver/Src/stm32f1xx_hal_dma.c ****   }
 341              		.loc 1 268 26 is_stmt 0 view .LVU117
 342 003a 124A     		ldr	r2, .L22+12
 343 003c C263     		str	r2, [r0, #60]
 344              	.L20:
 283:Drivers/STM32F1xx_HAL_Driver/Src/stm32f1xx_hal_dma.c **** 
 345              		.loc 1 283 3 is_stmt 1 view .LVU118
 283:Drivers/STM32F1xx_HAL_Driver/Src/stm32f1xx_hal_dma.c **** 
 346              		.loc 1 283 54 is_stmt 0 view .LVU119
 347 003e 186C     		ldr	r0, [r3, #64]
 348              	.LVL16:
 283:Drivers/STM32F1xx_HAL_Driver/Src/stm32f1xx_hal_dma.c **** 
 349              		.loc 1 283 7 view .LVU120
 350 0040 D96B     		ldr	r1, [r3, #60]
 283:Drivers/STM32F1xx_HAL_Driver/Src/stm32f1xx_hal_dma.c **** 
 351              		.loc 1 283 46 view .LVU121
 352 0042 0122     		movs	r2, #1
 353 0044 8240     		lsls	r2, r2, r0
 283:Drivers/STM32F1xx_HAL_Driver/Src/stm32f1xx_hal_dma.c **** 
 354              		.loc 1 283 30 view .LVU122
 355 0046 4A60     		str	r2, [r1, #4]
 286:Drivers/STM32F1xx_HAL_Driver/Src/stm32f1xx_hal_dma.c ****   hdma->XferHalfCpltCallback = NULL;
 356              		.loc 1 286 3 is_stmt 1 view .LVU123
 286:Drivers/STM32F1xx_HAL_Driver/Src/stm32f1xx_hal_dma.c ****   hdma->XferHalfCpltCallback = NULL;
 357              		.loc 1 286 26 is_stmt 0 view .LVU124
 358 0048 0020     		movs	r0, #0
 359 004a 9862     		str	r0, [r3, #40]
 287:Drivers/STM32F1xx_HAL_Driver/Src/stm32f1xx_hal_dma.c ****   hdma->XferErrorCallback = NULL;
 360              		.loc 1 287 3 is_stmt 1 view .LVU125
 287:Drivers/STM32F1xx_HAL_Driver/Src/stm32f1xx_hal_dma.c ****   hdma->XferErrorCallback = NULL;
 361              		.loc 1 287 30 is_stmt 0 view .LVU126
 362 004c D862     		str	r0, [r3, #44]
 288:Drivers/STM32F1xx_HAL_Driver/Src/stm32f1xx_hal_dma.c ****   hdma->XferAbortCallback = NULL;
 363              		.loc 1 288 3 is_stmt 1 view .LVU127
 288:Drivers/STM32F1xx_HAL_Driver/Src/stm32f1xx_hal_dma.c ****   hdma->XferAbortCallback = NULL;
 364              		.loc 1 288 27 is_stmt 0 view .LVU128
 365 004e 1863     		str	r0, [r3, #48]
 289:Drivers/STM32F1xx_HAL_Driver/Src/stm32f1xx_hal_dma.c **** 
 366              		.loc 1 289 3 is_stmt 1 view .LVU129
 289:Drivers/STM32F1xx_HAL_Driver/Src/stm32f1xx_hal_dma.c **** 
 367              		.loc 1 289 27 is_stmt 0 view .LVU130
 368 0050 5863     		str	r0, [r3, #52]
 292:Drivers/STM32F1xx_HAL_Driver/Src/stm32f1xx_hal_dma.c **** 
 369              		.loc 1 292 3 is_stmt 1 view .LVU131
 292:Drivers/STM32F1xx_HAL_Driver/Src/stm32f1xx_hal_dma.c **** 
 370              		.loc 1 292 19 is_stmt 0 view .LVU132
 371 0052 9863     		str	r0, [r3, #56]
 295:Drivers/STM32F1xx_HAL_Driver/Src/stm32f1xx_hal_dma.c **** 
 372              		.loc 1 295 3 is_stmt 1 view .LVU133
ARM GAS  C:\Users\tianx\AppData\Local\Temp\ccOmbCCE.s 			page 25


 295:Drivers/STM32F1xx_HAL_Driver/Src/stm32f1xx_hal_dma.c **** 
 373              		.loc 1 295 15 is_stmt 0 view .LVU134
 374 0054 83F82100 		strb	r0, [r3, #33]
 298:Drivers/STM32F1xx_HAL_Driver/Src/stm32f1xx_hal_dma.c **** 
 375              		.loc 1 298 3 is_stmt 1 view .LVU135
 298:Drivers/STM32F1xx_HAL_Driver/Src/stm32f1xx_hal_dma.c **** 
 376              		.loc 1 298 3 view .LVU136
 377 0058 83F82000 		strb	r0, [r3, #32]
 300:Drivers/STM32F1xx_HAL_Driver/Src/stm32f1xx_hal_dma.c **** }
 378              		.loc 1 300 3 view .LVU137
 300:Drivers/STM32F1xx_HAL_Driver/Src/stm32f1xx_hal_dma.c **** }
 379              		.loc 1 300 10 is_stmt 0 view .LVU138
 380 005c 7047     		bx	lr
 381              	.LVL17:
 382              	.L19:
 273:Drivers/STM32F1xx_HAL_Driver/Src/stm32f1xx_hal_dma.c ****     hdma->DmaBaseAddress = DMA2;
 383              		.loc 1 273 5 is_stmt 1 view .LVU139
 273:Drivers/STM32F1xx_HAL_Driver/Src/stm32f1xx_hal_dma.c ****     hdma->DmaBaseAddress = DMA2;
 384              		.loc 1 273 53 is_stmt 0 view .LVU140
 385 005e 0A4A     		ldr	r2, .L22+16
 386 0060 0A44     		add	r2, r2, r1
 273:Drivers/STM32F1xx_HAL_Driver/Src/stm32f1xx_hal_dma.c ****     hdma->DmaBaseAddress = DMA2;
 387              		.loc 1 273 80 view .LVU141
 388 0062 0749     		ldr	r1, .L22+8
 389 0064 A1FB0212 		umull	r1, r2, r1, r2
 390 0068 1209     		lsrs	r2, r2, #4
 273:Drivers/STM32F1xx_HAL_Driver/Src/stm32f1xx_hal_dma.c ****     hdma->DmaBaseAddress = DMA2;
 391              		.loc 1 273 135 view .LVU142
 392 006a 9200     		lsls	r2, r2, #2
 273:Drivers/STM32F1xx_HAL_Driver/Src/stm32f1xx_hal_dma.c ****     hdma->DmaBaseAddress = DMA2;
 393              		.loc 1 273 24 view .LVU143
 394 006c 0264     		str	r2, [r0, #64]
 274:Drivers/STM32F1xx_HAL_Driver/Src/stm32f1xx_hal_dma.c ****   }
 395              		.loc 1 274 5 is_stmt 1 view .LVU144
 274:Drivers/STM32F1xx_HAL_Driver/Src/stm32f1xx_hal_dma.c ****   }
 396              		.loc 1 274 26 is_stmt 0 view .LVU145
 397 006e 074A     		ldr	r2, .L22+20
 398 0070 C263     		str	r2, [r0, #60]
 399 0072 E4E7     		b	.L20
 400              	.L21:
 241:Drivers/STM32F1xx_HAL_Driver/Src/stm32f1xx_hal_dma.c ****   }
 401              		.loc 1 241 12 view .LVU146
 402 0074 0120     		movs	r0, #1
 403              	.LVL18:
 301:Drivers/STM32F1xx_HAL_Driver/Src/stm32f1xx_hal_dma.c **** 
 404              		.loc 1 301 1 view .LVU147
 405 0076 7047     		bx	lr
 406              	.L23:
 407              		.align	2
 408              	.L22:
 409 0078 07040240 		.word	1073873927
 410 007c F8FFFDBF 		.word	-1073872904
 411 0080 CDCCCCCC 		.word	-858993459
 412 0084 00000240 		.word	1073872896
 413 0088 F8FBFDBF 		.word	-1073873928
 414 008c 00040240 		.word	1073873920
 415              		.cfi_endproc
ARM GAS  C:\Users\tianx\AppData\Local\Temp\ccOmbCCE.s 			page 26


 416              	.LFE67:
 418              		.section	.text.HAL_DMA_Start,"ax",%progbits
 419              		.align	1
 420              		.global	HAL_DMA_Start
 421              		.syntax unified
 422              		.thumb
 423              		.thumb_func
 424              		.fpu softvfp
 426              	HAL_DMA_Start:
 427              	.LVL19:
 428              	.LFB68:
 336:Drivers/STM32F1xx_HAL_Driver/Src/stm32f1xx_hal_dma.c ****   HAL_StatusTypeDef status = HAL_OK;
 429              		.loc 1 336 1 is_stmt 1 view -0
 430              		.cfi_startproc
 431              		@ args = 0, pretend = 0, frame = 0
 432              		@ frame_needed = 0, uses_anonymous_args = 0
 336:Drivers/STM32F1xx_HAL_Driver/Src/stm32f1xx_hal_dma.c ****   HAL_StatusTypeDef status = HAL_OK;
 433              		.loc 1 336 1 is_stmt 0 view .LVU149
 434 0000 70B5     		push	{r4, r5, r6, lr}
 435              	.LCFI7:
 436              		.cfi_def_cfa_offset 16
 437              		.cfi_offset 4, -16
 438              		.cfi_offset 5, -12
 439              		.cfi_offset 6, -8
 440              		.cfi_offset 14, -4
 337:Drivers/STM32F1xx_HAL_Driver/Src/stm32f1xx_hal_dma.c **** 
 441              		.loc 1 337 3 is_stmt 1 view .LVU150
 442              	.LVL20:
 340:Drivers/STM32F1xx_HAL_Driver/Src/stm32f1xx_hal_dma.c **** 
 443              		.loc 1 340 3 view .LVU151
 343:Drivers/STM32F1xx_HAL_Driver/Src/stm32f1xx_hal_dma.c **** 
 444              		.loc 1 343 3 view .LVU152
 343:Drivers/STM32F1xx_HAL_Driver/Src/stm32f1xx_hal_dma.c **** 
 445              		.loc 1 343 3 view .LVU153
 446 0002 90F82040 		ldrb	r4, [r0, #32]	@ zero_extendqisi2
 447 0006 012C     		cmp	r4, #1
 448 0008 20D0     		beq	.L27
 343:Drivers/STM32F1xx_HAL_Driver/Src/stm32f1xx_hal_dma.c **** 
 449              		.loc 1 343 3 discriminator 2 view .LVU154
 450 000a 0124     		movs	r4, #1
 451 000c 80F82040 		strb	r4, [r0, #32]
 345:Drivers/STM32F1xx_HAL_Driver/Src/stm32f1xx_hal_dma.c ****   {
 452              		.loc 1 345 3 discriminator 2 view .LVU155
 345:Drivers/STM32F1xx_HAL_Driver/Src/stm32f1xx_hal_dma.c ****   {
 453              		.loc 1 345 33 is_stmt 0 discriminator 2 view .LVU156
 454 0010 90F82140 		ldrb	r4, [r0, #33]	@ zero_extendqisi2
 345:Drivers/STM32F1xx_HAL_Driver/Src/stm32f1xx_hal_dma.c ****   {
 455              		.loc 1 345 5 discriminator 2 view .LVU157
 456 0014 012C     		cmp	r4, #1
 457 0016 04D0     		beq	.L29
 363:Drivers/STM32F1xx_HAL_Driver/Src/stm32f1xx_hal_dma.c ****    status = HAL_BUSY;
 458              		.loc 1 363 4 is_stmt 1 view .LVU158
 363:Drivers/STM32F1xx_HAL_Driver/Src/stm32f1xx_hal_dma.c ****    status = HAL_BUSY;
 459              		.loc 1 363 4 view .LVU159
 460 0018 0023     		movs	r3, #0
 461              	.LVL21:
 363:Drivers/STM32F1xx_HAL_Driver/Src/stm32f1xx_hal_dma.c ****    status = HAL_BUSY;
ARM GAS  C:\Users\tianx\AppData\Local\Temp\ccOmbCCE.s 			page 27


 462              		.loc 1 363 4 is_stmt 0 view .LVU160
 463 001a 80F82030 		strb	r3, [r0, #32]
 364:Drivers/STM32F1xx_HAL_Driver/Src/stm32f1xx_hal_dma.c ****   }  
 464              		.loc 1 364 4 is_stmt 1 view .LVU161
 465              	.LVL22:
 364:Drivers/STM32F1xx_HAL_Driver/Src/stm32f1xx_hal_dma.c ****   }  
 466              		.loc 1 364 11 is_stmt 0 view .LVU162
 467 001e 0220     		movs	r0, #2
 468              	.LVL23:
 469              	.L25:
 367:Drivers/STM32F1xx_HAL_Driver/Src/stm32f1xx_hal_dma.c **** 
 470              		.loc 1 367 1 view .LVU163
 471 0020 70BD     		pop	{r4, r5, r6, pc}
 472              	.LVL24:
 473              	.L29:
 367:Drivers/STM32F1xx_HAL_Driver/Src/stm32f1xx_hal_dma.c **** 
 474              		.loc 1 367 1 view .LVU164
 475 0022 0446     		mov	r4, r0
 348:Drivers/STM32F1xx_HAL_Driver/Src/stm32f1xx_hal_dma.c ****     hdma->ErrorCode = HAL_DMA_ERROR_NONE;
 476              		.loc 1 348 5 is_stmt 1 view .LVU165
 348:Drivers/STM32F1xx_HAL_Driver/Src/stm32f1xx_hal_dma.c ****     hdma->ErrorCode = HAL_DMA_ERROR_NONE;
 477              		.loc 1 348 17 is_stmt 0 view .LVU166
 478 0024 0220     		movs	r0, #2
 479              	.LVL25:
 348:Drivers/STM32F1xx_HAL_Driver/Src/stm32f1xx_hal_dma.c ****     hdma->ErrorCode = HAL_DMA_ERROR_NONE;
 480              		.loc 1 348 17 view .LVU167
 481 0026 84F82100 		strb	r0, [r4, #33]
 349:Drivers/STM32F1xx_HAL_Driver/Src/stm32f1xx_hal_dma.c ****             
 482              		.loc 1 349 5 is_stmt 1 view .LVU168
 349:Drivers/STM32F1xx_HAL_Driver/Src/stm32f1xx_hal_dma.c ****             
 483              		.loc 1 349 21 is_stmt 0 view .LVU169
 484 002a 0025     		movs	r5, #0
 485 002c A563     		str	r5, [r4, #56]
 352:Drivers/STM32F1xx_HAL_Driver/Src/stm32f1xx_hal_dma.c ****     
 486              		.loc 1 352 5 is_stmt 1 view .LVU170
 487 002e 2668     		ldr	r6, [r4]
 488 0030 3068     		ldr	r0, [r6]
 489 0032 20F00100 		bic	r0, r0, #1
 490 0036 3060     		str	r0, [r6]
 355:Drivers/STM32F1xx_HAL_Driver/Src/stm32f1xx_hal_dma.c ****     
 491              		.loc 1 355 5 view .LVU171
 492 0038 2046     		mov	r0, r4
 493 003a FFF7FEFF 		bl	DMA_SetConfig
 494              	.LVL26:
 358:Drivers/STM32F1xx_HAL_Driver/Src/stm32f1xx_hal_dma.c ****   }
 495              		.loc 1 358 5 view .LVU172
 496 003e 2268     		ldr	r2, [r4]
 497 0040 1368     		ldr	r3, [r2]
 498 0042 43F00103 		orr	r3, r3, #1
 499 0046 1360     		str	r3, [r2]
 337:Drivers/STM32F1xx_HAL_Driver/Src/stm32f1xx_hal_dma.c **** 
 500              		.loc 1 337 21 is_stmt 0 view .LVU173
 501 0048 2846     		mov	r0, r5
 502 004a E9E7     		b	.L25
 503              	.LVL27:
 504              	.L27:
 343:Drivers/STM32F1xx_HAL_Driver/Src/stm32f1xx_hal_dma.c **** 
ARM GAS  C:\Users\tianx\AppData\Local\Temp\ccOmbCCE.s 			page 28


 505              		.loc 1 343 3 view .LVU174
 506 004c 0220     		movs	r0, #2
 507              	.LVL28:
 343:Drivers/STM32F1xx_HAL_Driver/Src/stm32f1xx_hal_dma.c **** 
 508              		.loc 1 343 3 view .LVU175
 509 004e E7E7     		b	.L25
 510              		.cfi_endproc
 511              	.LFE68:
 513              		.section	.text.HAL_DMA_Start_IT,"ax",%progbits
 514              		.align	1
 515              		.global	HAL_DMA_Start_IT
 516              		.syntax unified
 517              		.thumb
 518              		.thumb_func
 519              		.fpu softvfp
 521              	HAL_DMA_Start_IT:
 522              	.LVL29:
 523              	.LFB69:
 379:Drivers/STM32F1xx_HAL_Driver/Src/stm32f1xx_hal_dma.c ****   HAL_StatusTypeDef status = HAL_OK;
 524              		.loc 1 379 1 is_stmt 1 view -0
 525              		.cfi_startproc
 526              		@ args = 0, pretend = 0, frame = 0
 527              		@ frame_needed = 0, uses_anonymous_args = 0
 379:Drivers/STM32F1xx_HAL_Driver/Src/stm32f1xx_hal_dma.c ****   HAL_StatusTypeDef status = HAL_OK;
 528              		.loc 1 379 1 is_stmt 0 view .LVU177
 529 0000 38B5     		push	{r3, r4, r5, lr}
 530              	.LCFI8:
 531              		.cfi_def_cfa_offset 16
 532              		.cfi_offset 3, -16
 533              		.cfi_offset 4, -12
 534              		.cfi_offset 5, -8
 535              		.cfi_offset 14, -4
 380:Drivers/STM32F1xx_HAL_Driver/Src/stm32f1xx_hal_dma.c **** 
 536              		.loc 1 380 3 is_stmt 1 view .LVU178
 537              	.LVL30:
 383:Drivers/STM32F1xx_HAL_Driver/Src/stm32f1xx_hal_dma.c **** 
 538              		.loc 1 383 3 view .LVU179
 386:Drivers/STM32F1xx_HAL_Driver/Src/stm32f1xx_hal_dma.c ****   
 539              		.loc 1 386 3 view .LVU180
 386:Drivers/STM32F1xx_HAL_Driver/Src/stm32f1xx_hal_dma.c ****   
 540              		.loc 1 386 3 view .LVU181
 541 0002 90F82040 		ldrb	r4, [r0, #32]	@ zero_extendqisi2
 542 0006 012C     		cmp	r4, #1
 543 0008 32D0     		beq	.L35
 386:Drivers/STM32F1xx_HAL_Driver/Src/stm32f1xx_hal_dma.c ****   
 544              		.loc 1 386 3 discriminator 2 view .LVU182
 545 000a 0124     		movs	r4, #1
 546 000c 80F82040 		strb	r4, [r0, #32]
 388:Drivers/STM32F1xx_HAL_Driver/Src/stm32f1xx_hal_dma.c ****   {
 547              		.loc 1 388 3 discriminator 2 view .LVU183
 388:Drivers/STM32F1xx_HAL_Driver/Src/stm32f1xx_hal_dma.c ****   {
 548              		.loc 1 388 33 is_stmt 0 discriminator 2 view .LVU184
 549 0010 90F82140 		ldrb	r4, [r0, #33]	@ zero_extendqisi2
 388:Drivers/STM32F1xx_HAL_Driver/Src/stm32f1xx_hal_dma.c ****   {
 550              		.loc 1 388 5 discriminator 2 view .LVU185
 551 0014 012C     		cmp	r4, #1
 552 0016 04D0     		beq	.L37
ARM GAS  C:\Users\tianx\AppData\Local\Temp\ccOmbCCE.s 			page 29


 418:Drivers/STM32F1xx_HAL_Driver/Src/stm32f1xx_hal_dma.c **** 
 553              		.loc 1 418 5 is_stmt 1 view .LVU186
 418:Drivers/STM32F1xx_HAL_Driver/Src/stm32f1xx_hal_dma.c **** 
 554              		.loc 1 418 5 view .LVU187
 555 0018 0023     		movs	r3, #0
 556              	.LVL31:
 418:Drivers/STM32F1xx_HAL_Driver/Src/stm32f1xx_hal_dma.c **** 
 557              		.loc 1 418 5 is_stmt 0 view .LVU188
 558 001a 80F82030 		strb	r3, [r0, #32]
 421:Drivers/STM32F1xx_HAL_Driver/Src/stm32f1xx_hal_dma.c ****   }    
 559              		.loc 1 421 5 is_stmt 1 view .LVU189
 560              	.LVL32:
 421:Drivers/STM32F1xx_HAL_Driver/Src/stm32f1xx_hal_dma.c ****   }    
 561              		.loc 1 421 12 is_stmt 0 view .LVU190
 562 001e 0220     		movs	r0, #2
 563              	.LVL33:
 564              	.L31:
 424:Drivers/STM32F1xx_HAL_Driver/Src/stm32f1xx_hal_dma.c **** 
 565              		.loc 1 424 1 view .LVU191
 566 0020 38BD     		pop	{r3, r4, r5, pc}
 567              	.LVL34:
 568              	.L37:
 424:Drivers/STM32F1xx_HAL_Driver/Src/stm32f1xx_hal_dma.c **** 
 569              		.loc 1 424 1 view .LVU192
 570 0022 0446     		mov	r4, r0
 391:Drivers/STM32F1xx_HAL_Driver/Src/stm32f1xx_hal_dma.c ****     hdma->ErrorCode = HAL_DMA_ERROR_NONE;
 571              		.loc 1 391 5 is_stmt 1 view .LVU193
 391:Drivers/STM32F1xx_HAL_Driver/Src/stm32f1xx_hal_dma.c ****     hdma->ErrorCode = HAL_DMA_ERROR_NONE;
 572              		.loc 1 391 17 is_stmt 0 view .LVU194
 573 0024 0220     		movs	r0, #2
 574              	.LVL35:
 391:Drivers/STM32F1xx_HAL_Driver/Src/stm32f1xx_hal_dma.c ****     hdma->ErrorCode = HAL_DMA_ERROR_NONE;
 575              		.loc 1 391 17 view .LVU195
 576 0026 84F82100 		strb	r0, [r4, #33]
 392:Drivers/STM32F1xx_HAL_Driver/Src/stm32f1xx_hal_dma.c ****     
 577              		.loc 1 392 5 is_stmt 1 view .LVU196
 392:Drivers/STM32F1xx_HAL_Driver/Src/stm32f1xx_hal_dma.c ****     
 578              		.loc 1 392 21 is_stmt 0 view .LVU197
 579 002a 0020     		movs	r0, #0
 580 002c A063     		str	r0, [r4, #56]
 395:Drivers/STM32F1xx_HAL_Driver/Src/stm32f1xx_hal_dma.c ****     
 581              		.loc 1 395 5 is_stmt 1 view .LVU198
 582 002e 2568     		ldr	r5, [r4]
 583 0030 2868     		ldr	r0, [r5]
 584 0032 20F00100 		bic	r0, r0, #1
 585 0036 2860     		str	r0, [r5]
 398:Drivers/STM32F1xx_HAL_Driver/Src/stm32f1xx_hal_dma.c ****     
 586              		.loc 1 398 5 view .LVU199
 587 0038 2046     		mov	r0, r4
 588 003a FFF7FEFF 		bl	DMA_SetConfig
 589              	.LVL36:
 402:Drivers/STM32F1xx_HAL_Driver/Src/stm32f1xx_hal_dma.c ****     {
 590              		.loc 1 402 5 view .LVU200
 402:Drivers/STM32F1xx_HAL_Driver/Src/stm32f1xx_hal_dma.c ****     {
 591              		.loc 1 402 20 is_stmt 0 view .LVU201
 592 003e E36A     		ldr	r3, [r4, #44]
 402:Drivers/STM32F1xx_HAL_Driver/Src/stm32f1xx_hal_dma.c ****     {
ARM GAS  C:\Users\tianx\AppData\Local\Temp\ccOmbCCE.s 			page 30


 593              		.loc 1 402 7 view .LVU202
 594 0040 5BB1     		cbz	r3, .L33
 405:Drivers/STM32F1xx_HAL_Driver/Src/stm32f1xx_hal_dma.c ****     }
 595              		.loc 1 405 7 is_stmt 1 view .LVU203
 596 0042 2268     		ldr	r2, [r4]
 597 0044 1368     		ldr	r3, [r2]
 598 0046 43F00E03 		orr	r3, r3, #14
 599 004a 1360     		str	r3, [r2]
 600              	.L34:
 413:Drivers/STM32F1xx_HAL_Driver/Src/stm32f1xx_hal_dma.c ****   }
 601              		.loc 1 413 5 view .LVU204
 602 004c 2268     		ldr	r2, [r4]
 603 004e 1368     		ldr	r3, [r2]
 604 0050 43F00103 		orr	r3, r3, #1
 605 0054 1360     		str	r3, [r2]
 380:Drivers/STM32F1xx_HAL_Driver/Src/stm32f1xx_hal_dma.c **** 
 606              		.loc 1 380 21 is_stmt 0 view .LVU205
 607 0056 0020     		movs	r0, #0
 608 0058 E2E7     		b	.L31
 609              	.L33:
 409:Drivers/STM32F1xx_HAL_Driver/Src/stm32f1xx_hal_dma.c ****       __HAL_DMA_ENABLE_IT(hdma, (DMA_IT_TC | DMA_IT_TE));
 610              		.loc 1 409 7 is_stmt 1 view .LVU206
 611 005a 2268     		ldr	r2, [r4]
 612 005c 1368     		ldr	r3, [r2]
 613 005e 23F00403 		bic	r3, r3, #4
 614 0062 1360     		str	r3, [r2]
 410:Drivers/STM32F1xx_HAL_Driver/Src/stm32f1xx_hal_dma.c ****     }
 615              		.loc 1 410 7 view .LVU207
 616 0064 2268     		ldr	r2, [r4]
 617 0066 1368     		ldr	r3, [r2]
 618 0068 43F00A03 		orr	r3, r3, #10
 619 006c 1360     		str	r3, [r2]
 620 006e EDE7     		b	.L34
 621              	.LVL37:
 622              	.L35:
 386:Drivers/STM32F1xx_HAL_Driver/Src/stm32f1xx_hal_dma.c ****   
 623              		.loc 1 386 3 is_stmt 0 view .LVU208
 624 0070 0220     		movs	r0, #2
 625              	.LVL38:
 386:Drivers/STM32F1xx_HAL_Driver/Src/stm32f1xx_hal_dma.c ****   
 626              		.loc 1 386 3 view .LVU209
 627 0072 D5E7     		b	.L31
 628              		.cfi_endproc
 629              	.LFE69:
 631              		.section	.text.HAL_DMA_Abort,"ax",%progbits
 632              		.align	1
 633              		.global	HAL_DMA_Abort
 634              		.syntax unified
 635              		.thumb
 636              		.thumb_func
 637              		.fpu softvfp
 639              	HAL_DMA_Abort:
 640              	.LVL39:
 641              	.LFB70:
 433:Drivers/STM32F1xx_HAL_Driver/Src/stm32f1xx_hal_dma.c ****   HAL_StatusTypeDef status = HAL_OK;
 642              		.loc 1 433 1 is_stmt 1 view -0
 643              		.cfi_startproc
ARM GAS  C:\Users\tianx\AppData\Local\Temp\ccOmbCCE.s 			page 31


 644              		@ args = 0, pretend = 0, frame = 0
 645              		@ frame_needed = 0, uses_anonymous_args = 0
 646              		@ link register save eliminated.
 433:Drivers/STM32F1xx_HAL_Driver/Src/stm32f1xx_hal_dma.c ****   HAL_StatusTypeDef status = HAL_OK;
 647              		.loc 1 433 1 is_stmt 0 view .LVU211
 648 0000 0346     		mov	r3, r0
 434:Drivers/STM32F1xx_HAL_Driver/Src/stm32f1xx_hal_dma.c **** 
 649              		.loc 1 434 3 is_stmt 1 view .LVU212
 650              	.LVL40:
 437:Drivers/STM32F1xx_HAL_Driver/Src/stm32f1xx_hal_dma.c ****     
 651              		.loc 1 437 3 view .LVU213
 652 0002 0168     		ldr	r1, [r0]
 653 0004 0A68     		ldr	r2, [r1]
 654 0006 22F00E02 		bic	r2, r2, #14
 655 000a 0A60     		str	r2, [r1]
 440:Drivers/STM32F1xx_HAL_Driver/Src/stm32f1xx_hal_dma.c ****     
 656              		.loc 1 440 3 view .LVU214
 657 000c 0168     		ldr	r1, [r0]
 658 000e 0A68     		ldr	r2, [r1]
 659 0010 22F00102 		bic	r2, r2, #1
 660 0014 0A60     		str	r2, [r1]
 443:Drivers/STM32F1xx_HAL_Driver/Src/stm32f1xx_hal_dma.c **** 
 661              		.loc 1 443 3 view .LVU215
 443:Drivers/STM32F1xx_HAL_Driver/Src/stm32f1xx_hal_dma.c **** 
 662              		.loc 1 443 53 is_stmt 0 view .LVU216
 663 0016 026C     		ldr	r2, [r0, #64]
 443:Drivers/STM32F1xx_HAL_Driver/Src/stm32f1xx_hal_dma.c **** 
 664              		.loc 1 443 7 view .LVU217
 665 0018 C06B     		ldr	r0, [r0, #60]
 666              	.LVL41:
 443:Drivers/STM32F1xx_HAL_Driver/Src/stm32f1xx_hal_dma.c **** 
 667              		.loc 1 443 46 view .LVU218
 668 001a 0121     		movs	r1, #1
 669 001c 01FA02F2 		lsl	r2, r1, r2
 443:Drivers/STM32F1xx_HAL_Driver/Src/stm32f1xx_hal_dma.c **** 
 670              		.loc 1 443 30 view .LVU219
 671 0020 4260     		str	r2, [r0, #4]
 446:Drivers/STM32F1xx_HAL_Driver/Src/stm32f1xx_hal_dma.c **** 
 672              		.loc 1 446 3 is_stmt 1 view .LVU220
 446:Drivers/STM32F1xx_HAL_Driver/Src/stm32f1xx_hal_dma.c **** 
 673              		.loc 1 446 15 is_stmt 0 view .LVU221
 674 0022 83F82110 		strb	r1, [r3, #33]
 449:Drivers/STM32F1xx_HAL_Driver/Src/stm32f1xx_hal_dma.c ****   
 675              		.loc 1 449 3 is_stmt 1 view .LVU222
 449:Drivers/STM32F1xx_HAL_Driver/Src/stm32f1xx_hal_dma.c ****   
 676              		.loc 1 449 3 view .LVU223
 677 0026 0020     		movs	r0, #0
 678 0028 83F82000 		strb	r0, [r3, #32]
 451:Drivers/STM32F1xx_HAL_Driver/Src/stm32f1xx_hal_dma.c **** }
 679              		.loc 1 451 3 view .LVU224
 452:Drivers/STM32F1xx_HAL_Driver/Src/stm32f1xx_hal_dma.c **** 
 680              		.loc 1 452 1 is_stmt 0 view .LVU225
 681 002c 7047     		bx	lr
 682              		.cfi_endproc
 683              	.LFE70:
 685              		.section	.text.HAL_DMA_Abort_IT,"ax",%progbits
 686              		.align	1
ARM GAS  C:\Users\tianx\AppData\Local\Temp\ccOmbCCE.s 			page 32


 687              		.global	HAL_DMA_Abort_IT
 688              		.syntax unified
 689              		.thumb
 690              		.thumb_func
 691              		.fpu softvfp
 693              	HAL_DMA_Abort_IT:
 694              	.LVL42:
 695              	.LFB71:
 461:Drivers/STM32F1xx_HAL_Driver/Src/stm32f1xx_hal_dma.c ****   HAL_StatusTypeDef status = HAL_OK;
 696              		.loc 1 461 1 is_stmt 1 view -0
 697              		.cfi_startproc
 698              		@ args = 0, pretend = 0, frame = 0
 699              		@ frame_needed = 0, uses_anonymous_args = 0
 461:Drivers/STM32F1xx_HAL_Driver/Src/stm32f1xx_hal_dma.c ****   HAL_StatusTypeDef status = HAL_OK;
 700              		.loc 1 461 1 is_stmt 0 view .LVU227
 701 0000 08B5     		push	{r3, lr}
 702              	.LCFI9:
 703              		.cfi_def_cfa_offset 8
 704              		.cfi_offset 3, -8
 705              		.cfi_offset 14, -4
 462:Drivers/STM32F1xx_HAL_Driver/Src/stm32f1xx_hal_dma.c ****   
 706              		.loc 1 462 3 is_stmt 1 view .LVU228
 707              	.LVL43:
 464:Drivers/STM32F1xx_HAL_Driver/Src/stm32f1xx_hal_dma.c ****   {
 708              		.loc 1 464 3 view .LVU229
 464:Drivers/STM32F1xx_HAL_Driver/Src/stm32f1xx_hal_dma.c ****   {
 709              		.loc 1 464 32 is_stmt 0 view .LVU230
 710 0002 90F82130 		ldrb	r3, [r0, #33]	@ zero_extendqisi2
 464:Drivers/STM32F1xx_HAL_Driver/Src/stm32f1xx_hal_dma.c ****   {
 711              		.loc 1 464 5 view .LVU231
 712 0006 022B     		cmp	r3, #2
 713 0008 03D0     		beq	.L40
 467:Drivers/STM32F1xx_HAL_Driver/Src/stm32f1xx_hal_dma.c ****         
 714              		.loc 1 467 5 is_stmt 1 view .LVU232
 467:Drivers/STM32F1xx_HAL_Driver/Src/stm32f1xx_hal_dma.c ****         
 715              		.loc 1 467 21 is_stmt 0 view .LVU233
 716 000a 0423     		movs	r3, #4
 717 000c 8363     		str	r3, [r0, #56]
 469:Drivers/STM32F1xx_HAL_Driver/Src/stm32f1xx_hal_dma.c ****   }
 718              		.loc 1 469 5 is_stmt 1 view .LVU234
 719              	.LVL44:
 469:Drivers/STM32F1xx_HAL_Driver/Src/stm32f1xx_hal_dma.c ****   }
 720              		.loc 1 469 12 is_stmt 0 view .LVU235
 721 000e 0120     		movs	r0, #1
 722              	.LVL45:
 723              	.L41:
 494:Drivers/STM32F1xx_HAL_Driver/Src/stm32f1xx_hal_dma.c **** }
 724              		.loc 1 494 3 is_stmt 1 view .LVU236
 495:Drivers/STM32F1xx_HAL_Driver/Src/stm32f1xx_hal_dma.c **** 
 725              		.loc 1 495 1 is_stmt 0 view .LVU237
 726 0010 08BD     		pop	{r3, pc}
 727              	.LVL46:
 728              	.L40:
 474:Drivers/STM32F1xx_HAL_Driver/Src/stm32f1xx_hal_dma.c **** 
 729              		.loc 1 474 5 is_stmt 1 view .LVU238
 730 0012 0268     		ldr	r2, [r0]
 731 0014 1368     		ldr	r3, [r2]
ARM GAS  C:\Users\tianx\AppData\Local\Temp\ccOmbCCE.s 			page 33


 732 0016 23F00E03 		bic	r3, r3, #14
 733 001a 1360     		str	r3, [r2]
 477:Drivers/STM32F1xx_HAL_Driver/Src/stm32f1xx_hal_dma.c **** 
 734              		.loc 1 477 5 view .LVU239
 735 001c 0268     		ldr	r2, [r0]
 736 001e 1368     		ldr	r3, [r2]
 737 0020 23F00103 		bic	r3, r3, #1
 738 0024 1360     		str	r3, [r2]
 480:Drivers/STM32F1xx_HAL_Driver/Src/stm32f1xx_hal_dma.c **** 
 739              		.loc 1 480 5 view .LVU240
 740 0026 0368     		ldr	r3, [r0]
 741 0028 4B4A     		ldr	r2, .L72
 742 002a 9342     		cmp	r3, r2
 743 002c 4ED9     		bls	.L42
 480:Drivers/STM32F1xx_HAL_Driver/Src/stm32f1xx_hal_dma.c **** 
 744              		.loc 1 480 5 is_stmt 0 discriminator 1 view .LVU241
 745 002e 783A     		subs	r2, r2, #120
 746 0030 9342     		cmp	r3, r2
 747 0032 24D0     		beq	.L46
 480:Drivers/STM32F1xx_HAL_Driver/Src/stm32f1xx_hal_dma.c **** 
 748              		.loc 1 480 5 discriminator 3 view .LVU242
 749 0034 1432     		adds	r2, r2, #20
 750 0036 9342     		cmp	r3, r2
 751 0038 30D0     		beq	.L47
 480:Drivers/STM32F1xx_HAL_Driver/Src/stm32f1xx_hal_dma.c **** 
 752              		.loc 1 480 5 discriminator 5 view .LVU243
 753 003a 1432     		adds	r2, r2, #20
 754 003c 9342     		cmp	r3, r2
 755 003e 2FD0     		beq	.L48
 480:Drivers/STM32F1xx_HAL_Driver/Src/stm32f1xx_hal_dma.c **** 
 756              		.loc 1 480 5 discriminator 7 view .LVU244
 757 0040 1432     		adds	r2, r2, #20
 758 0042 9342     		cmp	r3, r2
 759 0044 2FD0     		beq	.L49
 480:Drivers/STM32F1xx_HAL_Driver/Src/stm32f1xx_hal_dma.c **** 
 760              		.loc 1 480 5 discriminator 9 view .LVU245
 761 0046 1432     		adds	r2, r2, #20
 762 0048 9342     		cmp	r3, r2
 763 004a 2FD0     		beq	.L50
 480:Drivers/STM32F1xx_HAL_Driver/Src/stm32f1xx_hal_dma.c **** 
 764              		.loc 1 480 5 discriminator 11 view .LVU246
 765 004c 1432     		adds	r2, r2, #20
 766 004e 9342     		cmp	r3, r2
 767 0050 2FD0     		beq	.L51
 480:Drivers/STM32F1xx_HAL_Driver/Src/stm32f1xx_hal_dma.c **** 
 768              		.loc 1 480 5 discriminator 13 view .LVU247
 769 0052 1432     		adds	r2, r2, #20
 770 0054 9342     		cmp	r3, r2
 771 0056 2FD0     		beq	.L52
 480:Drivers/STM32F1xx_HAL_Driver/Src/stm32f1xx_hal_dma.c **** 
 772              		.loc 1 480 5 discriminator 15 view .LVU248
 773 0058 02F56272 		add	r2, r2, #904
 774 005c 9342     		cmp	r3, r2
 775 005e 2ED0     		beq	.L53
 480:Drivers/STM32F1xx_HAL_Driver/Src/stm32f1xx_hal_dma.c **** 
 776              		.loc 1 480 5 discriminator 17 view .LVU249
 777 0060 1432     		adds	r2, r2, #20
ARM GAS  C:\Users\tianx\AppData\Local\Temp\ccOmbCCE.s 			page 34


 778 0062 9342     		cmp	r3, r2
 779 0064 2DD0     		beq	.L54
 480:Drivers/STM32F1xx_HAL_Driver/Src/stm32f1xx_hal_dma.c **** 
 780              		.loc 1 480 5 discriminator 19 view .LVU250
 781 0066 1432     		adds	r2, r2, #20
 782 0068 9342     		cmp	r3, r2
 783 006a 2CD0     		beq	.L55
 480:Drivers/STM32F1xx_HAL_Driver/Src/stm32f1xx_hal_dma.c **** 
 784              		.loc 1 480 5 discriminator 21 view .LVU251
 785 006c 1432     		adds	r2, r2, #20
 786 006e 9342     		cmp	r3, r2
 787 0070 02D0     		beq	.L70
 480:Drivers/STM32F1xx_HAL_Driver/Src/stm32f1xx_hal_dma.c **** 
 788              		.loc 1 480 5 view .LVU252
 789 0072 4FF48032 		mov	r2, #65536
 790 0076 03E0     		b	.L43
 791              	.L70:
 792 0078 4FF48052 		mov	r2, #4096
 793 007c 00E0     		b	.L43
 794              	.L46:
 795 007e 0122     		movs	r2, #1
 796              	.L43:
 480:Drivers/STM32F1xx_HAL_Driver/Src/stm32f1xx_hal_dma.c **** 
 797              		.loc 1 480 5 discriminator 46 view .LVU253
 798 0080 364B     		ldr	r3, .L72+4
 799 0082 5A60     		str	r2, [r3, #4]
 800              	.L44:
 483:Drivers/STM32F1xx_HAL_Driver/Src/stm32f1xx_hal_dma.c **** 
 801              		.loc 1 483 5 is_stmt 1 view .LVU254
 483:Drivers/STM32F1xx_HAL_Driver/Src/stm32f1xx_hal_dma.c **** 
 802              		.loc 1 483 17 is_stmt 0 view .LVU255
 803 0084 0123     		movs	r3, #1
 804 0086 80F82130 		strb	r3, [r0, #33]
 486:Drivers/STM32F1xx_HAL_Driver/Src/stm32f1xx_hal_dma.c **** 
 805              		.loc 1 486 5 is_stmt 1 view .LVU256
 486:Drivers/STM32F1xx_HAL_Driver/Src/stm32f1xx_hal_dma.c **** 
 806              		.loc 1 486 5 view .LVU257
 807 008a 0023     		movs	r3, #0
 808 008c 80F82030 		strb	r3, [r0, #32]
 489:Drivers/STM32F1xx_HAL_Driver/Src/stm32f1xx_hal_dma.c ****     {
 809              		.loc 1 489 5 view .LVU258
 489:Drivers/STM32F1xx_HAL_Driver/Src/stm32f1xx_hal_dma.c ****     {
 810              		.loc 1 489 12 is_stmt 0 view .LVU259
 811 0090 436B     		ldr	r3, [r0, #52]
 489:Drivers/STM32F1xx_HAL_Driver/Src/stm32f1xx_hal_dma.c ****     {
 812              		.loc 1 489 7 view .LVU260
 813 0092 002B     		cmp	r3, #0
 814 0094 5ED0     		beq	.L68
 491:Drivers/STM32F1xx_HAL_Driver/Src/stm32f1xx_hal_dma.c ****     } 
 815              		.loc 1 491 7 is_stmt 1 view .LVU261
 816 0096 9847     		blx	r3
 817              	.LVL47:
 462:Drivers/STM32F1xx_HAL_Driver/Src/stm32f1xx_hal_dma.c ****   
 818              		.loc 1 462 21 is_stmt 0 view .LVU262
 819 0098 0020     		movs	r0, #0
 820 009a B9E7     		b	.L41
 821              	.LVL48:
ARM GAS  C:\Users\tianx\AppData\Local\Temp\ccOmbCCE.s 			page 35


 822              	.L47:
 480:Drivers/STM32F1xx_HAL_Driver/Src/stm32f1xx_hal_dma.c **** 
 823              		.loc 1 480 5 view .LVU263
 824 009c 1022     		movs	r2, #16
 825 009e EFE7     		b	.L43
 826              	.L48:
 827 00a0 4FF48072 		mov	r2, #256
 828 00a4 ECE7     		b	.L43
 829              	.L49:
 830 00a6 4FF48052 		mov	r2, #4096
 831 00aa E9E7     		b	.L43
 832              	.L50:
 833 00ac 4FF48032 		mov	r2, #65536
 834 00b0 E6E7     		b	.L43
 835              	.L51:
 836 00b2 4FF48012 		mov	r2, #1048576
 837 00b6 E3E7     		b	.L43
 838              	.L52:
 839 00b8 4FF08072 		mov	r2, #16777216
 840 00bc E0E7     		b	.L43
 841              	.L53:
 842 00be 0122     		movs	r2, #1
 843 00c0 DEE7     		b	.L43
 844              	.L54:
 845 00c2 1022     		movs	r2, #16
 846 00c4 DCE7     		b	.L43
 847              	.L55:
 848 00c6 4FF48072 		mov	r2, #256
 849 00ca D9E7     		b	.L43
 850              	.L42:
 480:Drivers/STM32F1xx_HAL_Driver/Src/stm32f1xx_hal_dma.c **** 
 851              		.loc 1 480 5 discriminator 2 view .LVU264
 852 00cc 244A     		ldr	r2, .L72+8
 853 00ce 9342     		cmp	r3, r2
 854 00d0 24D0     		beq	.L57
 480:Drivers/STM32F1xx_HAL_Driver/Src/stm32f1xx_hal_dma.c **** 
 855              		.loc 1 480 5 discriminator 47 view .LVU265
 856 00d2 1432     		adds	r2, r2, #20
 857 00d4 9342     		cmp	r3, r2
 858 00d6 25D0     		beq	.L58
 480:Drivers/STM32F1xx_HAL_Driver/Src/stm32f1xx_hal_dma.c **** 
 859              		.loc 1 480 5 discriminator 49 view .LVU266
 860 00d8 1432     		adds	r2, r2, #20
 861 00da 9342     		cmp	r3, r2
 862 00dc 24D0     		beq	.L59
 480:Drivers/STM32F1xx_HAL_Driver/Src/stm32f1xx_hal_dma.c **** 
 863              		.loc 1 480 5 discriminator 51 view .LVU267
 864 00de 1432     		adds	r2, r2, #20
 865 00e0 9342     		cmp	r3, r2
 866 00e2 24D0     		beq	.L60
 480:Drivers/STM32F1xx_HAL_Driver/Src/stm32f1xx_hal_dma.c **** 
 867              		.loc 1 480 5 discriminator 53 view .LVU268
 868 00e4 1432     		adds	r2, r2, #20
 869 00e6 9342     		cmp	r3, r2
 870 00e8 24D0     		beq	.L61
 480:Drivers/STM32F1xx_HAL_Driver/Src/stm32f1xx_hal_dma.c **** 
 871              		.loc 1 480 5 discriminator 55 view .LVU269
ARM GAS  C:\Users\tianx\AppData\Local\Temp\ccOmbCCE.s 			page 36


 872 00ea 1432     		adds	r2, r2, #20
 873 00ec 9342     		cmp	r3, r2
 874 00ee 24D0     		beq	.L62
 480:Drivers/STM32F1xx_HAL_Driver/Src/stm32f1xx_hal_dma.c **** 
 875              		.loc 1 480 5 discriminator 57 view .LVU270
 876 00f0 1432     		adds	r2, r2, #20
 877 00f2 9342     		cmp	r3, r2
 878 00f4 24D0     		beq	.L63
 480:Drivers/STM32F1xx_HAL_Driver/Src/stm32f1xx_hal_dma.c **** 
 879              		.loc 1 480 5 discriminator 59 view .LVU271
 880 00f6 02F56272 		add	r2, r2, #904
 881 00fa 9342     		cmp	r3, r2
 882 00fc 23D0     		beq	.L64
 480:Drivers/STM32F1xx_HAL_Driver/Src/stm32f1xx_hal_dma.c **** 
 883              		.loc 1 480 5 discriminator 61 view .LVU272
 884 00fe 1432     		adds	r2, r2, #20
 885 0100 9342     		cmp	r3, r2
 886 0102 22D0     		beq	.L65
 480:Drivers/STM32F1xx_HAL_Driver/Src/stm32f1xx_hal_dma.c **** 
 887              		.loc 1 480 5 discriminator 63 view .LVU273
 888 0104 1432     		adds	r2, r2, #20
 889 0106 9342     		cmp	r3, r2
 890 0108 21D0     		beq	.L66
 480:Drivers/STM32F1xx_HAL_Driver/Src/stm32f1xx_hal_dma.c **** 
 891              		.loc 1 480 5 discriminator 65 view .LVU274
 892 010a 1432     		adds	r2, r2, #20
 893 010c 9342     		cmp	r3, r2
 894 010e 02D0     		beq	.L71
 480:Drivers/STM32F1xx_HAL_Driver/Src/stm32f1xx_hal_dma.c **** 
 895              		.loc 1 480 5 view .LVU275
 896 0110 4FF48032 		mov	r2, #65536
 897 0114 03E0     		b	.L45
 898              	.L71:
 899 0116 4FF48052 		mov	r2, #4096
 900 011a 00E0     		b	.L45
 901              	.L57:
 902 011c 0122     		movs	r2, #1
 903              	.L45:
 480:Drivers/STM32F1xx_HAL_Driver/Src/stm32f1xx_hal_dma.c **** 
 904              		.loc 1 480 5 discriminator 90 view .LVU276
 905 011e 114B     		ldr	r3, .L72+12
 906 0120 5A60     		str	r2, [r3, #4]
 907 0122 AFE7     		b	.L44
 908              	.L58:
 480:Drivers/STM32F1xx_HAL_Driver/Src/stm32f1xx_hal_dma.c **** 
 909              		.loc 1 480 5 view .LVU277
 910 0124 1022     		movs	r2, #16
 911 0126 FAE7     		b	.L45
 912              	.L59:
 913 0128 4FF48072 		mov	r2, #256
 914 012c F7E7     		b	.L45
 915              	.L60:
 916 012e 4FF48052 		mov	r2, #4096
 917 0132 F4E7     		b	.L45
 918              	.L61:
 919 0134 4FF48032 		mov	r2, #65536
 920 0138 F1E7     		b	.L45
ARM GAS  C:\Users\tianx\AppData\Local\Temp\ccOmbCCE.s 			page 37


 921              	.L62:
 922 013a 4FF48012 		mov	r2, #1048576
 923 013e EEE7     		b	.L45
 924              	.L63:
 925 0140 4FF08072 		mov	r2, #16777216
 926 0144 EBE7     		b	.L45
 927              	.L64:
 928 0146 0122     		movs	r2, #1
 929 0148 E9E7     		b	.L45
 930              	.L65:
 931 014a 1022     		movs	r2, #16
 932 014c E7E7     		b	.L45
 933              	.L66:
 934 014e 4FF48072 		mov	r2, #256
 935 0152 E4E7     		b	.L45
 936              	.L68:
 462:Drivers/STM32F1xx_HAL_Driver/Src/stm32f1xx_hal_dma.c ****   
 937              		.loc 1 462 21 view .LVU278
 938 0154 0020     		movs	r0, #0
 939              	.LVL49:
 462:Drivers/STM32F1xx_HAL_Driver/Src/stm32f1xx_hal_dma.c ****   
 940              		.loc 1 462 21 view .LVU279
 941 0156 5BE7     		b	.L41
 942              	.L73:
 943              		.align	2
 944              	.L72:
 945 0158 80000240 		.word	1073873024
 946 015c 00040240 		.word	1073873920
 947 0160 08000240 		.word	1073872904
 948 0164 00000240 		.word	1073872896
 949              		.cfi_endproc
 950              	.LFE71:
 952              		.section	.text.HAL_DMA_PollForTransfer,"ax",%progbits
 953              		.align	1
 954              		.global	HAL_DMA_PollForTransfer
 955              		.syntax unified
 956              		.thumb
 957              		.thumb_func
 958              		.fpu softvfp
 960              	HAL_DMA_PollForTransfer:
 961              	.LVL50:
 962              	.LFB72:
 506:Drivers/STM32F1xx_HAL_Driver/Src/stm32f1xx_hal_dma.c ****   uint32_t temp;
 963              		.loc 1 506 1 is_stmt 1 view -0
 964              		.cfi_startproc
 965              		@ args = 0, pretend = 0, frame = 0
 966              		@ frame_needed = 0, uses_anonymous_args = 0
 507:Drivers/STM32F1xx_HAL_Driver/Src/stm32f1xx_hal_dma.c ****   uint32_t tickstart = 0U;
 967              		.loc 1 507 3 view .LVU281
 508:Drivers/STM32F1xx_HAL_Driver/Src/stm32f1xx_hal_dma.c **** 
 968              		.loc 1 508 3 view .LVU282
 510:Drivers/STM32F1xx_HAL_Driver/Src/stm32f1xx_hal_dma.c ****   {
 969              		.loc 1 510 3 view .LVU283
 510:Drivers/STM32F1xx_HAL_Driver/Src/stm32f1xx_hal_dma.c ****   {
 970              		.loc 1 510 32 is_stmt 0 view .LVU284
 971 0000 90F82130 		ldrb	r3, [r0, #33]	@ zero_extendqisi2
 510:Drivers/STM32F1xx_HAL_Driver/Src/stm32f1xx_hal_dma.c ****   {
ARM GAS  C:\Users\tianx\AppData\Local\Temp\ccOmbCCE.s 			page 38


 972              		.loc 1 510 5 view .LVU285
 973 0004 022B     		cmp	r3, #2
 974 0006 06D0     		beq	.L75
 513:Drivers/STM32F1xx_HAL_Driver/Src/stm32f1xx_hal_dma.c ****     __HAL_UNLOCK(hdma);
 975              		.loc 1 513 5 is_stmt 1 view .LVU286
 513:Drivers/STM32F1xx_HAL_Driver/Src/stm32f1xx_hal_dma.c ****     __HAL_UNLOCK(hdma);
 976              		.loc 1 513 21 is_stmt 0 view .LVU287
 977 0008 0423     		movs	r3, #4
 978 000a 8363     		str	r3, [r0, #56]
 514:Drivers/STM32F1xx_HAL_Driver/Src/stm32f1xx_hal_dma.c ****     return HAL_ERROR;
 979              		.loc 1 514 5 is_stmt 1 view .LVU288
 514:Drivers/STM32F1xx_HAL_Driver/Src/stm32f1xx_hal_dma.c ****     return HAL_ERROR;
 980              		.loc 1 514 5 view .LVU289
 981 000c 0023     		movs	r3, #0
 982 000e 80F82030 		strb	r3, [r0, #32]
 515:Drivers/STM32F1xx_HAL_Driver/Src/stm32f1xx_hal_dma.c ****   }
 983              		.loc 1 515 5 view .LVU290
 515:Drivers/STM32F1xx_HAL_Driver/Src/stm32f1xx_hal_dma.c ****   }
 984              		.loc 1 515 12 is_stmt 0 view .LVU291
 985 0012 0120     		movs	r0, #1
 986              	.LVL51:
 598:Drivers/STM32F1xx_HAL_Driver/Src/stm32f1xx_hal_dma.c **** 
 987              		.loc 1 598 1 view .LVU292
 988 0014 7047     		bx	lr
 989              	.LVL52:
 990              	.L75:
 506:Drivers/STM32F1xx_HAL_Driver/Src/stm32f1xx_hal_dma.c ****   uint32_t temp;
 991              		.loc 1 506 1 view .LVU293
 992 0016 2DE9F041 		push	{r4, r5, r6, r7, r8, lr}
 993              	.LCFI10:
 994              		.cfi_def_cfa_offset 24
 995              		.cfi_offset 4, -24
 996              		.cfi_offset 5, -20
 997              		.cfi_offset 6, -16
 998              		.cfi_offset 7, -12
 999              		.cfi_offset 8, -8
 1000              		.cfi_offset 14, -4
 519:Drivers/STM32F1xx_HAL_Driver/Src/stm32f1xx_hal_dma.c ****   {
 1001              		.loc 1 519 3 is_stmt 1 view .LVU294
 519:Drivers/STM32F1xx_HAL_Driver/Src/stm32f1xx_hal_dma.c ****   {
 1002              		.loc 1 519 21 is_stmt 0 view .LVU295
 1003 001a 0368     		ldr	r3, [r0]
 519:Drivers/STM32F1xx_HAL_Driver/Src/stm32f1xx_hal_dma.c ****   {
 1004              		.loc 1 519 31 view .LVU296
 1005 001c 1C68     		ldr	r4, [r3]
 519:Drivers/STM32F1xx_HAL_Driver/Src/stm32f1xx_hal_dma.c ****   {
 1006              		.loc 1 519 6 view .LVU297
 1007 001e 14F0200F 		tst	r4, #32
 1008 0022 25D1     		bne	.L191
 526:Drivers/STM32F1xx_HAL_Driver/Src/stm32f1xx_hal_dma.c ****   {
 1009              		.loc 1 526 3 is_stmt 1 view .LVU298
 526:Drivers/STM32F1xx_HAL_Driver/Src/stm32f1xx_hal_dma.c ****   {
 1010              		.loc 1 526 5 is_stmt 0 view .LVU299
 1011 0024 69BB     		cbnz	r1, .L78
 529:Drivers/STM32F1xx_HAL_Driver/Src/stm32f1xx_hal_dma.c ****   }
 1012              		.loc 1 529 5 is_stmt 1 view .LVU300
 529:Drivers/STM32F1xx_HAL_Driver/Src/stm32f1xx_hal_dma.c ****   }
ARM GAS  C:\Users\tianx\AppData\Local\Temp\ccOmbCCE.s 			page 39


 1013              		.loc 1 529 12 is_stmt 0 view .LVU301
 1014 0026 B14C     		ldr	r4, .L203
 1015 0028 A342     		cmp	r3, r4
 1016 002a 52D0     		beq	.L100
 529:Drivers/STM32F1xx_HAL_Driver/Src/stm32f1xx_hal_dma.c ****   }
 1017              		.loc 1 529 12 discriminator 1 view .LVU302
 1018 002c 1434     		adds	r4, r4, #20
 1019 002e A342     		cmp	r3, r4
 1020 0030 57D0     		beq	.L101
 529:Drivers/STM32F1xx_HAL_Driver/Src/stm32f1xx_hal_dma.c ****   }
 1021              		.loc 1 529 12 discriminator 3 view .LVU303
 1022 0032 1434     		adds	r4, r4, #20
 1023 0034 A342     		cmp	r3, r4
 1024 0036 56D0     		beq	.L102
 529:Drivers/STM32F1xx_HAL_Driver/Src/stm32f1xx_hal_dma.c ****   }
 1025              		.loc 1 529 12 discriminator 5 view .LVU304
 1026 0038 1434     		adds	r4, r4, #20
 1027 003a A342     		cmp	r3, r4
 1028 003c 56D0     		beq	.L103
 529:Drivers/STM32F1xx_HAL_Driver/Src/stm32f1xx_hal_dma.c ****   }
 1029              		.loc 1 529 12 discriminator 7 view .LVU305
 1030 003e 1434     		adds	r4, r4, #20
 1031 0040 A342     		cmp	r3, r4
 1032 0042 56D0     		beq	.L104
 529:Drivers/STM32F1xx_HAL_Driver/Src/stm32f1xx_hal_dma.c ****   }
 1033              		.loc 1 529 12 discriminator 9 view .LVU306
 1034 0044 1434     		adds	r4, r4, #20
 1035 0046 A342     		cmp	r3, r4
 1036 0048 56D0     		beq	.L105
 529:Drivers/STM32F1xx_HAL_Driver/Src/stm32f1xx_hal_dma.c ****   }
 1037              		.loc 1 529 12 discriminator 11 view .LVU307
 1038 004a 1434     		adds	r4, r4, #20
 1039 004c A342     		cmp	r3, r4
 1040 004e 56D0     		beq	.L106
 529:Drivers/STM32F1xx_HAL_Driver/Src/stm32f1xx_hal_dma.c ****   }
 1041              		.loc 1 529 12 discriminator 13 view .LVU308
 1042 0050 04F56274 		add	r4, r4, #904
 1043 0054 A342     		cmp	r3, r4
 1044 0056 55D0     		beq	.L107
 529:Drivers/STM32F1xx_HAL_Driver/Src/stm32f1xx_hal_dma.c ****   }
 1045              		.loc 1 529 12 discriminator 15 view .LVU309
 1046 0058 1434     		adds	r4, r4, #20
 1047 005a A342     		cmp	r3, r4
 1048 005c 54D0     		beq	.L108
 529:Drivers/STM32F1xx_HAL_Driver/Src/stm32f1xx_hal_dma.c ****   }
 1049              		.loc 1 529 12 discriminator 17 view .LVU310
 1050 005e 1434     		adds	r4, r4, #20
 1051 0060 A342     		cmp	r3, r4
 1052 0062 53D0     		beq	.L109
 529:Drivers/STM32F1xx_HAL_Driver/Src/stm32f1xx_hal_dma.c ****   }
 1053              		.loc 1 529 12 discriminator 19 view .LVU311
 1054 0064 1434     		adds	r4, r4, #20
 1055 0066 A342     		cmp	r3, r4
 1056 0068 08D0     		beq	.L192
 529:Drivers/STM32F1xx_HAL_Driver/Src/stm32f1xx_hal_dma.c ****   }
 1057              		.loc 1 529 12 view .LVU312
 1058 006a 4FF40036 		mov	r6, #131072
ARM GAS  C:\Users\tianx\AppData\Local\Temp\ccOmbCCE.s 			page 40


 1059 006e 31E0     		b	.L79
 1060              	.L191:
 521:Drivers/STM32F1xx_HAL_Driver/Src/stm32f1xx_hal_dma.c ****     return HAL_ERROR;
 1061              		.loc 1 521 5 is_stmt 1 view .LVU313
 521:Drivers/STM32F1xx_HAL_Driver/Src/stm32f1xx_hal_dma.c ****     return HAL_ERROR;
 1062              		.loc 1 521 21 is_stmt 0 view .LVU314
 1063 0070 4FF48073 		mov	r3, #256
 1064 0074 8363     		str	r3, [r0, #56]
 522:Drivers/STM32F1xx_HAL_Driver/Src/stm32f1xx_hal_dma.c ****   }
 1065              		.loc 1 522 5 is_stmt 1 view .LVU315
 522:Drivers/STM32F1xx_HAL_Driver/Src/stm32f1xx_hal_dma.c ****   }
 1066              		.loc 1 522 12 is_stmt 0 view .LVU316
 1067 0076 0120     		movs	r0, #1
 1068              	.LVL53:
 1069              	.L76:
 598:Drivers/STM32F1xx_HAL_Driver/Src/stm32f1xx_hal_dma.c **** 
 1070              		.loc 1 598 1 view .LVU317
 1071 0078 BDE8F081 		pop	{r4, r5, r6, r7, r8, pc}
 1072              	.LVL54:
 1073              	.L192:
 529:Drivers/STM32F1xx_HAL_Driver/Src/stm32f1xx_hal_dma.c ****   }
 1074              		.loc 1 529 12 view .LVU318
 1075 007c 4FF40056 		mov	r6, #8192
 1076 0080 28E0     		b	.L79
 1077              	.L78:
 534:Drivers/STM32F1xx_HAL_Driver/Src/stm32f1xx_hal_dma.c ****   }
 1078              		.loc 1 534 5 is_stmt 1 view .LVU319
 534:Drivers/STM32F1xx_HAL_Driver/Src/stm32f1xx_hal_dma.c ****   }
 1079              		.loc 1 534 12 is_stmt 0 view .LVU320
 1080 0082 9A4C     		ldr	r4, .L203
 1081 0084 A342     		cmp	r3, r4
 1082 0086 44D0     		beq	.L111
 534:Drivers/STM32F1xx_HAL_Driver/Src/stm32f1xx_hal_dma.c ****   }
 1083              		.loc 1 534 12 discriminator 1 view .LVU321
 1084 0088 1434     		adds	r4, r4, #20
 1085 008a A342     		cmp	r3, r4
 1086 008c 43D0     		beq	.L112
 534:Drivers/STM32F1xx_HAL_Driver/Src/stm32f1xx_hal_dma.c ****   }
 1087              		.loc 1 534 12 discriminator 3 view .LVU322
 1088 008e 1434     		adds	r4, r4, #20
 1089 0090 A342     		cmp	r3, r4
 1090 0092 42D0     		beq	.L113
 534:Drivers/STM32F1xx_HAL_Driver/Src/stm32f1xx_hal_dma.c ****   }
 1091              		.loc 1 534 12 discriminator 5 view .LVU323
 1092 0094 1434     		adds	r4, r4, #20
 1093 0096 A342     		cmp	r3, r4
 1094 0098 42D0     		beq	.L114
 534:Drivers/STM32F1xx_HAL_Driver/Src/stm32f1xx_hal_dma.c ****   }
 1095              		.loc 1 534 12 discriminator 7 view .LVU324
 1096 009a 1434     		adds	r4, r4, #20
 1097 009c A342     		cmp	r3, r4
 1098 009e 42D0     		beq	.L115
 534:Drivers/STM32F1xx_HAL_Driver/Src/stm32f1xx_hal_dma.c ****   }
 1099              		.loc 1 534 12 discriminator 9 view .LVU325
 1100 00a0 1434     		adds	r4, r4, #20
 1101 00a2 A342     		cmp	r3, r4
 1102 00a4 42D0     		beq	.L116
ARM GAS  C:\Users\tianx\AppData\Local\Temp\ccOmbCCE.s 			page 41


 534:Drivers/STM32F1xx_HAL_Driver/Src/stm32f1xx_hal_dma.c ****   }
 1103              		.loc 1 534 12 discriminator 11 view .LVU326
 1104 00a6 1434     		adds	r4, r4, #20
 1105 00a8 A342     		cmp	r3, r4
 1106 00aa 42D0     		beq	.L117
 534:Drivers/STM32F1xx_HAL_Driver/Src/stm32f1xx_hal_dma.c ****   }
 1107              		.loc 1 534 12 discriminator 13 view .LVU327
 1108 00ac 04F56274 		add	r4, r4, #904
 1109 00b0 A342     		cmp	r3, r4
 1110 00b2 41D0     		beq	.L118
 534:Drivers/STM32F1xx_HAL_Driver/Src/stm32f1xx_hal_dma.c ****   }
 1111              		.loc 1 534 12 discriminator 15 view .LVU328
 1112 00b4 1434     		adds	r4, r4, #20
 1113 00b6 A342     		cmp	r3, r4
 1114 00b8 40D0     		beq	.L119
 534:Drivers/STM32F1xx_HAL_Driver/Src/stm32f1xx_hal_dma.c ****   }
 1115              		.loc 1 534 12 discriminator 17 view .LVU329
 1116 00ba 1434     		adds	r4, r4, #20
 1117 00bc A342     		cmp	r3, r4
 1118 00be 3FD0     		beq	.L120
 534:Drivers/STM32F1xx_HAL_Driver/Src/stm32f1xx_hal_dma.c ****   }
 1119              		.loc 1 534 12 discriminator 19 view .LVU330
 1120 00c0 1434     		adds	r4, r4, #20
 1121 00c2 A342     		cmp	r3, r4
 1122 00c4 02D0     		beq	.L193
 534:Drivers/STM32F1xx_HAL_Driver/Src/stm32f1xx_hal_dma.c ****   }
 1123              		.loc 1 534 12 view .LVU331
 1124 00c6 4FF48026 		mov	r6, #262144
 1125 00ca 03E0     		b	.L79
 1126              	.L193:
 1127 00cc 4FF48046 		mov	r6, #16384
 1128 00d0 00E0     		b	.L79
 1129              	.L100:
 529:Drivers/STM32F1xx_HAL_Driver/Src/stm32f1xx_hal_dma.c ****   }
 1130              		.loc 1 529 12 view .LVU332
 1131 00d2 0226     		movs	r6, #2
 1132              	.L79:
 1133 00d4 1546     		mov	r5, r2
 1134 00d6 0F46     		mov	r7, r1
 1135 00d8 0446     		mov	r4, r0
 1136              	.LVL55:
 538:Drivers/STM32F1xx_HAL_Driver/Src/stm32f1xx_hal_dma.c **** 
 1137              		.loc 1 538 3 is_stmt 1 view .LVU333
 538:Drivers/STM32F1xx_HAL_Driver/Src/stm32f1xx_hal_dma.c **** 
 1138              		.loc 1 538 15 is_stmt 0 view .LVU334
 1139 00da FFF7FEFF 		bl	HAL_GetTick
 1140              	.LVL56:
 538:Drivers/STM32F1xx_HAL_Driver/Src/stm32f1xx_hal_dma.c **** 
 1141              		.loc 1 538 15 view .LVU335
 1142 00de 8046     		mov	r8, r0
 1143              	.LVL57:
 540:Drivers/STM32F1xx_HAL_Driver/Src/stm32f1xx_hal_dma.c ****   {
 1144              		.loc 1 540 3 is_stmt 1 view .LVU336
 540:Drivers/STM32F1xx_HAL_Driver/Src/stm32f1xx_hal_dma.c ****   {
 1145              		.loc 1 540 8 is_stmt 0 view .LVU337
 1146 00e0 40E0     		b	.L86
 1147              	.LVL58:
ARM GAS  C:\Users\tianx\AppData\Local\Temp\ccOmbCCE.s 			page 42


 1148              	.L101:
 529:Drivers/STM32F1xx_HAL_Driver/Src/stm32f1xx_hal_dma.c ****   }
 1149              		.loc 1 529 12 view .LVU338
 1150 00e2 2026     		movs	r6, #32
 1151 00e4 F6E7     		b	.L79
 1152              	.L102:
 1153 00e6 4FF40076 		mov	r6, #512
 1154 00ea F3E7     		b	.L79
 1155              	.L103:
 1156 00ec 4FF40056 		mov	r6, #8192
 1157 00f0 F0E7     		b	.L79
 1158              	.L104:
 1159 00f2 4FF40036 		mov	r6, #131072
 1160 00f6 EDE7     		b	.L79
 1161              	.L105:
 1162 00f8 4FF40016 		mov	r6, #2097152
 1163 00fc EAE7     		b	.L79
 1164              	.L106:
 1165 00fe 4FF00076 		mov	r6, #33554432
 1166 0102 E7E7     		b	.L79
 1167              	.L107:
 1168 0104 0226     		movs	r6, #2
 1169 0106 E5E7     		b	.L79
 1170              	.L108:
 1171 0108 2026     		movs	r6, #32
 1172 010a E3E7     		b	.L79
 1173              	.L109:
 1174 010c 4FF40076 		mov	r6, #512
 1175 0110 E0E7     		b	.L79
 1176              	.L111:
 534:Drivers/STM32F1xx_HAL_Driver/Src/stm32f1xx_hal_dma.c ****   }
 1177              		.loc 1 534 12 view .LVU339
 1178 0112 0426     		movs	r6, #4
 1179 0114 DEE7     		b	.L79
 1180              	.L112:
 1181 0116 4026     		movs	r6, #64
 1182 0118 DCE7     		b	.L79
 1183              	.L113:
 1184 011a 4FF48066 		mov	r6, #1024
 1185 011e D9E7     		b	.L79
 1186              	.L114:
 1187 0120 4FF48046 		mov	r6, #16384
 1188 0124 D6E7     		b	.L79
 1189              	.L115:
 1190 0126 4FF48026 		mov	r6, #262144
 1191 012a D3E7     		b	.L79
 1192              	.L116:
 1193 012c 4FF48006 		mov	r6, #4194304
 1194 0130 D0E7     		b	.L79
 1195              	.L117:
 1196 0132 4FF08066 		mov	r6, #67108864
 1197 0136 CDE7     		b	.L79
 1198              	.L118:
 1199 0138 0426     		movs	r6, #4
 1200 013a CBE7     		b	.L79
 1201              	.L119:
 1202 013c 4026     		movs	r6, #64
ARM GAS  C:\Users\tianx\AppData\Local\Temp\ccOmbCCE.s 			page 43


 1203 013e C9E7     		b	.L79
 1204              	.L120:
 1205 0140 4FF48066 		mov	r6, #1024
 1206 0144 C6E7     		b	.L79
 1207              	.LVL59:
 1208              	.L197:
 542:Drivers/STM32F1xx_HAL_Driver/Src/stm32f1xx_hal_dma.c ****     {
 1209              		.loc 1 542 9 view .LVU340
 1210 0146 4FF40043 		mov	r3, #32768
 1211 014a 00E0     		b	.L82
 1212              	.L122:
 1213 014c 0823     		movs	r3, #8
 1214              	.L82:
 542:Drivers/STM32F1xx_HAL_Driver/Src/stm32f1xx_hal_dma.c ****     {
 1215              		.loc 1 542 69 discriminator 46 view .LVU341
 1216 014e 1A42     		tst	r2, r3
 1217 0150 14BF     		ite	ne
 1218 0152 0123     		movne	r3, #1
 1219 0154 0023     		moveq	r3, #0
 1220              	.L83:
 542:Drivers/STM32F1xx_HAL_Driver/Src/stm32f1xx_hal_dma.c ****     {
 1221              		.loc 1 542 7 discriminator 92 view .LVU342
 1222 0156 002B     		cmp	r3, #0
 1223 0158 40F09E80 		bne	.L194
 561:Drivers/STM32F1xx_HAL_Driver/Src/stm32f1xx_hal_dma.c ****     {
 1224              		.loc 1 561 5 is_stmt 1 view .LVU343
 561:Drivers/STM32F1xx_HAL_Driver/Src/stm32f1xx_hal_dma.c ****     {
 1225              		.loc 1 561 7 is_stmt 0 view .LVU344
 1226 015c B5F1FF3F 		cmp	r5, #-1
 1227 0160 40F0A980 		bne	.L195
 1228              	.L86:
 540:Drivers/STM32F1xx_HAL_Driver/Src/stm32f1xx_hal_dma.c ****   {
 1229              		.loc 1 540 9 view .LVU345
 1230 0164 2368     		ldr	r3, [r4]
 1231 0166 1A46     		mov	r2, r3
 540:Drivers/STM32F1xx_HAL_Driver/Src/stm32f1xx_hal_dma.c ****   {
 1232              		.loc 1 540 40 view .LVU346
 1233 0168 6148     		ldr	r0, .L203+4
 1234 016a 8342     		cmp	r3, r0
 1235 016c 40F2B680 		bls	.L88
 540:Drivers/STM32F1xx_HAL_Driver/Src/stm32f1xx_hal_dma.c ****   {
 1236              		.loc 1 540 9 discriminator 1 view .LVU347
 1237 0170 6049     		ldr	r1, .L203+8
 1238 0172 0968     		ldr	r1, [r1]
 540:Drivers/STM32F1xx_HAL_Driver/Src/stm32f1xx_hal_dma.c ****   {
 1239              		.loc 1 540 40 discriminator 1 view .LVU348
 1240 0174 3142     		tst	r1, r6
 1241 0176 0CBF     		ite	eq
 1242 0178 0120     		moveq	r0, #1
 1243 017a 0020     		movne	r0, #0
 1244              	.L89:
 540:Drivers/STM32F1xx_HAL_Driver/Src/stm32f1xx_hal_dma.c ****   {
 1245              		.loc 1 540 8 discriminator 4 view .LVU349
 1246 017c 0028     		cmp	r0, #0
 1247 017e 00F0BD80 		beq	.L196
 542:Drivers/STM32F1xx_HAL_Driver/Src/stm32f1xx_hal_dma.c ****     {
 1248              		.loc 1 542 5 is_stmt 1 view .LVU350
ARM GAS  C:\Users\tianx\AppData\Local\Temp\ccOmbCCE.s 			page 44


 542:Drivers/STM32F1xx_HAL_Driver/Src/stm32f1xx_hal_dma.c ****     {
 1249              		.loc 1 542 69 is_stmt 0 view .LVU351
 1250 0182 5B4A     		ldr	r2, .L203+4
 1251 0184 9342     		cmp	r3, r2
 1252 0186 3FD9     		bls	.L81
 542:Drivers/STM32F1xx_HAL_Driver/Src/stm32f1xx_hal_dma.c ****     {
 1253              		.loc 1 542 9 discriminator 1 view .LVU352
 1254 0188 02F56072 		add	r2, r2, #896
 1255 018c 1268     		ldr	r2, [r2]
 1256 018e 5749     		ldr	r1, .L203
 1257 0190 8B42     		cmp	r3, r1
 1258 0192 DBD0     		beq	.L122
 542:Drivers/STM32F1xx_HAL_Driver/Src/stm32f1xx_hal_dma.c ****     {
 1259              		.loc 1 542 9 discriminator 3 view .LVU353
 1260 0194 1431     		adds	r1, r1, #20
 1261 0196 8B42     		cmp	r3, r1
 1262 0198 1ED0     		beq	.L123
 542:Drivers/STM32F1xx_HAL_Driver/Src/stm32f1xx_hal_dma.c ****     {
 1263              		.loc 1 542 9 discriminator 5 view .LVU354
 1264 019a 1431     		adds	r1, r1, #20
 1265 019c 8B42     		cmp	r3, r1
 1266 019e 1DD0     		beq	.L124
 542:Drivers/STM32F1xx_HAL_Driver/Src/stm32f1xx_hal_dma.c ****     {
 1267              		.loc 1 542 9 discriminator 7 view .LVU355
 1268 01a0 1431     		adds	r1, r1, #20
 1269 01a2 8B42     		cmp	r3, r1
 1270 01a4 1DD0     		beq	.L125
 542:Drivers/STM32F1xx_HAL_Driver/Src/stm32f1xx_hal_dma.c ****     {
 1271              		.loc 1 542 9 discriminator 9 view .LVU356
 1272 01a6 1431     		adds	r1, r1, #20
 1273 01a8 8B42     		cmp	r3, r1
 1274 01aa 1DD0     		beq	.L126
 542:Drivers/STM32F1xx_HAL_Driver/Src/stm32f1xx_hal_dma.c ****     {
 1275              		.loc 1 542 9 discriminator 11 view .LVU357
 1276 01ac 1431     		adds	r1, r1, #20
 1277 01ae 8B42     		cmp	r3, r1
 1278 01b0 1DD0     		beq	.L127
 542:Drivers/STM32F1xx_HAL_Driver/Src/stm32f1xx_hal_dma.c ****     {
 1279              		.loc 1 542 9 discriminator 13 view .LVU358
 1280 01b2 1431     		adds	r1, r1, #20
 1281 01b4 8B42     		cmp	r3, r1
 1282 01b6 1DD0     		beq	.L128
 542:Drivers/STM32F1xx_HAL_Driver/Src/stm32f1xx_hal_dma.c ****     {
 1283              		.loc 1 542 9 discriminator 15 view .LVU359
 1284 01b8 01F56271 		add	r1, r1, #904
 1285 01bc 8B42     		cmp	r3, r1
 1286 01be 1CD0     		beq	.L129
 542:Drivers/STM32F1xx_HAL_Driver/Src/stm32f1xx_hal_dma.c ****     {
 1287              		.loc 1 542 9 discriminator 17 view .LVU360
 1288 01c0 1431     		adds	r1, r1, #20
 1289 01c2 8B42     		cmp	r3, r1
 1290 01c4 1BD0     		beq	.L130
 542:Drivers/STM32F1xx_HAL_Driver/Src/stm32f1xx_hal_dma.c ****     {
 1291              		.loc 1 542 9 discriminator 19 view .LVU361
 1292 01c6 1431     		adds	r1, r1, #20
 1293 01c8 8B42     		cmp	r3, r1
 1294 01ca 1AD0     		beq	.L131
ARM GAS  C:\Users\tianx\AppData\Local\Temp\ccOmbCCE.s 			page 45


 542:Drivers/STM32F1xx_HAL_Driver/Src/stm32f1xx_hal_dma.c ****     {
 1295              		.loc 1 542 9 discriminator 21 view .LVU362
 1296 01cc 1431     		adds	r1, r1, #20
 1297 01ce 8B42     		cmp	r3, r1
 1298 01d0 B9D0     		beq	.L197
 542:Drivers/STM32F1xx_HAL_Driver/Src/stm32f1xx_hal_dma.c ****     {
 1299              		.loc 1 542 9 view .LVU363
 1300 01d2 4FF40023 		mov	r3, #524288
 1301 01d6 BAE7     		b	.L82
 1302              	.L123:
 1303 01d8 8023     		movs	r3, #128
 1304 01da B8E7     		b	.L82
 1305              	.L124:
 1306 01dc 4FF40063 		mov	r3, #2048
 1307 01e0 B5E7     		b	.L82
 1308              	.L125:
 1309 01e2 4FF40043 		mov	r3, #32768
 1310 01e6 B2E7     		b	.L82
 1311              	.L126:
 1312 01e8 4FF40023 		mov	r3, #524288
 1313 01ec AFE7     		b	.L82
 1314              	.L127:
 1315 01ee 4FF40003 		mov	r3, #8388608
 1316 01f2 ACE7     		b	.L82
 1317              	.L128:
 1318 01f4 4FF00063 		mov	r3, #134217728
 1319 01f8 A9E7     		b	.L82
 1320              	.L129:
 1321 01fa 0823     		movs	r3, #8
 1322 01fc A7E7     		b	.L82
 1323              	.L130:
 1324 01fe 8023     		movs	r3, #128
 1325 0200 A5E7     		b	.L82
 1326              	.L131:
 1327 0202 4FF40063 		mov	r3, #2048
 1328 0206 A2E7     		b	.L82
 1329              	.L81:
 542:Drivers/STM32F1xx_HAL_Driver/Src/stm32f1xx_hal_dma.c ****     {
 1330              		.loc 1 542 9 discriminator 2 view .LVU364
 1331 0208 3B4A     		ldr	r2, .L203+12
 1332 020a 1268     		ldr	r2, [r2]
 1333 020c 3749     		ldr	r1, .L203
 1334 020e 8B42     		cmp	r3, r1
 1335 0210 24D0     		beq	.L133
 542:Drivers/STM32F1xx_HAL_Driver/Src/stm32f1xx_hal_dma.c ****     {
 1336              		.loc 1 542 9 discriminator 48 view .LVU365
 1337 0212 1431     		adds	r1, r1, #20
 1338 0214 8B42     		cmp	r3, r1
 1339 0216 27D0     		beq	.L134
 542:Drivers/STM32F1xx_HAL_Driver/Src/stm32f1xx_hal_dma.c ****     {
 1340              		.loc 1 542 9 discriminator 50 view .LVU366
 1341 0218 1431     		adds	r1, r1, #20
 1342 021a 8B42     		cmp	r3, r1
 1343 021c 26D0     		beq	.L135
 542:Drivers/STM32F1xx_HAL_Driver/Src/stm32f1xx_hal_dma.c ****     {
 1344              		.loc 1 542 9 discriminator 52 view .LVU367
 1345 021e 1431     		adds	r1, r1, #20
ARM GAS  C:\Users\tianx\AppData\Local\Temp\ccOmbCCE.s 			page 46


 1346 0220 8B42     		cmp	r3, r1
 1347 0222 26D0     		beq	.L136
 542:Drivers/STM32F1xx_HAL_Driver/Src/stm32f1xx_hal_dma.c ****     {
 1348              		.loc 1 542 9 discriminator 54 view .LVU368
 1349 0224 1431     		adds	r1, r1, #20
 1350 0226 8B42     		cmp	r3, r1
 1351 0228 26D0     		beq	.L137
 542:Drivers/STM32F1xx_HAL_Driver/Src/stm32f1xx_hal_dma.c ****     {
 1352              		.loc 1 542 9 discriminator 56 view .LVU369
 1353 022a 1431     		adds	r1, r1, #20
 1354 022c 8B42     		cmp	r3, r1
 1355 022e 26D0     		beq	.L138
 542:Drivers/STM32F1xx_HAL_Driver/Src/stm32f1xx_hal_dma.c ****     {
 1356              		.loc 1 542 9 discriminator 58 view .LVU370
 1357 0230 1431     		adds	r1, r1, #20
 1358 0232 8B42     		cmp	r3, r1
 1359 0234 26D0     		beq	.L139
 542:Drivers/STM32F1xx_HAL_Driver/Src/stm32f1xx_hal_dma.c ****     {
 1360              		.loc 1 542 9 discriminator 60 view .LVU371
 1361 0236 01F56271 		add	r1, r1, #904
 1362 023a 8B42     		cmp	r3, r1
 1363 023c 25D0     		beq	.L140
 542:Drivers/STM32F1xx_HAL_Driver/Src/stm32f1xx_hal_dma.c ****     {
 1364              		.loc 1 542 9 discriminator 62 view .LVU372
 1365 023e 1431     		adds	r1, r1, #20
 1366 0240 8B42     		cmp	r3, r1
 1367 0242 24D0     		beq	.L141
 542:Drivers/STM32F1xx_HAL_Driver/Src/stm32f1xx_hal_dma.c ****     {
 1368              		.loc 1 542 9 discriminator 64 view .LVU373
 1369 0244 1431     		adds	r1, r1, #20
 1370 0246 8B42     		cmp	r3, r1
 1371 0248 23D0     		beq	.L142
 542:Drivers/STM32F1xx_HAL_Driver/Src/stm32f1xx_hal_dma.c ****     {
 1372              		.loc 1 542 9 discriminator 66 view .LVU374
 1373 024a 1431     		adds	r1, r1, #20
 1374 024c 8B42     		cmp	r3, r1
 1375 024e 02D0     		beq	.L198
 542:Drivers/STM32F1xx_HAL_Driver/Src/stm32f1xx_hal_dma.c ****     {
 1376              		.loc 1 542 9 view .LVU375
 1377 0250 4FF40023 		mov	r3, #524288
 1378 0254 03E0     		b	.L84
 1379              	.L198:
 1380 0256 4FF40043 		mov	r3, #32768
 1381 025a 00E0     		b	.L84
 1382              	.L133:
 1383 025c 0823     		movs	r3, #8
 1384              	.L84:
 542:Drivers/STM32F1xx_HAL_Driver/Src/stm32f1xx_hal_dma.c ****     {
 1385              		.loc 1 542 69 discriminator 91 view .LVU376
 1386 025e 1A42     		tst	r2, r3
 1387 0260 14BF     		ite	ne
 1388 0262 0123     		movne	r3, #1
 1389 0264 0023     		moveq	r3, #0
 1390 0266 76E7     		b	.L83
 1391              	.L134:
 542:Drivers/STM32F1xx_HAL_Driver/Src/stm32f1xx_hal_dma.c ****     {
 1392              		.loc 1 542 9 view .LVU377
ARM GAS  C:\Users\tianx\AppData\Local\Temp\ccOmbCCE.s 			page 47


 1393 0268 8023     		movs	r3, #128
 1394 026a F8E7     		b	.L84
 1395              	.L135:
 1396 026c 4FF40063 		mov	r3, #2048
 1397 0270 F5E7     		b	.L84
 1398              	.L136:
 1399 0272 4FF40043 		mov	r3, #32768
 1400 0276 F2E7     		b	.L84
 1401              	.L137:
 1402 0278 4FF40023 		mov	r3, #524288
 1403 027c EFE7     		b	.L84
 1404              	.L138:
 1405 027e 4FF40003 		mov	r3, #8388608
 1406 0282 ECE7     		b	.L84
 1407              	.L139:
 1408 0284 4FF00063 		mov	r3, #134217728
 1409 0288 E9E7     		b	.L84
 1410              	.L140:
 1411 028a 0823     		movs	r3, #8
 1412 028c E7E7     		b	.L84
 1413              	.L141:
 1414 028e 8023     		movs	r3, #128
 1415 0290 E5E7     		b	.L84
 1416              	.L142:
 1417 0292 4FF40063 		mov	r3, #2048
 1418 0296 E2E7     		b	.L84
 1419              	.L194:
 547:Drivers/STM32F1xx_HAL_Driver/Src/stm32f1xx_hal_dma.c **** 
 1420              		.loc 1 547 7 is_stmt 1 view .LVU378
 547:Drivers/STM32F1xx_HAL_Driver/Src/stm32f1xx_hal_dma.c **** 
 1421              		.loc 1 547 57 is_stmt 0 view .LVU379
 1422 0298 236C     		ldr	r3, [r4, #64]
 547:Drivers/STM32F1xx_HAL_Driver/Src/stm32f1xx_hal_dma.c **** 
 1423              		.loc 1 547 11 view .LVU380
 1424 029a E26B     		ldr	r2, [r4, #60]
 547:Drivers/STM32F1xx_HAL_Driver/Src/stm32f1xx_hal_dma.c **** 
 1425              		.loc 1 547 50 view .LVU381
 1426 029c 0120     		movs	r0, #1
 1427 029e 00FA03F3 		lsl	r3, r0, r3
 547:Drivers/STM32F1xx_HAL_Driver/Src/stm32f1xx_hal_dma.c **** 
 1428              		.loc 1 547 34 view .LVU382
 1429 02a2 5360     		str	r3, [r2, #4]
 550:Drivers/STM32F1xx_HAL_Driver/Src/stm32f1xx_hal_dma.c **** 
 1430              		.loc 1 550 7 is_stmt 1 view .LVU383
 1431 02a4 A36B     		ldr	r3, [r4, #56]
 1432 02a6 0343     		orrs	r3, r3, r0
 1433 02a8 A363     		str	r3, [r4, #56]
 553:Drivers/STM32F1xx_HAL_Driver/Src/stm32f1xx_hal_dma.c **** 
 1434              		.loc 1 553 7 view .LVU384
 553:Drivers/STM32F1xx_HAL_Driver/Src/stm32f1xx_hal_dma.c **** 
 1435              		.loc 1 553 18 is_stmt 0 view .LVU385
 1436 02aa 84F82100 		strb	r0, [r4, #33]
 556:Drivers/STM32F1xx_HAL_Driver/Src/stm32f1xx_hal_dma.c **** 
 1437              		.loc 1 556 7 is_stmt 1 view .LVU386
 556:Drivers/STM32F1xx_HAL_Driver/Src/stm32f1xx_hal_dma.c **** 
 1438              		.loc 1 556 7 view .LVU387
 1439 02ae 0023     		movs	r3, #0
ARM GAS  C:\Users\tianx\AppData\Local\Temp\ccOmbCCE.s 			page 48


 1440 02b0 84F82030 		strb	r3, [r4, #32]
 558:Drivers/STM32F1xx_HAL_Driver/Src/stm32f1xx_hal_dma.c ****     }
 1441              		.loc 1 558 7 view .LVU388
 558:Drivers/STM32F1xx_HAL_Driver/Src/stm32f1xx_hal_dma.c ****     }
 1442              		.loc 1 558 14 is_stmt 0 view .LVU389
 1443 02b4 E0E6     		b	.L76
 1444              	.L195:
 563:Drivers/STM32F1xx_HAL_Driver/Src/stm32f1xx_hal_dma.c ****       {
 1445              		.loc 1 563 7 is_stmt 1 view .LVU390
 563:Drivers/STM32F1xx_HAL_Driver/Src/stm32f1xx_hal_dma.c ****       {
 1446              		.loc 1 563 9 is_stmt 0 view .LVU391
 1447 02b6 35B1     		cbz	r5, .L87
 563:Drivers/STM32F1xx_HAL_Driver/Src/stm32f1xx_hal_dma.c ****       {
 1448              		.loc 1 563 31 discriminator 1 view .LVU392
 1449 02b8 FFF7FEFF 		bl	HAL_GetTick
 1450              	.LVL60:
 563:Drivers/STM32F1xx_HAL_Driver/Src/stm32f1xx_hal_dma.c ****       {
 1451              		.loc 1 563 45 discriminator 1 view .LVU393
 1452 02bc A0EB0800 		sub	r0, r0, r8
 563:Drivers/STM32F1xx_HAL_Driver/Src/stm32f1xx_hal_dma.c ****       {
 1453              		.loc 1 563 26 discriminator 1 view .LVU394
 1454 02c0 A842     		cmp	r0, r5
 1455 02c2 7FF64FAF 		bls	.L86
 1456              	.L87:
 566:Drivers/STM32F1xx_HAL_Driver/Src/stm32f1xx_hal_dma.c **** 
 1457              		.loc 1 566 9 is_stmt 1 view .LVU395
 1458 02c6 A36B     		ldr	r3, [r4, #56]
 1459 02c8 43F02003 		orr	r3, r3, #32
 1460 02cc A363     		str	r3, [r4, #56]
 569:Drivers/STM32F1xx_HAL_Driver/Src/stm32f1xx_hal_dma.c **** 
 1461              		.loc 1 569 9 view .LVU396
 569:Drivers/STM32F1xx_HAL_Driver/Src/stm32f1xx_hal_dma.c **** 
 1462              		.loc 1 569 21 is_stmt 0 view .LVU397
 1463 02ce 0120     		movs	r0, #1
 1464 02d0 84F82100 		strb	r0, [r4, #33]
 572:Drivers/STM32F1xx_HAL_Driver/Src/stm32f1xx_hal_dma.c **** 
 1465              		.loc 1 572 9 is_stmt 1 view .LVU398
 572:Drivers/STM32F1xx_HAL_Driver/Src/stm32f1xx_hal_dma.c **** 
 1466              		.loc 1 572 9 view .LVU399
 1467 02d4 0023     		movs	r3, #0
 1468 02d6 84F82030 		strb	r3, [r4, #32]
 574:Drivers/STM32F1xx_HAL_Driver/Src/stm32f1xx_hal_dma.c ****       }
 1469              		.loc 1 574 9 view .LVU400
 574:Drivers/STM32F1xx_HAL_Driver/Src/stm32f1xx_hal_dma.c ****       }
 1470              		.loc 1 574 16 is_stmt 0 view .LVU401
 1471 02da CDE6     		b	.L76
 1472              	.L88:
 540:Drivers/STM32F1xx_HAL_Driver/Src/stm32f1xx_hal_dma.c ****   {
 1473              		.loc 1 540 9 discriminator 2 view .LVU402
 1474 02dc 0649     		ldr	r1, .L203+12
 1475 02de 0968     		ldr	r1, [r1]
 540:Drivers/STM32F1xx_HAL_Driver/Src/stm32f1xx_hal_dma.c ****   {
 1476              		.loc 1 540 40 discriminator 2 view .LVU403
 1477 02e0 3142     		tst	r1, r6
 1478 02e2 0CBF     		ite	eq
 1479 02e4 0120     		moveq	r0, #1
 1480 02e6 0020     		movne	r0, #0
ARM GAS  C:\Users\tianx\AppData\Local\Temp\ccOmbCCE.s 			page 49


 1481 02e8 48E7     		b	.L89
 1482              	.L204:
 1483 02ea 00BF     		.align	2
 1484              	.L203:
 1485 02ec 08000240 		.word	1073872904
 1486 02f0 80000240 		.word	1073873024
 1487 02f4 00040240 		.word	1073873920
 1488 02f8 00000240 		.word	1073872896
 1489              	.L196:
 579:Drivers/STM32F1xx_HAL_Driver/Src/stm32f1xx_hal_dma.c ****   {
 1490              		.loc 1 579 3 is_stmt 1 view .LVU404
 579:Drivers/STM32F1xx_HAL_Driver/Src/stm32f1xx_hal_dma.c ****   {
 1491              		.loc 1 579 5 is_stmt 0 view .LVU405
 1492 02fc 002F     		cmp	r7, #0
 1493 02fe 40F09080 		bne	.L91
 582:Drivers/STM32F1xx_HAL_Driver/Src/stm32f1xx_hal_dma.c **** 
 1494              		.loc 1 582 5 is_stmt 1 view .LVU406
 1495 0302 8D49     		ldr	r1, .L205
 1496 0304 8A42     		cmp	r2, r1
 1497 0306 48D9     		bls	.L92
 582:Drivers/STM32F1xx_HAL_Driver/Src/stm32f1xx_hal_dma.c **** 
 1498              		.loc 1 582 5 is_stmt 0 discriminator 1 view .LVU407
 1499 0308 8C4A     		ldr	r2, .L205+4
 1500 030a 9342     		cmp	r3, r2
 1501 030c 23D0     		beq	.L144
 582:Drivers/STM32F1xx_HAL_Driver/Src/stm32f1xx_hal_dma.c **** 
 1502              		.loc 1 582 5 discriminator 3 view .LVU408
 1503 030e 1432     		adds	r2, r2, #20
 1504 0310 9342     		cmp	r3, r2
 1505 0312 2AD0     		beq	.L145
 582:Drivers/STM32F1xx_HAL_Driver/Src/stm32f1xx_hal_dma.c **** 
 1506              		.loc 1 582 5 discriminator 5 view .LVU409
 1507 0314 1432     		adds	r2, r2, #20
 1508 0316 9342     		cmp	r3, r2
 1509 0318 29D0     		beq	.L146
 582:Drivers/STM32F1xx_HAL_Driver/Src/stm32f1xx_hal_dma.c **** 
 1510              		.loc 1 582 5 discriminator 7 view .LVU410
 1511 031a 1432     		adds	r2, r2, #20
 1512 031c 9342     		cmp	r3, r2
 1513 031e 29D0     		beq	.L147
 582:Drivers/STM32F1xx_HAL_Driver/Src/stm32f1xx_hal_dma.c **** 
 1514              		.loc 1 582 5 discriminator 9 view .LVU411
 1515 0320 1432     		adds	r2, r2, #20
 1516 0322 9342     		cmp	r3, r2
 1517 0324 29D0     		beq	.L148
 582:Drivers/STM32F1xx_HAL_Driver/Src/stm32f1xx_hal_dma.c **** 
 1518              		.loc 1 582 5 discriminator 11 view .LVU412
 1519 0326 1432     		adds	r2, r2, #20
 1520 0328 9342     		cmp	r3, r2
 1521 032a 29D0     		beq	.L149
 582:Drivers/STM32F1xx_HAL_Driver/Src/stm32f1xx_hal_dma.c **** 
 1522              		.loc 1 582 5 discriminator 13 view .LVU413
 1523 032c 8B42     		cmp	r3, r1
 1524 032e 2AD0     		beq	.L150
 582:Drivers/STM32F1xx_HAL_Driver/Src/stm32f1xx_hal_dma.c **** 
 1525              		.loc 1 582 5 discriminator 15 view .LVU414
 1526 0330 01F56272 		add	r2, r1, #904
ARM GAS  C:\Users\tianx\AppData\Local\Temp\ccOmbCCE.s 			page 50


 1527 0334 9342     		cmp	r3, r2
 1528 0336 29D0     		beq	.L151
 582:Drivers/STM32F1xx_HAL_Driver/Src/stm32f1xx_hal_dma.c **** 
 1529              		.loc 1 582 5 discriminator 17 view .LVU415
 1530 0338 1432     		adds	r2, r2, #20
 1531 033a 9342     		cmp	r3, r2
 1532 033c 28D0     		beq	.L152
 582:Drivers/STM32F1xx_HAL_Driver/Src/stm32f1xx_hal_dma.c **** 
 1533              		.loc 1 582 5 discriminator 19 view .LVU416
 1534 033e 1432     		adds	r2, r2, #20
 1535 0340 9342     		cmp	r3, r2
 1536 0342 27D0     		beq	.L153
 582:Drivers/STM32F1xx_HAL_Driver/Src/stm32f1xx_hal_dma.c **** 
 1537              		.loc 1 582 5 discriminator 21 view .LVU417
 1538 0344 1432     		adds	r2, r2, #20
 1539 0346 9342     		cmp	r3, r2
 1540 0348 02D0     		beq	.L199
 582:Drivers/STM32F1xx_HAL_Driver/Src/stm32f1xx_hal_dma.c **** 
 1541              		.loc 1 582 5 view .LVU418
 1542 034a 4FF40033 		mov	r3, #131072
 1543 034e 03E0     		b	.L93
 1544              	.L199:
 1545 0350 4FF40053 		mov	r3, #8192
 1546 0354 00E0     		b	.L93
 1547              	.L144:
 1548 0356 0223     		movs	r3, #2
 1549              	.L93:
 582:Drivers/STM32F1xx_HAL_Driver/Src/stm32f1xx_hal_dma.c **** 
 1550              		.loc 1 582 5 discriminator 46 view .LVU419
 1551 0358 794A     		ldr	r2, .L205+8
 1552 035a 5360     		str	r3, [r2, #4]
 1553              	.L94:
 586:Drivers/STM32F1xx_HAL_Driver/Src/stm32f1xx_hal_dma.c ****   }
 1554              		.loc 1 586 5 is_stmt 1 view .LVU420
 586:Drivers/STM32F1xx_HAL_Driver/Src/stm32f1xx_hal_dma.c ****   }
 1555              		.loc 1 586 17 is_stmt 0 view .LVU421
 1556 035c 0123     		movs	r3, #1
 1557 035e 84F82130 		strb	r3, [r4, #33]
 1558              	.L96:
 595:Drivers/STM32F1xx_HAL_Driver/Src/stm32f1xx_hal_dma.c **** 
 1559              		.loc 1 595 3 is_stmt 1 view .LVU422
 595:Drivers/STM32F1xx_HAL_Driver/Src/stm32f1xx_hal_dma.c **** 
 1560              		.loc 1 595 3 view .LVU423
 1561 0362 0020     		movs	r0, #0
 1562 0364 84F82000 		strb	r0, [r4, #32]
 597:Drivers/STM32F1xx_HAL_Driver/Src/stm32f1xx_hal_dma.c **** }
 1563              		.loc 1 597 3 view .LVU424
 597:Drivers/STM32F1xx_HAL_Driver/Src/stm32f1xx_hal_dma.c **** }
 1564              		.loc 1 597 10 is_stmt 0 view .LVU425
 1565 0368 86E6     		b	.L76
 1566              	.L145:
 582:Drivers/STM32F1xx_HAL_Driver/Src/stm32f1xx_hal_dma.c **** 
 1567              		.loc 1 582 5 view .LVU426
 1568 036a 2023     		movs	r3, #32
 1569 036c F4E7     		b	.L93
 1570              	.L146:
 1571 036e 4FF40073 		mov	r3, #512
ARM GAS  C:\Users\tianx\AppData\Local\Temp\ccOmbCCE.s 			page 51


 1572 0372 F1E7     		b	.L93
 1573              	.L147:
 1574 0374 4FF40053 		mov	r3, #8192
 1575 0378 EEE7     		b	.L93
 1576              	.L148:
 1577 037a 4FF40033 		mov	r3, #131072
 1578 037e EBE7     		b	.L93
 1579              	.L149:
 1580 0380 4FF40013 		mov	r3, #2097152
 1581 0384 E8E7     		b	.L93
 1582              	.L150:
 1583 0386 4FF00073 		mov	r3, #33554432
 1584 038a E5E7     		b	.L93
 1585              	.L151:
 1586 038c 0223     		movs	r3, #2
 1587 038e E3E7     		b	.L93
 1588              	.L152:
 1589 0390 2023     		movs	r3, #32
 1590 0392 E1E7     		b	.L93
 1591              	.L153:
 1592 0394 4FF40073 		mov	r3, #512
 1593 0398 DEE7     		b	.L93
 1594              	.L92:
 582:Drivers/STM32F1xx_HAL_Driver/Src/stm32f1xx_hal_dma.c **** 
 1595              		.loc 1 582 5 discriminator 2 view .LVU427
 1596 039a 684A     		ldr	r2, .L205+4
 1597 039c 9342     		cmp	r3, r2
 1598 039e 24D0     		beq	.L155
 582:Drivers/STM32F1xx_HAL_Driver/Src/stm32f1xx_hal_dma.c **** 
 1599              		.loc 1 582 5 discriminator 47 view .LVU428
 1600 03a0 1432     		adds	r2, r2, #20
 1601 03a2 9342     		cmp	r3, r2
 1602 03a4 25D0     		beq	.L156
 582:Drivers/STM32F1xx_HAL_Driver/Src/stm32f1xx_hal_dma.c **** 
 1603              		.loc 1 582 5 discriminator 49 view .LVU429
 1604 03a6 1432     		adds	r2, r2, #20
 1605 03a8 9342     		cmp	r3, r2
 1606 03aa 24D0     		beq	.L157
 582:Drivers/STM32F1xx_HAL_Driver/Src/stm32f1xx_hal_dma.c **** 
 1607              		.loc 1 582 5 discriminator 51 view .LVU430
 1608 03ac 1432     		adds	r2, r2, #20
 1609 03ae 9342     		cmp	r3, r2
 1610 03b0 24D0     		beq	.L158
 582:Drivers/STM32F1xx_HAL_Driver/Src/stm32f1xx_hal_dma.c **** 
 1611              		.loc 1 582 5 discriminator 53 view .LVU431
 1612 03b2 1432     		adds	r2, r2, #20
 1613 03b4 9342     		cmp	r3, r2
 1614 03b6 24D0     		beq	.L159
 582:Drivers/STM32F1xx_HAL_Driver/Src/stm32f1xx_hal_dma.c **** 
 1615              		.loc 1 582 5 discriminator 55 view .LVU432
 1616 03b8 1432     		adds	r2, r2, #20
 1617 03ba 9342     		cmp	r3, r2
 1618 03bc 24D0     		beq	.L160
 582:Drivers/STM32F1xx_HAL_Driver/Src/stm32f1xx_hal_dma.c **** 
 1619              		.loc 1 582 5 discriminator 57 view .LVU433
 1620 03be 1432     		adds	r2, r2, #20
 1621 03c0 9342     		cmp	r3, r2
ARM GAS  C:\Users\tianx\AppData\Local\Temp\ccOmbCCE.s 			page 52


 1622 03c2 24D0     		beq	.L161
 582:Drivers/STM32F1xx_HAL_Driver/Src/stm32f1xx_hal_dma.c **** 
 1623              		.loc 1 582 5 discriminator 59 view .LVU434
 1624 03c4 02F56272 		add	r2, r2, #904
 1625 03c8 9342     		cmp	r3, r2
 1626 03ca 23D0     		beq	.L162
 582:Drivers/STM32F1xx_HAL_Driver/Src/stm32f1xx_hal_dma.c **** 
 1627              		.loc 1 582 5 discriminator 61 view .LVU435
 1628 03cc 1432     		adds	r2, r2, #20
 1629 03ce 9342     		cmp	r3, r2
 1630 03d0 22D0     		beq	.L163
 582:Drivers/STM32F1xx_HAL_Driver/Src/stm32f1xx_hal_dma.c **** 
 1631              		.loc 1 582 5 discriminator 63 view .LVU436
 1632 03d2 1432     		adds	r2, r2, #20
 1633 03d4 9342     		cmp	r3, r2
 1634 03d6 21D0     		beq	.L164
 582:Drivers/STM32F1xx_HAL_Driver/Src/stm32f1xx_hal_dma.c **** 
 1635              		.loc 1 582 5 discriminator 65 view .LVU437
 1636 03d8 1432     		adds	r2, r2, #20
 1637 03da 9342     		cmp	r3, r2
 1638 03dc 02D0     		beq	.L200
 582:Drivers/STM32F1xx_HAL_Driver/Src/stm32f1xx_hal_dma.c **** 
 1639              		.loc 1 582 5 view .LVU438
 1640 03de 4FF40033 		mov	r3, #131072
 1641 03e2 03E0     		b	.L95
 1642              	.L200:
 1643 03e4 4FF40053 		mov	r3, #8192
 1644 03e8 00E0     		b	.L95
 1645              	.L155:
 1646 03ea 0223     		movs	r3, #2
 1647              	.L95:
 582:Drivers/STM32F1xx_HAL_Driver/Src/stm32f1xx_hal_dma.c **** 
 1648              		.loc 1 582 5 discriminator 90 view .LVU439
 1649 03ec 554A     		ldr	r2, .L205+12
 1650 03ee 5360     		str	r3, [r2, #4]
 1651 03f0 B4E7     		b	.L94
 1652              	.L156:
 582:Drivers/STM32F1xx_HAL_Driver/Src/stm32f1xx_hal_dma.c **** 
 1653              		.loc 1 582 5 view .LVU440
 1654 03f2 2023     		movs	r3, #32
 1655 03f4 FAE7     		b	.L95
 1656              	.L157:
 1657 03f6 4FF40073 		mov	r3, #512
 1658 03fa F7E7     		b	.L95
 1659              	.L158:
 1660 03fc 4FF40053 		mov	r3, #8192
 1661 0400 F4E7     		b	.L95
 1662              	.L159:
 1663 0402 4FF40033 		mov	r3, #131072
 1664 0406 F1E7     		b	.L95
 1665              	.L160:
 1666 0408 4FF40013 		mov	r3, #2097152
 1667 040c EEE7     		b	.L95
 1668              	.L161:
 1669 040e 4FF00073 		mov	r3, #33554432
 1670 0412 EBE7     		b	.L95
 1671              	.L162:
ARM GAS  C:\Users\tianx\AppData\Local\Temp\ccOmbCCE.s 			page 53


 1672 0414 0223     		movs	r3, #2
 1673 0416 E9E7     		b	.L95
 1674              	.L163:
 1675 0418 2023     		movs	r3, #32
 1676 041a E7E7     		b	.L95
 1677              	.L164:
 1678 041c 4FF40073 		mov	r3, #512
 1679 0420 E4E7     		b	.L95
 1680              	.L91:
 591:Drivers/STM32F1xx_HAL_Driver/Src/stm32f1xx_hal_dma.c ****   }
 1681              		.loc 1 591 5 is_stmt 1 view .LVU441
 1682 0422 4549     		ldr	r1, .L205
 1683 0424 8A42     		cmp	r2, r1
 1684 0426 42D9     		bls	.L97
 591:Drivers/STM32F1xx_HAL_Driver/Src/stm32f1xx_hal_dma.c ****   }
 1685              		.loc 1 591 5 is_stmt 0 discriminator 1 view .LVU442
 1686 0428 444A     		ldr	r2, .L205+4
 1687 042a 9342     		cmp	r3, r2
 1688 042c 23D0     		beq	.L166
 591:Drivers/STM32F1xx_HAL_Driver/Src/stm32f1xx_hal_dma.c ****   }
 1689              		.loc 1 591 5 discriminator 3 view .LVU443
 1690 042e 1432     		adds	r2, r2, #20
 1691 0430 9342     		cmp	r3, r2
 1692 0432 24D0     		beq	.L167
 591:Drivers/STM32F1xx_HAL_Driver/Src/stm32f1xx_hal_dma.c ****   }
 1693              		.loc 1 591 5 discriminator 5 view .LVU444
 1694 0434 1432     		adds	r2, r2, #20
 1695 0436 9342     		cmp	r3, r2
 1696 0438 23D0     		beq	.L168
 591:Drivers/STM32F1xx_HAL_Driver/Src/stm32f1xx_hal_dma.c ****   }
 1697              		.loc 1 591 5 discriminator 7 view .LVU445
 1698 043a 1432     		adds	r2, r2, #20
 1699 043c 9342     		cmp	r3, r2
 1700 043e 23D0     		beq	.L169
 591:Drivers/STM32F1xx_HAL_Driver/Src/stm32f1xx_hal_dma.c ****   }
 1701              		.loc 1 591 5 discriminator 9 view .LVU446
 1702 0440 1432     		adds	r2, r2, #20
 1703 0442 9342     		cmp	r3, r2
 1704 0444 23D0     		beq	.L170
 591:Drivers/STM32F1xx_HAL_Driver/Src/stm32f1xx_hal_dma.c ****   }
 1705              		.loc 1 591 5 discriminator 11 view .LVU447
 1706 0446 1432     		adds	r2, r2, #20
 1707 0448 9342     		cmp	r3, r2
 1708 044a 23D0     		beq	.L171
 591:Drivers/STM32F1xx_HAL_Driver/Src/stm32f1xx_hal_dma.c ****   }
 1709              		.loc 1 591 5 discriminator 13 view .LVU448
 1710 044c 8B42     		cmp	r3, r1
 1711 044e 24D0     		beq	.L172
 591:Drivers/STM32F1xx_HAL_Driver/Src/stm32f1xx_hal_dma.c ****   }
 1712              		.loc 1 591 5 discriminator 15 view .LVU449
 1713 0450 01F56272 		add	r2, r1, #904
 1714 0454 9342     		cmp	r3, r2
 1715 0456 23D0     		beq	.L173
 591:Drivers/STM32F1xx_HAL_Driver/Src/stm32f1xx_hal_dma.c ****   }
 1716              		.loc 1 591 5 discriminator 17 view .LVU450
 1717 0458 1432     		adds	r2, r2, #20
 1718 045a 9342     		cmp	r3, r2
ARM GAS  C:\Users\tianx\AppData\Local\Temp\ccOmbCCE.s 			page 54


 1719 045c 22D0     		beq	.L174
 591:Drivers/STM32F1xx_HAL_Driver/Src/stm32f1xx_hal_dma.c ****   }
 1720              		.loc 1 591 5 discriminator 19 view .LVU451
 1721 045e 1432     		adds	r2, r2, #20
 1722 0460 9342     		cmp	r3, r2
 1723 0462 21D0     		beq	.L175
 591:Drivers/STM32F1xx_HAL_Driver/Src/stm32f1xx_hal_dma.c ****   }
 1724              		.loc 1 591 5 discriminator 21 view .LVU452
 1725 0464 1432     		adds	r2, r2, #20
 1726 0466 9342     		cmp	r3, r2
 1727 0468 02D0     		beq	.L201
 591:Drivers/STM32F1xx_HAL_Driver/Src/stm32f1xx_hal_dma.c ****   }
 1728              		.loc 1 591 5 view .LVU453
 1729 046a 4FF48023 		mov	r3, #262144
 1730 046e 03E0     		b	.L98
 1731              	.L201:
 1732 0470 4FF48043 		mov	r3, #16384
 1733 0474 00E0     		b	.L98
 1734              	.L166:
 1735 0476 0423     		movs	r3, #4
 1736              	.L98:
 591:Drivers/STM32F1xx_HAL_Driver/Src/stm32f1xx_hal_dma.c ****   }
 1737              		.loc 1 591 5 discriminator 46 view .LVU454
 1738 0478 314A     		ldr	r2, .L205+8
 1739 047a 5360     		str	r3, [r2, #4]
 1740 047c 71E7     		b	.L96
 1741              	.L167:
 591:Drivers/STM32F1xx_HAL_Driver/Src/stm32f1xx_hal_dma.c ****   }
 1742              		.loc 1 591 5 view .LVU455
 1743 047e 4023     		movs	r3, #64
 1744 0480 FAE7     		b	.L98
 1745              	.L168:
 1746 0482 4FF48063 		mov	r3, #1024
 1747 0486 F7E7     		b	.L98
 1748              	.L169:
 1749 0488 4FF48043 		mov	r3, #16384
 1750 048c F4E7     		b	.L98
 1751              	.L170:
 1752 048e 4FF48023 		mov	r3, #262144
 1753 0492 F1E7     		b	.L98
 1754              	.L171:
 1755 0494 4FF48003 		mov	r3, #4194304
 1756 0498 EEE7     		b	.L98
 1757              	.L172:
 1758 049a 4FF08063 		mov	r3, #67108864
 1759 049e EBE7     		b	.L98
 1760              	.L173:
 1761 04a0 0423     		movs	r3, #4
 1762 04a2 E9E7     		b	.L98
 1763              	.L174:
 1764 04a4 4023     		movs	r3, #64
 1765 04a6 E7E7     		b	.L98
 1766              	.L175:
 1767 04a8 4FF48063 		mov	r3, #1024
 1768 04ac E4E7     		b	.L98
 1769              	.L97:
 591:Drivers/STM32F1xx_HAL_Driver/Src/stm32f1xx_hal_dma.c ****   }
ARM GAS  C:\Users\tianx\AppData\Local\Temp\ccOmbCCE.s 			page 55


 1770              		.loc 1 591 5 discriminator 2 view .LVU456
 1771 04ae 234A     		ldr	r2, .L205+4
 1772 04b0 9342     		cmp	r3, r2
 1773 04b2 24D0     		beq	.L177
 591:Drivers/STM32F1xx_HAL_Driver/Src/stm32f1xx_hal_dma.c ****   }
 1774              		.loc 1 591 5 discriminator 47 view .LVU457
 1775 04b4 1432     		adds	r2, r2, #20
 1776 04b6 9342     		cmp	r3, r2
 1777 04b8 25D0     		beq	.L178
 591:Drivers/STM32F1xx_HAL_Driver/Src/stm32f1xx_hal_dma.c ****   }
 1778              		.loc 1 591 5 discriminator 49 view .LVU458
 1779 04ba 1432     		adds	r2, r2, #20
 1780 04bc 9342     		cmp	r3, r2
 1781 04be 24D0     		beq	.L179
 591:Drivers/STM32F1xx_HAL_Driver/Src/stm32f1xx_hal_dma.c ****   }
 1782              		.loc 1 591 5 discriminator 51 view .LVU459
 1783 04c0 1432     		adds	r2, r2, #20
 1784 04c2 9342     		cmp	r3, r2
 1785 04c4 24D0     		beq	.L180
 591:Drivers/STM32F1xx_HAL_Driver/Src/stm32f1xx_hal_dma.c ****   }
 1786              		.loc 1 591 5 discriminator 53 view .LVU460
 1787 04c6 1432     		adds	r2, r2, #20
 1788 04c8 9342     		cmp	r3, r2
 1789 04ca 24D0     		beq	.L181
 591:Drivers/STM32F1xx_HAL_Driver/Src/stm32f1xx_hal_dma.c ****   }
 1790              		.loc 1 591 5 discriminator 55 view .LVU461
 1791 04cc 1432     		adds	r2, r2, #20
 1792 04ce 9342     		cmp	r3, r2
 1793 04d0 24D0     		beq	.L182
 591:Drivers/STM32F1xx_HAL_Driver/Src/stm32f1xx_hal_dma.c ****   }
 1794              		.loc 1 591 5 discriminator 57 view .LVU462
 1795 04d2 1432     		adds	r2, r2, #20
 1796 04d4 9342     		cmp	r3, r2
 1797 04d6 24D0     		beq	.L183
 591:Drivers/STM32F1xx_HAL_Driver/Src/stm32f1xx_hal_dma.c ****   }
 1798              		.loc 1 591 5 discriminator 59 view .LVU463
 1799 04d8 02F56272 		add	r2, r2, #904
 1800 04dc 9342     		cmp	r3, r2
 1801 04de 23D0     		beq	.L184
 591:Drivers/STM32F1xx_HAL_Driver/Src/stm32f1xx_hal_dma.c ****   }
 1802              		.loc 1 591 5 discriminator 61 view .LVU464
 1803 04e0 1432     		adds	r2, r2, #20
 1804 04e2 9342     		cmp	r3, r2
 1805 04e4 22D0     		beq	.L185
 591:Drivers/STM32F1xx_HAL_Driver/Src/stm32f1xx_hal_dma.c ****   }
 1806              		.loc 1 591 5 discriminator 63 view .LVU465
 1807 04e6 1432     		adds	r2, r2, #20
 1808 04e8 9342     		cmp	r3, r2
 1809 04ea 21D0     		beq	.L186
 591:Drivers/STM32F1xx_HAL_Driver/Src/stm32f1xx_hal_dma.c ****   }
 1810              		.loc 1 591 5 discriminator 65 view .LVU466
 1811 04ec 1432     		adds	r2, r2, #20
 1812 04ee 9342     		cmp	r3, r2
 1813 04f0 02D0     		beq	.L202
 591:Drivers/STM32F1xx_HAL_Driver/Src/stm32f1xx_hal_dma.c ****   }
 1814              		.loc 1 591 5 view .LVU467
 1815 04f2 4FF48023 		mov	r3, #262144
ARM GAS  C:\Users\tianx\AppData\Local\Temp\ccOmbCCE.s 			page 56


 1816 04f6 03E0     		b	.L99
 1817              	.L202:
 1818 04f8 4FF48043 		mov	r3, #16384
 1819 04fc 00E0     		b	.L99
 1820              	.L177:
 1821 04fe 0423     		movs	r3, #4
 1822              	.L99:
 591:Drivers/STM32F1xx_HAL_Driver/Src/stm32f1xx_hal_dma.c ****   }
 1823              		.loc 1 591 5 discriminator 90 view .LVU468
 1824 0500 104A     		ldr	r2, .L205+12
 1825 0502 5360     		str	r3, [r2, #4]
 1826 0504 2DE7     		b	.L96
 1827              	.L178:
 591:Drivers/STM32F1xx_HAL_Driver/Src/stm32f1xx_hal_dma.c ****   }
 1828              		.loc 1 591 5 view .LVU469
 1829 0506 4023     		movs	r3, #64
 1830 0508 FAE7     		b	.L99
 1831              	.L179:
 1832 050a 4FF48063 		mov	r3, #1024
 1833 050e F7E7     		b	.L99
 1834              	.L180:
 1835 0510 4FF48043 		mov	r3, #16384
 1836 0514 F4E7     		b	.L99
 1837              	.L181:
 1838 0516 4FF48023 		mov	r3, #262144
 1839 051a F1E7     		b	.L99
 1840              	.L182:
 1841 051c 4FF48003 		mov	r3, #4194304
 1842 0520 EEE7     		b	.L99
 1843              	.L183:
 1844 0522 4FF08063 		mov	r3, #67108864
 1845 0526 EBE7     		b	.L99
 1846              	.L184:
 1847 0528 0423     		movs	r3, #4
 1848 052a E9E7     		b	.L99
 1849              	.L185:
 1850 052c 4023     		movs	r3, #64
 1851 052e E7E7     		b	.L99
 1852              	.L186:
 1853 0530 4FF48063 		mov	r3, #1024
 1854 0534 E4E7     		b	.L99
 1855              	.L206:
 1856 0536 00BF     		.align	2
 1857              	.L205:
 1858 0538 80000240 		.word	1073873024
 1859 053c 08000240 		.word	1073872904
 1860 0540 00040240 		.word	1073873920
 1861 0544 00000240 		.word	1073872896
 1862              		.cfi_endproc
 1863              	.LFE72:
 1865              		.section	.text.HAL_DMA_IRQHandler,"ax",%progbits
 1866              		.align	1
 1867              		.global	HAL_DMA_IRQHandler
 1868              		.syntax unified
 1869              		.thumb
 1870              		.thumb_func
 1871              		.fpu softvfp
ARM GAS  C:\Users\tianx\AppData\Local\Temp\ccOmbCCE.s 			page 57


 1873              	HAL_DMA_IRQHandler:
 1874              	.LVL61:
 1875              	.LFB73:
 607:Drivers/STM32F1xx_HAL_Driver/Src/stm32f1xx_hal_dma.c ****   uint32_t flag_it = hdma->DmaBaseAddress->ISR;
 1876              		.loc 1 607 1 is_stmt 1 view -0
 1877              		.cfi_startproc
 1878              		@ args = 0, pretend = 0, frame = 0
 1879              		@ frame_needed = 0, uses_anonymous_args = 0
 607:Drivers/STM32F1xx_HAL_Driver/Src/stm32f1xx_hal_dma.c ****   uint32_t flag_it = hdma->DmaBaseAddress->ISR;
 1880              		.loc 1 607 1 is_stmt 0 view .LVU471
 1881 0000 38B5     		push	{r3, r4, r5, lr}
 1882              	.LCFI11:
 1883              		.cfi_def_cfa_offset 16
 1884              		.cfi_offset 3, -16
 1885              		.cfi_offset 4, -12
 1886              		.cfi_offset 5, -8
 1887              		.cfi_offset 14, -4
 608:Drivers/STM32F1xx_HAL_Driver/Src/stm32f1xx_hal_dma.c ****   uint32_t source_it = hdma->Instance->CCR;
 1888              		.loc 1 608 3 is_stmt 1 view .LVU472
 608:Drivers/STM32F1xx_HAL_Driver/Src/stm32f1xx_hal_dma.c ****   uint32_t source_it = hdma->Instance->CCR;
 1889              		.loc 1 608 26 is_stmt 0 view .LVU473
 1890 0002 C36B     		ldr	r3, [r0, #60]
 608:Drivers/STM32F1xx_HAL_Driver/Src/stm32f1xx_hal_dma.c ****   uint32_t source_it = hdma->Instance->CCR;
 1891              		.loc 1 608 12 view .LVU474
 1892 0004 1A68     		ldr	r2, [r3]
 1893              	.LVL62:
 609:Drivers/STM32F1xx_HAL_Driver/Src/stm32f1xx_hal_dma.c ****   
 1894              		.loc 1 609 3 is_stmt 1 view .LVU475
 609:Drivers/STM32F1xx_HAL_Driver/Src/stm32f1xx_hal_dma.c ****   
 1895              		.loc 1 609 28 is_stmt 0 view .LVU476
 1896 0006 0468     		ldr	r4, [r0]
 609:Drivers/STM32F1xx_HAL_Driver/Src/stm32f1xx_hal_dma.c ****   
 1897              		.loc 1 609 12 view .LVU477
 1898 0008 2568     		ldr	r5, [r4]
 1899              	.LVL63:
 612:Drivers/STM32F1xx_HAL_Driver/Src/stm32f1xx_hal_dma.c ****   {
 1900              		.loc 1 612 3 is_stmt 1 view .LVU478
 612:Drivers/STM32F1xx_HAL_Driver/Src/stm32f1xx_hal_dma.c ****   {
 1901              		.loc 1 612 40 is_stmt 0 view .LVU479
 1902 000a 016C     		ldr	r1, [r0, #64]
 612:Drivers/STM32F1xx_HAL_Driver/Src/stm32f1xx_hal_dma.c ****   {
 1903              		.loc 1 612 33 view .LVU480
 1904 000c 0423     		movs	r3, #4
 1905 000e 8B40     		lsls	r3, r3, r1
 612:Drivers/STM32F1xx_HAL_Driver/Src/stm32f1xx_hal_dma.c ****   {
 1906              		.loc 1 612 6 view .LVU481
 1907 0010 1342     		tst	r3, r2
 1908 0012 00F09B80 		beq	.L208
 612:Drivers/STM32F1xx_HAL_Driver/Src/stm32f1xx_hal_dma.c ****   {
 1909              		.loc 1 612 67 discriminator 1 view .LVU482
 1910 0016 15F0040F 		tst	r5, #4
 1911 001a 00F09780 		beq	.L208
 615:Drivers/STM32F1xx_HAL_Driver/Src/stm32f1xx_hal_dma.c ****     {
 1912              		.loc 1 615 5 is_stmt 1 view .LVU483
 615:Drivers/STM32F1xx_HAL_Driver/Src/stm32f1xx_hal_dma.c ****     {
 1913              		.loc 1 615 23 is_stmt 0 view .LVU484
 1914 001e 2368     		ldr	r3, [r4]
ARM GAS  C:\Users\tianx\AppData\Local\Temp\ccOmbCCE.s 			page 58


 615:Drivers/STM32F1xx_HAL_Driver/Src/stm32f1xx_hal_dma.c ****     {
 1915              		.loc 1 615 7 view .LVU485
 1916 0020 13F0200F 		tst	r3, #32
 1917 0024 03D1     		bne	.L209
 618:Drivers/STM32F1xx_HAL_Driver/Src/stm32f1xx_hal_dma.c ****     }
 1918              		.loc 1 618 7 is_stmt 1 view .LVU486
 1919 0026 2368     		ldr	r3, [r4]
 1920 0028 23F00403 		bic	r3, r3, #4
 1921 002c 2360     		str	r3, [r4]
 1922              	.L209:
 621:Drivers/STM32F1xx_HAL_Driver/Src/stm32f1xx_hal_dma.c **** 
 1923              		.loc 1 621 5 view .LVU487
 1924 002e 0368     		ldr	r3, [r0]
 1925 0030 AA4A     		ldr	r2, .L270
 1926              	.LVL64:
 621:Drivers/STM32F1xx_HAL_Driver/Src/stm32f1xx_hal_dma.c **** 
 1927              		.loc 1 621 5 is_stmt 0 view .LVU488
 1928 0032 9342     		cmp	r3, r2
 1929 0034 46D9     		bls	.L210
 621:Drivers/STM32F1xx_HAL_Driver/Src/stm32f1xx_hal_dma.c **** 
 1930              		.loc 1 621 5 discriminator 1 view .LVU489
 1931 0036 783A     		subs	r2, r2, #120
 1932 0038 9342     		cmp	r3, r2
 1933 003a 24D0     		beq	.L221
 621:Drivers/STM32F1xx_HAL_Driver/Src/stm32f1xx_hal_dma.c **** 
 1934              		.loc 1 621 5 discriminator 3 view .LVU490
 1935 003c 1432     		adds	r2, r2, #20
 1936 003e 9342     		cmp	r3, r2
 1937 0040 28D0     		beq	.L222
 621:Drivers/STM32F1xx_HAL_Driver/Src/stm32f1xx_hal_dma.c **** 
 1938              		.loc 1 621 5 discriminator 5 view .LVU491
 1939 0042 1432     		adds	r2, r2, #20
 1940 0044 9342     		cmp	r3, r2
 1941 0046 27D0     		beq	.L223
 621:Drivers/STM32F1xx_HAL_Driver/Src/stm32f1xx_hal_dma.c **** 
 1942              		.loc 1 621 5 discriminator 7 view .LVU492
 1943 0048 1432     		adds	r2, r2, #20
 1944 004a 9342     		cmp	r3, r2
 1945 004c 27D0     		beq	.L224
 621:Drivers/STM32F1xx_HAL_Driver/Src/stm32f1xx_hal_dma.c **** 
 1946              		.loc 1 621 5 discriminator 9 view .LVU493
 1947 004e 1432     		adds	r2, r2, #20
 1948 0050 9342     		cmp	r3, r2
 1949 0052 27D0     		beq	.L225
 621:Drivers/STM32F1xx_HAL_Driver/Src/stm32f1xx_hal_dma.c **** 
 1950              		.loc 1 621 5 discriminator 11 view .LVU494
 1951 0054 1432     		adds	r2, r2, #20
 1952 0056 9342     		cmp	r3, r2
 1953 0058 27D0     		beq	.L226
 621:Drivers/STM32F1xx_HAL_Driver/Src/stm32f1xx_hal_dma.c **** 
 1954              		.loc 1 621 5 discriminator 13 view .LVU495
 1955 005a 1432     		adds	r2, r2, #20
 1956 005c 9342     		cmp	r3, r2
 1957 005e 27D0     		beq	.L227
 621:Drivers/STM32F1xx_HAL_Driver/Src/stm32f1xx_hal_dma.c **** 
 1958              		.loc 1 621 5 discriminator 15 view .LVU496
 1959 0060 02F56272 		add	r2, r2, #904
ARM GAS  C:\Users\tianx\AppData\Local\Temp\ccOmbCCE.s 			page 59


 1960 0064 9342     		cmp	r3, r2
 1961 0066 26D0     		beq	.L228
 621:Drivers/STM32F1xx_HAL_Driver/Src/stm32f1xx_hal_dma.c **** 
 1962              		.loc 1 621 5 discriminator 17 view .LVU497
 1963 0068 1432     		adds	r2, r2, #20
 1964 006a 9342     		cmp	r3, r2
 1965 006c 25D0     		beq	.L229
 621:Drivers/STM32F1xx_HAL_Driver/Src/stm32f1xx_hal_dma.c **** 
 1966              		.loc 1 621 5 discriminator 19 view .LVU498
 1967 006e 1432     		adds	r2, r2, #20
 1968 0070 9342     		cmp	r3, r2
 1969 0072 24D0     		beq	.L230
 621:Drivers/STM32F1xx_HAL_Driver/Src/stm32f1xx_hal_dma.c **** 
 1970              		.loc 1 621 5 discriminator 21 view .LVU499
 1971 0074 1432     		adds	r2, r2, #20
 1972 0076 9342     		cmp	r3, r2
 1973 0078 02D0     		beq	.L266
 621:Drivers/STM32F1xx_HAL_Driver/Src/stm32f1xx_hal_dma.c **** 
 1974              		.loc 1 621 5 view .LVU500
 1975 007a 4FF48022 		mov	r2, #262144
 1976 007e 03E0     		b	.L211
 1977              	.L266:
 1978 0080 4FF48042 		mov	r2, #16384
 1979 0084 00E0     		b	.L211
 1980              	.L221:
 1981 0086 0422     		movs	r2, #4
 1982              	.L211:
 621:Drivers/STM32F1xx_HAL_Driver/Src/stm32f1xx_hal_dma.c **** 
 1983              		.loc 1 621 5 discriminator 46 view .LVU501
 1984 0088 954B     		ldr	r3, .L270+4
 1985 008a 5A60     		str	r2, [r3, #4]
 1986              	.L212:
 626:Drivers/STM32F1xx_HAL_Driver/Src/stm32f1xx_hal_dma.c ****     {
 1987              		.loc 1 626 5 is_stmt 1 view .LVU502
 626:Drivers/STM32F1xx_HAL_Driver/Src/stm32f1xx_hal_dma.c ****     {
 1988              		.loc 1 626 12 is_stmt 0 view .LVU503
 1989 008c C36A     		ldr	r3, [r0, #44]
 626:Drivers/STM32F1xx_HAL_Driver/Src/stm32f1xx_hal_dma.c ****     {
 1990              		.loc 1 626 7 view .LVU504
 1991 008e 03B1     		cbz	r3, .L207
 629:Drivers/STM32F1xx_HAL_Driver/Src/stm32f1xx_hal_dma.c ****     }
 1992              		.loc 1 629 7 is_stmt 1 view .LVU505
 1993 0090 9847     		blx	r3
 1994              	.LVL65:
 1995              	.L207:
 684:Drivers/STM32F1xx_HAL_Driver/Src/stm32f1xx_hal_dma.c **** 
 1996              		.loc 1 684 1 is_stmt 0 view .LVU506
 1997 0092 38BD     		pop	{r3, r4, r5, pc}
 1998              	.LVL66:
 1999              	.L222:
 621:Drivers/STM32F1xx_HAL_Driver/Src/stm32f1xx_hal_dma.c **** 
 2000              		.loc 1 621 5 view .LVU507
 2001 0094 4022     		movs	r2, #64
 2002 0096 F7E7     		b	.L211
 2003              	.L223:
 2004 0098 4FF48062 		mov	r2, #1024
 2005 009c F4E7     		b	.L211
ARM GAS  C:\Users\tianx\AppData\Local\Temp\ccOmbCCE.s 			page 60


 2006              	.L224:
 2007 009e 4FF48042 		mov	r2, #16384
 2008 00a2 F1E7     		b	.L211
 2009              	.L225:
 2010 00a4 4FF48022 		mov	r2, #262144
 2011 00a8 EEE7     		b	.L211
 2012              	.L226:
 2013 00aa 4FF48002 		mov	r2, #4194304
 2014 00ae EBE7     		b	.L211
 2015              	.L227:
 2016 00b0 4FF08062 		mov	r2, #67108864
 2017 00b4 E8E7     		b	.L211
 2018              	.L228:
 2019 00b6 0422     		movs	r2, #4
 2020 00b8 E6E7     		b	.L211
 2021              	.L229:
 2022 00ba 4022     		movs	r2, #64
 2023 00bc E4E7     		b	.L211
 2024              	.L230:
 2025 00be 4FF48062 		mov	r2, #1024
 2026 00c2 E1E7     		b	.L211
 2027              	.L210:
 621:Drivers/STM32F1xx_HAL_Driver/Src/stm32f1xx_hal_dma.c **** 
 2028              		.loc 1 621 5 discriminator 2 view .LVU508
 2029 00c4 874A     		ldr	r2, .L270+8
 2030 00c6 9342     		cmp	r3, r2
 2031 00c8 24D0     		beq	.L232
 621:Drivers/STM32F1xx_HAL_Driver/Src/stm32f1xx_hal_dma.c **** 
 2032              		.loc 1 621 5 discriminator 47 view .LVU509
 2033 00ca 1432     		adds	r2, r2, #20
 2034 00cc 9342     		cmp	r3, r2
 2035 00ce 25D0     		beq	.L233
 621:Drivers/STM32F1xx_HAL_Driver/Src/stm32f1xx_hal_dma.c **** 
 2036              		.loc 1 621 5 discriminator 49 view .LVU510
 2037 00d0 1432     		adds	r2, r2, #20
 2038 00d2 9342     		cmp	r3, r2
 2039 00d4 24D0     		beq	.L234
 621:Drivers/STM32F1xx_HAL_Driver/Src/stm32f1xx_hal_dma.c **** 
 2040              		.loc 1 621 5 discriminator 51 view .LVU511
 2041 00d6 1432     		adds	r2, r2, #20
 2042 00d8 9342     		cmp	r3, r2
 2043 00da 24D0     		beq	.L235
 621:Drivers/STM32F1xx_HAL_Driver/Src/stm32f1xx_hal_dma.c **** 
 2044              		.loc 1 621 5 discriminator 53 view .LVU512
 2045 00dc 1432     		adds	r2, r2, #20
 2046 00de 9342     		cmp	r3, r2
 2047 00e0 24D0     		beq	.L236
 621:Drivers/STM32F1xx_HAL_Driver/Src/stm32f1xx_hal_dma.c **** 
 2048              		.loc 1 621 5 discriminator 55 view .LVU513
 2049 00e2 1432     		adds	r2, r2, #20
 2050 00e4 9342     		cmp	r3, r2
 2051 00e6 24D0     		beq	.L237
 621:Drivers/STM32F1xx_HAL_Driver/Src/stm32f1xx_hal_dma.c **** 
 2052              		.loc 1 621 5 discriminator 57 view .LVU514
 2053 00e8 1432     		adds	r2, r2, #20
 2054 00ea 9342     		cmp	r3, r2
 2055 00ec 24D0     		beq	.L238
ARM GAS  C:\Users\tianx\AppData\Local\Temp\ccOmbCCE.s 			page 61


 621:Drivers/STM32F1xx_HAL_Driver/Src/stm32f1xx_hal_dma.c **** 
 2056              		.loc 1 621 5 discriminator 59 view .LVU515
 2057 00ee 02F56272 		add	r2, r2, #904
 2058 00f2 9342     		cmp	r3, r2
 2059 00f4 23D0     		beq	.L239
 621:Drivers/STM32F1xx_HAL_Driver/Src/stm32f1xx_hal_dma.c **** 
 2060              		.loc 1 621 5 discriminator 61 view .LVU516
 2061 00f6 1432     		adds	r2, r2, #20
 2062 00f8 9342     		cmp	r3, r2
 2063 00fa 22D0     		beq	.L240
 621:Drivers/STM32F1xx_HAL_Driver/Src/stm32f1xx_hal_dma.c **** 
 2064              		.loc 1 621 5 discriminator 63 view .LVU517
 2065 00fc 1432     		adds	r2, r2, #20
 2066 00fe 9342     		cmp	r3, r2
 2067 0100 21D0     		beq	.L241
 621:Drivers/STM32F1xx_HAL_Driver/Src/stm32f1xx_hal_dma.c **** 
 2068              		.loc 1 621 5 discriminator 65 view .LVU518
 2069 0102 1432     		adds	r2, r2, #20
 2070 0104 9342     		cmp	r3, r2
 2071 0106 02D0     		beq	.L267
 621:Drivers/STM32F1xx_HAL_Driver/Src/stm32f1xx_hal_dma.c **** 
 2072              		.loc 1 621 5 view .LVU519
 2073 0108 4FF48022 		mov	r2, #262144
 2074 010c 03E0     		b	.L213
 2075              	.L267:
 2076 010e 4FF48042 		mov	r2, #16384
 2077 0112 00E0     		b	.L213
 2078              	.L232:
 2079 0114 0422     		movs	r2, #4
 2080              	.L213:
 621:Drivers/STM32F1xx_HAL_Driver/Src/stm32f1xx_hal_dma.c **** 
 2081              		.loc 1 621 5 discriminator 90 view .LVU520
 2082 0116 744B     		ldr	r3, .L270+12
 2083 0118 5A60     		str	r2, [r3, #4]
 2084 011a B7E7     		b	.L212
 2085              	.L233:
 621:Drivers/STM32F1xx_HAL_Driver/Src/stm32f1xx_hal_dma.c **** 
 2086              		.loc 1 621 5 view .LVU521
 2087 011c 4022     		movs	r2, #64
 2088 011e FAE7     		b	.L213
 2089              	.L234:
 2090 0120 4FF48062 		mov	r2, #1024
 2091 0124 F7E7     		b	.L213
 2092              	.L235:
 2093 0126 4FF48042 		mov	r2, #16384
 2094 012a F4E7     		b	.L213
 2095              	.L236:
 2096 012c 4FF48022 		mov	r2, #262144
 2097 0130 F1E7     		b	.L213
 2098              	.L237:
 2099 0132 4FF48002 		mov	r2, #4194304
 2100 0136 EEE7     		b	.L213
 2101              	.L238:
 2102 0138 4FF08062 		mov	r2, #67108864
 2103 013c EBE7     		b	.L213
 2104              	.L239:
 2105 013e 0422     		movs	r2, #4
ARM GAS  C:\Users\tianx\AppData\Local\Temp\ccOmbCCE.s 			page 62


 2106 0140 E9E7     		b	.L213
 2107              	.L240:
 2108 0142 4022     		movs	r2, #64
 2109 0144 E7E7     		b	.L213
 2110              	.L241:
 2111 0146 4FF48062 		mov	r2, #1024
 2112 014a E4E7     		b	.L213
 2113              	.LVL67:
 2114              	.L208:
 634:Drivers/STM32F1xx_HAL_Driver/Src/stm32f1xx_hal_dma.c ****   {
 2115              		.loc 1 634 8 is_stmt 1 view .LVU522
 634:Drivers/STM32F1xx_HAL_Driver/Src/stm32f1xx_hal_dma.c ****   {
 2116              		.loc 1 634 38 is_stmt 0 view .LVU523
 2117 014c 0223     		movs	r3, #2
 2118 014e 8B40     		lsls	r3, r3, r1
 634:Drivers/STM32F1xx_HAL_Driver/Src/stm32f1xx_hal_dma.c ****   {
 2119              		.loc 1 634 11 view .LVU524
 2120 0150 1342     		tst	r3, r2
 2121 0152 00F0A380 		beq	.L215
 634:Drivers/STM32F1xx_HAL_Driver/Src/stm32f1xx_hal_dma.c ****   {
 2122              		.loc 1 634 72 discriminator 1 view .LVU525
 2123 0156 15F0020F 		tst	r5, #2
 2124 015a 00F09F80 		beq	.L215
 636:Drivers/STM32F1xx_HAL_Driver/Src/stm32f1xx_hal_dma.c ****     {
 2125              		.loc 1 636 5 is_stmt 1 view .LVU526
 636:Drivers/STM32F1xx_HAL_Driver/Src/stm32f1xx_hal_dma.c ****     {
 2126              		.loc 1 636 23 is_stmt 0 view .LVU527
 2127 015e 2368     		ldr	r3, [r4]
 636:Drivers/STM32F1xx_HAL_Driver/Src/stm32f1xx_hal_dma.c ****     {
 2128              		.loc 1 636 7 view .LVU528
 2129 0160 13F0200F 		tst	r3, #32
 2130 0164 06D1     		bne	.L216
 639:Drivers/STM32F1xx_HAL_Driver/Src/stm32f1xx_hal_dma.c **** 
 2131              		.loc 1 639 7 is_stmt 1 view .LVU529
 2132 0166 2368     		ldr	r3, [r4]
 2133 0168 23F00A03 		bic	r3, r3, #10
 2134 016c 2360     		str	r3, [r4]
 642:Drivers/STM32F1xx_HAL_Driver/Src/stm32f1xx_hal_dma.c ****     }
 2135              		.loc 1 642 7 view .LVU530
 642:Drivers/STM32F1xx_HAL_Driver/Src/stm32f1xx_hal_dma.c ****     }
 2136              		.loc 1 642 19 is_stmt 0 view .LVU531
 2137 016e 0123     		movs	r3, #1
 2138 0170 80F82130 		strb	r3, [r0, #33]
 2139              	.L216:
 645:Drivers/STM32F1xx_HAL_Driver/Src/stm32f1xx_hal_dma.c **** 
 2140              		.loc 1 645 7 is_stmt 1 view .LVU532
 2141 0174 0368     		ldr	r3, [r0]
 2142 0176 594A     		ldr	r2, .L270
 2143              	.LVL68:
 645:Drivers/STM32F1xx_HAL_Driver/Src/stm32f1xx_hal_dma.c **** 
 2144              		.loc 1 645 7 is_stmt 0 view .LVU533
 2145 0178 9342     		cmp	r3, r2
 2146 017a 4BD9     		bls	.L217
 645:Drivers/STM32F1xx_HAL_Driver/Src/stm32f1xx_hal_dma.c **** 
 2147              		.loc 1 645 7 discriminator 1 view .LVU534
 2148 017c 783A     		subs	r2, r2, #120
 2149 017e 9342     		cmp	r3, r2
ARM GAS  C:\Users\tianx\AppData\Local\Temp\ccOmbCCE.s 			page 63


 2150 0180 24D0     		beq	.L243
 645:Drivers/STM32F1xx_HAL_Driver/Src/stm32f1xx_hal_dma.c **** 
 2151              		.loc 1 645 7 discriminator 3 view .LVU535
 2152 0182 1432     		adds	r2, r2, #20
 2153 0184 9342     		cmp	r3, r2
 2154 0186 2DD0     		beq	.L244
 645:Drivers/STM32F1xx_HAL_Driver/Src/stm32f1xx_hal_dma.c **** 
 2155              		.loc 1 645 7 discriminator 5 view .LVU536
 2156 0188 1432     		adds	r2, r2, #20
 2157 018a 9342     		cmp	r3, r2
 2158 018c 2CD0     		beq	.L245
 645:Drivers/STM32F1xx_HAL_Driver/Src/stm32f1xx_hal_dma.c **** 
 2159              		.loc 1 645 7 discriminator 7 view .LVU537
 2160 018e 1432     		adds	r2, r2, #20
 2161 0190 9342     		cmp	r3, r2
 2162 0192 2CD0     		beq	.L246
 645:Drivers/STM32F1xx_HAL_Driver/Src/stm32f1xx_hal_dma.c **** 
 2163              		.loc 1 645 7 discriminator 9 view .LVU538
 2164 0194 1432     		adds	r2, r2, #20
 2165 0196 9342     		cmp	r3, r2
 2166 0198 2CD0     		beq	.L247
 645:Drivers/STM32F1xx_HAL_Driver/Src/stm32f1xx_hal_dma.c **** 
 2167              		.loc 1 645 7 discriminator 11 view .LVU539
 2168 019a 1432     		adds	r2, r2, #20
 2169 019c 9342     		cmp	r3, r2
 2170 019e 2CD0     		beq	.L248
 645:Drivers/STM32F1xx_HAL_Driver/Src/stm32f1xx_hal_dma.c **** 
 2171              		.loc 1 645 7 discriminator 13 view .LVU540
 2172 01a0 1432     		adds	r2, r2, #20
 2173 01a2 9342     		cmp	r3, r2
 2174 01a4 2CD0     		beq	.L249
 645:Drivers/STM32F1xx_HAL_Driver/Src/stm32f1xx_hal_dma.c **** 
 2175              		.loc 1 645 7 discriminator 15 view .LVU541
 2176 01a6 02F56272 		add	r2, r2, #904
 2177 01aa 9342     		cmp	r3, r2
 2178 01ac 2BD0     		beq	.L250
 645:Drivers/STM32F1xx_HAL_Driver/Src/stm32f1xx_hal_dma.c **** 
 2179              		.loc 1 645 7 discriminator 17 view .LVU542
 2180 01ae 1432     		adds	r2, r2, #20
 2181 01b0 9342     		cmp	r3, r2
 2182 01b2 2AD0     		beq	.L251
 645:Drivers/STM32F1xx_HAL_Driver/Src/stm32f1xx_hal_dma.c **** 
 2183              		.loc 1 645 7 discriminator 19 view .LVU543
 2184 01b4 1432     		adds	r2, r2, #20
 2185 01b6 9342     		cmp	r3, r2
 2186 01b8 29D0     		beq	.L252
 645:Drivers/STM32F1xx_HAL_Driver/Src/stm32f1xx_hal_dma.c **** 
 2187              		.loc 1 645 7 discriminator 21 view .LVU544
 2188 01ba 1432     		adds	r2, r2, #20
 2189 01bc 9342     		cmp	r3, r2
 2190 01be 02D0     		beq	.L268
 645:Drivers/STM32F1xx_HAL_Driver/Src/stm32f1xx_hal_dma.c **** 
 2191              		.loc 1 645 7 view .LVU545
 2192 01c0 4FF40032 		mov	r2, #131072
 2193 01c4 03E0     		b	.L218
 2194              	.L268:
 2195 01c6 4FF40052 		mov	r2, #8192
ARM GAS  C:\Users\tianx\AppData\Local\Temp\ccOmbCCE.s 			page 64


 2196 01ca 00E0     		b	.L218
 2197              	.L243:
 2198 01cc 0222     		movs	r2, #2
 2199              	.L218:
 645:Drivers/STM32F1xx_HAL_Driver/Src/stm32f1xx_hal_dma.c **** 
 2200              		.loc 1 645 7 discriminator 46 view .LVU546
 2201 01ce 444B     		ldr	r3, .L270+4
 2202 01d0 5A60     		str	r2, [r3, #4]
 2203              	.L219:
 648:Drivers/STM32F1xx_HAL_Driver/Src/stm32f1xx_hal_dma.c **** 
 2204              		.loc 1 648 5 is_stmt 1 view .LVU547
 648:Drivers/STM32F1xx_HAL_Driver/Src/stm32f1xx_hal_dma.c **** 
 2205              		.loc 1 648 5 view .LVU548
 2206 01d2 0023     		movs	r3, #0
 2207 01d4 80F82030 		strb	r3, [r0, #32]
 650:Drivers/STM32F1xx_HAL_Driver/Src/stm32f1xx_hal_dma.c ****     {
 2208              		.loc 1 650 5 view .LVU549
 650:Drivers/STM32F1xx_HAL_Driver/Src/stm32f1xx_hal_dma.c ****     {
 2209              		.loc 1 650 12 is_stmt 0 view .LVU550
 2210 01d8 836A     		ldr	r3, [r0, #40]
 650:Drivers/STM32F1xx_HAL_Driver/Src/stm32f1xx_hal_dma.c ****     {
 2211              		.loc 1 650 7 view .LVU551
 2212 01da 002B     		cmp	r3, #0
 2213 01dc 3FF459AF 		beq	.L207
 653:Drivers/STM32F1xx_HAL_Driver/Src/stm32f1xx_hal_dma.c ****     }
 2214              		.loc 1 653 7 is_stmt 1 view .LVU552
 2215 01e0 9847     		blx	r3
 2216              	.LVL69:
 653:Drivers/STM32F1xx_HAL_Driver/Src/stm32f1xx_hal_dma.c ****     }
 2217              		.loc 1 653 7 is_stmt 0 view .LVU553
 2218 01e2 56E7     		b	.L207
 2219              	.LVL70:
 2220              	.L244:
 645:Drivers/STM32F1xx_HAL_Driver/Src/stm32f1xx_hal_dma.c **** 
 2221              		.loc 1 645 7 view .LVU554
 2222 01e4 2022     		movs	r2, #32
 2223 01e6 F2E7     		b	.L218
 2224              	.L245:
 2225 01e8 4FF40072 		mov	r2, #512
 2226 01ec EFE7     		b	.L218
 2227              	.L246:
 2228 01ee 4FF40052 		mov	r2, #8192
 2229 01f2 ECE7     		b	.L218
 2230              	.L247:
 2231 01f4 4FF40032 		mov	r2, #131072
 2232 01f8 E9E7     		b	.L218
 2233              	.L248:
 2234 01fa 4FF40012 		mov	r2, #2097152
 2235 01fe E6E7     		b	.L218
 2236              	.L249:
 2237 0200 4FF00072 		mov	r2, #33554432
 2238 0204 E3E7     		b	.L218
 2239              	.L250:
 2240 0206 0222     		movs	r2, #2
 2241 0208 E1E7     		b	.L218
 2242              	.L251:
 2243 020a 2022     		movs	r2, #32
ARM GAS  C:\Users\tianx\AppData\Local\Temp\ccOmbCCE.s 			page 65


 2244 020c DFE7     		b	.L218
 2245              	.L252:
 2246 020e 4FF40072 		mov	r2, #512
 2247 0212 DCE7     		b	.L218
 2248              	.L217:
 645:Drivers/STM32F1xx_HAL_Driver/Src/stm32f1xx_hal_dma.c **** 
 2249              		.loc 1 645 7 discriminator 2 view .LVU555
 2250 0214 334A     		ldr	r2, .L270+8
 2251 0216 9342     		cmp	r3, r2
 2252 0218 24D0     		beq	.L254
 645:Drivers/STM32F1xx_HAL_Driver/Src/stm32f1xx_hal_dma.c **** 
 2253              		.loc 1 645 7 discriminator 47 view .LVU556
 2254 021a 1432     		adds	r2, r2, #20
 2255 021c 9342     		cmp	r3, r2
 2256 021e 25D0     		beq	.L255
 645:Drivers/STM32F1xx_HAL_Driver/Src/stm32f1xx_hal_dma.c **** 
 2257              		.loc 1 645 7 discriminator 49 view .LVU557
 2258 0220 1432     		adds	r2, r2, #20
 2259 0222 9342     		cmp	r3, r2
 2260 0224 24D0     		beq	.L256
 645:Drivers/STM32F1xx_HAL_Driver/Src/stm32f1xx_hal_dma.c **** 
 2261              		.loc 1 645 7 discriminator 51 view .LVU558
 2262 0226 1432     		adds	r2, r2, #20
 2263 0228 9342     		cmp	r3, r2
 2264 022a 24D0     		beq	.L257
 645:Drivers/STM32F1xx_HAL_Driver/Src/stm32f1xx_hal_dma.c **** 
 2265              		.loc 1 645 7 discriminator 53 view .LVU559
 2266 022c 1432     		adds	r2, r2, #20
 2267 022e 9342     		cmp	r3, r2
 2268 0230 24D0     		beq	.L258
 645:Drivers/STM32F1xx_HAL_Driver/Src/stm32f1xx_hal_dma.c **** 
 2269              		.loc 1 645 7 discriminator 55 view .LVU560
 2270 0232 1432     		adds	r2, r2, #20
 2271 0234 9342     		cmp	r3, r2
 2272 0236 24D0     		beq	.L259
 645:Drivers/STM32F1xx_HAL_Driver/Src/stm32f1xx_hal_dma.c **** 
 2273              		.loc 1 645 7 discriminator 57 view .LVU561
 2274 0238 1432     		adds	r2, r2, #20
 2275 023a 9342     		cmp	r3, r2
 2276 023c 24D0     		beq	.L260
 645:Drivers/STM32F1xx_HAL_Driver/Src/stm32f1xx_hal_dma.c **** 
 2277              		.loc 1 645 7 discriminator 59 view .LVU562
 2278 023e 02F56272 		add	r2, r2, #904
 2279 0242 9342     		cmp	r3, r2
 2280 0244 23D0     		beq	.L261
 645:Drivers/STM32F1xx_HAL_Driver/Src/stm32f1xx_hal_dma.c **** 
 2281              		.loc 1 645 7 discriminator 61 view .LVU563
 2282 0246 1432     		adds	r2, r2, #20
 2283 0248 9342     		cmp	r3, r2
 2284 024a 22D0     		beq	.L262
 645:Drivers/STM32F1xx_HAL_Driver/Src/stm32f1xx_hal_dma.c **** 
 2285              		.loc 1 645 7 discriminator 63 view .LVU564
 2286 024c 1432     		adds	r2, r2, #20
 2287 024e 9342     		cmp	r3, r2
 2288 0250 21D0     		beq	.L263
 645:Drivers/STM32F1xx_HAL_Driver/Src/stm32f1xx_hal_dma.c **** 
 2289              		.loc 1 645 7 discriminator 65 view .LVU565
ARM GAS  C:\Users\tianx\AppData\Local\Temp\ccOmbCCE.s 			page 66


 2290 0252 1432     		adds	r2, r2, #20
 2291 0254 9342     		cmp	r3, r2
 2292 0256 02D0     		beq	.L269
 645:Drivers/STM32F1xx_HAL_Driver/Src/stm32f1xx_hal_dma.c **** 
 2293              		.loc 1 645 7 view .LVU566
 2294 0258 4FF40032 		mov	r2, #131072
 2295 025c 03E0     		b	.L220
 2296              	.L269:
 2297 025e 4FF40052 		mov	r2, #8192
 2298 0262 00E0     		b	.L220
 2299              	.L254:
 2300 0264 0222     		movs	r2, #2
 2301              	.L220:
 645:Drivers/STM32F1xx_HAL_Driver/Src/stm32f1xx_hal_dma.c **** 
 2302              		.loc 1 645 7 discriminator 90 view .LVU567
 2303 0266 204B     		ldr	r3, .L270+12
 2304 0268 5A60     		str	r2, [r3, #4]
 2305 026a B2E7     		b	.L219
 2306              	.L255:
 645:Drivers/STM32F1xx_HAL_Driver/Src/stm32f1xx_hal_dma.c **** 
 2307              		.loc 1 645 7 view .LVU568
 2308 026c 2022     		movs	r2, #32
 2309 026e FAE7     		b	.L220
 2310              	.L256:
 2311 0270 4FF40072 		mov	r2, #512
 2312 0274 F7E7     		b	.L220
 2313              	.L257:
 2314 0276 4FF40052 		mov	r2, #8192
 2315 027a F4E7     		b	.L220
 2316              	.L258:
 2317 027c 4FF40032 		mov	r2, #131072
 2318 0280 F1E7     		b	.L220
 2319              	.L259:
 2320 0282 4FF40012 		mov	r2, #2097152
 2321 0286 EEE7     		b	.L220
 2322              	.L260:
 2323 0288 4FF00072 		mov	r2, #33554432
 2324 028c EBE7     		b	.L220
 2325              	.L261:
 2326 028e 0222     		movs	r2, #2
 2327 0290 E9E7     		b	.L220
 2328              	.L262:
 2329 0292 2022     		movs	r2, #32
 2330 0294 E7E7     		b	.L220
 2331              	.L263:
 2332 0296 4FF40072 		mov	r2, #512
 2333 029a E4E7     		b	.L220
 2334              	.LVL71:
 2335              	.L215:
 658:Drivers/STM32F1xx_HAL_Driver/Src/stm32f1xx_hal_dma.c ****   {
 2336              		.loc 1 658 8 is_stmt 1 view .LVU569
 658:Drivers/STM32F1xx_HAL_Driver/Src/stm32f1xx_hal_dma.c ****   {
 2337              		.loc 1 658 48 is_stmt 0 view .LVU570
 2338 029c 0823     		movs	r3, #8
 2339 029e 03FA01F1 		lsl	r1, r3, r1
 658:Drivers/STM32F1xx_HAL_Driver/Src/stm32f1xx_hal_dma.c ****   {
 2340              		.loc 1 658 11 view .LVU571
ARM GAS  C:\Users\tianx\AppData\Local\Temp\ccOmbCCE.s 			page 67


 2341 02a2 1142     		tst	r1, r2
 2342 02a4 3FF4F5AE 		beq	.L207
 658:Drivers/STM32F1xx_HAL_Driver/Src/stm32f1xx_hal_dma.c ****   {
 2343              		.loc 1 658 73 discriminator 1 view .LVU572
 2344 02a8 15F0080F 		tst	r5, #8
 2345 02ac 3FF4F1AE 		beq	.L207
 663:Drivers/STM32F1xx_HAL_Driver/Src/stm32f1xx_hal_dma.c **** 
 2346              		.loc 1 663 5 is_stmt 1 view .LVU573
 2347 02b0 2368     		ldr	r3, [r4]
 2348 02b2 23F00E03 		bic	r3, r3, #14
 2349 02b6 2360     		str	r3, [r4]
 666:Drivers/STM32F1xx_HAL_Driver/Src/stm32f1xx_hal_dma.c **** 
 2350              		.loc 1 666 5 view .LVU574
 666:Drivers/STM32F1xx_HAL_Driver/Src/stm32f1xx_hal_dma.c **** 
 2351              		.loc 1 666 55 is_stmt 0 view .LVU575
 2352 02b8 026C     		ldr	r2, [r0, #64]
 2353              	.LVL72:
 666:Drivers/STM32F1xx_HAL_Driver/Src/stm32f1xx_hal_dma.c **** 
 2354              		.loc 1 666 9 view .LVU576
 2355 02ba C16B     		ldr	r1, [r0, #60]
 666:Drivers/STM32F1xx_HAL_Driver/Src/stm32f1xx_hal_dma.c **** 
 2356              		.loc 1 666 48 view .LVU577
 2357 02bc 0123     		movs	r3, #1
 2358 02be 03FA02F2 		lsl	r2, r3, r2
 666:Drivers/STM32F1xx_HAL_Driver/Src/stm32f1xx_hal_dma.c **** 
 2359              		.loc 1 666 32 view .LVU578
 2360 02c2 4A60     		str	r2, [r1, #4]
 669:Drivers/STM32F1xx_HAL_Driver/Src/stm32f1xx_hal_dma.c **** 
 2361              		.loc 1 669 5 is_stmt 1 view .LVU579
 669:Drivers/STM32F1xx_HAL_Driver/Src/stm32f1xx_hal_dma.c **** 
 2362              		.loc 1 669 21 is_stmt 0 view .LVU580
 2363 02c4 8363     		str	r3, [r0, #56]
 672:Drivers/STM32F1xx_HAL_Driver/Src/stm32f1xx_hal_dma.c **** 
 2364              		.loc 1 672 5 is_stmt 1 view .LVU581
 672:Drivers/STM32F1xx_HAL_Driver/Src/stm32f1xx_hal_dma.c **** 
 2365              		.loc 1 672 17 is_stmt 0 view .LVU582
 2366 02c6 80F82130 		strb	r3, [r0, #33]
 675:Drivers/STM32F1xx_HAL_Driver/Src/stm32f1xx_hal_dma.c **** 
 2367              		.loc 1 675 5 is_stmt 1 view .LVU583
 675:Drivers/STM32F1xx_HAL_Driver/Src/stm32f1xx_hal_dma.c **** 
 2368              		.loc 1 675 5 view .LVU584
 2369 02ca 0023     		movs	r3, #0
 2370 02cc 80F82030 		strb	r3, [r0, #32]
 677:Drivers/STM32F1xx_HAL_Driver/Src/stm32f1xx_hal_dma.c ****     {
 2371              		.loc 1 677 5 view .LVU585
 677:Drivers/STM32F1xx_HAL_Driver/Src/stm32f1xx_hal_dma.c ****     {
 2372              		.loc 1 677 13 is_stmt 0 view .LVU586
 2373 02d0 036B     		ldr	r3, [r0, #48]
 677:Drivers/STM32F1xx_HAL_Driver/Src/stm32f1xx_hal_dma.c ****     {
 2374              		.loc 1 677 8 view .LVU587
 2375 02d2 002B     		cmp	r3, #0
 2376 02d4 3FF4DDAE 		beq	.L207
 680:Drivers/STM32F1xx_HAL_Driver/Src/stm32f1xx_hal_dma.c ****     }
 2377              		.loc 1 680 7 is_stmt 1 view .LVU588
 2378 02d8 9847     		blx	r3
 2379              	.LVL73:
 683:Drivers/STM32F1xx_HAL_Driver/Src/stm32f1xx_hal_dma.c **** }
ARM GAS  C:\Users\tianx\AppData\Local\Temp\ccOmbCCE.s 			page 68


 2380              		.loc 1 683 3 view .LVU589
 2381 02da DAE6     		b	.L207
 2382              	.L271:
 2383              		.align	2
 2384              	.L270:
 2385 02dc 80000240 		.word	1073873024
 2386 02e0 00040240 		.word	1073873920
 2387 02e4 08000240 		.word	1073872904
 2388 02e8 00000240 		.word	1073872896
 2389              		.cfi_endproc
 2390              	.LFE73:
 2392              		.section	.text.HAL_DMA_RegisterCallback,"ax",%progbits
 2393              		.align	1
 2394              		.global	HAL_DMA_RegisterCallback
 2395              		.syntax unified
 2396              		.thumb
 2397              		.thumb_func
 2398              		.fpu softvfp
 2400              	HAL_DMA_RegisterCallback:
 2401              	.LVL74:
 2402              	.LFB74:
 697:Drivers/STM32F1xx_HAL_Driver/Src/stm32f1xx_hal_dma.c ****   HAL_StatusTypeDef status = HAL_OK;
 2403              		.loc 1 697 1 view -0
 2404              		.cfi_startproc
 2405              		@ args = 0, pretend = 0, frame = 0
 2406              		@ frame_needed = 0, uses_anonymous_args = 0
 2407              		@ link register save eliminated.
 697:Drivers/STM32F1xx_HAL_Driver/Src/stm32f1xx_hal_dma.c ****   HAL_StatusTypeDef status = HAL_OK;
 2408              		.loc 1 697 1 is_stmt 0 view .LVU591
 2409 0000 0346     		mov	r3, r0
 698:Drivers/STM32F1xx_HAL_Driver/Src/stm32f1xx_hal_dma.c ****   
 2410              		.loc 1 698 3 is_stmt 1 view .LVU592
 2411              	.LVL75:
 701:Drivers/STM32F1xx_HAL_Driver/Src/stm32f1xx_hal_dma.c ****   
 2412              		.loc 1 701 3 view .LVU593
 701:Drivers/STM32F1xx_HAL_Driver/Src/stm32f1xx_hal_dma.c ****   
 2413              		.loc 1 701 3 view .LVU594
 2414 0002 90F82000 		ldrb	r0, [r0, #32]	@ zero_extendqisi2
 2415              	.LVL76:
 701:Drivers/STM32F1xx_HAL_Driver/Src/stm32f1xx_hal_dma.c ****   
 2416              		.loc 1 701 3 is_stmt 0 view .LVU595
 2417 0006 0128     		cmp	r0, #1
 2418 0008 1DD0     		beq	.L280
 701:Drivers/STM32F1xx_HAL_Driver/Src/stm32f1xx_hal_dma.c ****   
 2419              		.loc 1 701 3 is_stmt 1 discriminator 2 view .LVU596
 2420 000a 0120     		movs	r0, #1
 2421 000c 83F82000 		strb	r0, [r3, #32]
 703:Drivers/STM32F1xx_HAL_Driver/Src/stm32f1xx_hal_dma.c ****   {
 2422              		.loc 1 703 3 discriminator 2 view .LVU597
 703:Drivers/STM32F1xx_HAL_Driver/Src/stm32f1xx_hal_dma.c ****   {
 2423              		.loc 1 703 33 is_stmt 0 discriminator 2 view .LVU598
 2424 0010 93F82100 		ldrb	r0, [r3, #33]	@ zero_extendqisi2
 703:Drivers/STM32F1xx_HAL_Driver/Src/stm32f1xx_hal_dma.c ****   {
 2425              		.loc 1 703 5 discriminator 2 view .LVU599
 2426 0014 0128     		cmp	r0, #1
 2427 0016 04D0     		beq	.L282
 730:Drivers/STM32F1xx_HAL_Driver/Src/stm32f1xx_hal_dma.c ****   } 
ARM GAS  C:\Users\tianx\AppData\Local\Temp\ccOmbCCE.s 			page 69


 2428              		.loc 1 730 12 view .LVU600
 2429 0018 0120     		movs	r0, #1
 2430              	.L274:
 2431              	.LVL77:
 734:Drivers/STM32F1xx_HAL_Driver/Src/stm32f1xx_hal_dma.c ****   
 2432              		.loc 1 734 3 is_stmt 1 view .LVU601
 734:Drivers/STM32F1xx_HAL_Driver/Src/stm32f1xx_hal_dma.c ****   
 2433              		.loc 1 734 3 view .LVU602
 2434 001a 0022     		movs	r2, #0
 2435              	.LVL78:
 734:Drivers/STM32F1xx_HAL_Driver/Src/stm32f1xx_hal_dma.c ****   
 2436              		.loc 1 734 3 is_stmt 0 view .LVU603
 2437 001c 83F82020 		strb	r2, [r3, #32]
 736:Drivers/STM32F1xx_HAL_Driver/Src/stm32f1xx_hal_dma.c **** }
 2438              		.loc 1 736 3 is_stmt 1 view .LVU604
 736:Drivers/STM32F1xx_HAL_Driver/Src/stm32f1xx_hal_dma.c **** }
 2439              		.loc 1 736 10 is_stmt 0 view .LVU605
 2440 0020 7047     		bx	lr
 2441              	.LVL79:
 2442              	.L282:
 705:Drivers/STM32F1xx_HAL_Driver/Src/stm32f1xx_hal_dma.c ****     {
 2443              		.loc 1 705 5 is_stmt 1 view .LVU606
 2444 0022 0329     		cmp	r1, #3
 2445 0024 F9D8     		bhi	.L274
 2446 0026 DFE801F0 		tbb	[pc, r1]
 2447              	.L276:
 2448 002a 02       		.byte	(.L279-.L276)/2
 2449 002b 05       		.byte	(.L278-.L276)/2
 2450 002c 08       		.byte	(.L277-.L276)/2
 2451 002d 0B       		.byte	(.L275-.L276)/2
 2452              		.p2align 1
 2453              	.L279:
 708:Drivers/STM32F1xx_HAL_Driver/Src/stm32f1xx_hal_dma.c ****       break;
 2454              		.loc 1 708 7 view .LVU607
 708:Drivers/STM32F1xx_HAL_Driver/Src/stm32f1xx_hal_dma.c ****       break;
 2455              		.loc 1 708 30 is_stmt 0 view .LVU608
 2456 002e 9A62     		str	r2, [r3, #40]
 709:Drivers/STM32F1xx_HAL_Driver/Src/stm32f1xx_hal_dma.c ****       
 2457              		.loc 1 709 7 is_stmt 1 view .LVU609
 698:Drivers/STM32F1xx_HAL_Driver/Src/stm32f1xx_hal_dma.c ****   
 2458              		.loc 1 698 21 is_stmt 0 view .LVU610
 2459 0030 0846     		mov	r0, r1
 709:Drivers/STM32F1xx_HAL_Driver/Src/stm32f1xx_hal_dma.c ****       
 2460              		.loc 1 709 7 view .LVU611
 2461 0032 F2E7     		b	.L274
 2462              	.L278:
 712:Drivers/STM32F1xx_HAL_Driver/Src/stm32f1xx_hal_dma.c ****       break;         
 2463              		.loc 1 712 7 is_stmt 1 view .LVU612
 712:Drivers/STM32F1xx_HAL_Driver/Src/stm32f1xx_hal_dma.c ****       break;         
 2464              		.loc 1 712 34 is_stmt 0 view .LVU613
 2465 0034 DA62     		str	r2, [r3, #44]
 713:Drivers/STM32F1xx_HAL_Driver/Src/stm32f1xx_hal_dma.c **** 
 2466              		.loc 1 713 7 is_stmt 1 view .LVU614
 698:Drivers/STM32F1xx_HAL_Driver/Src/stm32f1xx_hal_dma.c ****   
 2467              		.loc 1 698 21 is_stmt 0 view .LVU615
 2468 0036 0020     		movs	r0, #0
 713:Drivers/STM32F1xx_HAL_Driver/Src/stm32f1xx_hal_dma.c **** 
ARM GAS  C:\Users\tianx\AppData\Local\Temp\ccOmbCCE.s 			page 70


 2469              		.loc 1 713 7 view .LVU616
 2470 0038 EFE7     		b	.L274
 2471              	.L277:
 716:Drivers/STM32F1xx_HAL_Driver/Src/stm32f1xx_hal_dma.c ****       break;         
 2472              		.loc 1 716 7 is_stmt 1 view .LVU617
 716:Drivers/STM32F1xx_HAL_Driver/Src/stm32f1xx_hal_dma.c ****       break;         
 2473              		.loc 1 716 31 is_stmt 0 view .LVU618
 2474 003a 1A63     		str	r2, [r3, #48]
 717:Drivers/STM32F1xx_HAL_Driver/Src/stm32f1xx_hal_dma.c ****       
 2475              		.loc 1 717 7 is_stmt 1 view .LVU619
 698:Drivers/STM32F1xx_HAL_Driver/Src/stm32f1xx_hal_dma.c ****   
 2476              		.loc 1 698 21 is_stmt 0 view .LVU620
 2477 003c 0020     		movs	r0, #0
 717:Drivers/STM32F1xx_HAL_Driver/Src/stm32f1xx_hal_dma.c ****       
 2478              		.loc 1 717 7 view .LVU621
 2479 003e ECE7     		b	.L274
 2480              	.L275:
 720:Drivers/STM32F1xx_HAL_Driver/Src/stm32f1xx_hal_dma.c ****       break; 
 2481              		.loc 1 720 7 is_stmt 1 view .LVU622
 720:Drivers/STM32F1xx_HAL_Driver/Src/stm32f1xx_hal_dma.c ****       break; 
 2482              		.loc 1 720 31 is_stmt 0 view .LVU623
 2483 0040 5A63     		str	r2, [r3, #52]
 721:Drivers/STM32F1xx_HAL_Driver/Src/stm32f1xx_hal_dma.c ****       
 2484              		.loc 1 721 7 is_stmt 1 view .LVU624
 698:Drivers/STM32F1xx_HAL_Driver/Src/stm32f1xx_hal_dma.c ****   
 2485              		.loc 1 698 21 is_stmt 0 view .LVU625
 2486 0042 0020     		movs	r0, #0
 721:Drivers/STM32F1xx_HAL_Driver/Src/stm32f1xx_hal_dma.c ****       
 2487              		.loc 1 721 7 view .LVU626
 2488 0044 E9E7     		b	.L274
 2489              	.L280:
 701:Drivers/STM32F1xx_HAL_Driver/Src/stm32f1xx_hal_dma.c ****   
 2490              		.loc 1 701 3 view .LVU627
 2491 0046 0220     		movs	r0, #2
 737:Drivers/STM32F1xx_HAL_Driver/Src/stm32f1xx_hal_dma.c **** 
 2492              		.loc 1 737 1 view .LVU628
 2493 0048 7047     		bx	lr
 2494              		.cfi_endproc
 2495              	.LFE74:
 2497              		.section	.text.HAL_DMA_UnRegisterCallback,"ax",%progbits
 2498              		.align	1
 2499              		.global	HAL_DMA_UnRegisterCallback
 2500              		.syntax unified
 2501              		.thumb
 2502              		.thumb_func
 2503              		.fpu softvfp
 2505              	HAL_DMA_UnRegisterCallback:
 2506              	.LVL80:
 2507              	.LFB75:
 748:Drivers/STM32F1xx_HAL_Driver/Src/stm32f1xx_hal_dma.c ****   HAL_StatusTypeDef status = HAL_OK;
 2508              		.loc 1 748 1 is_stmt 1 view -0
 2509              		.cfi_startproc
 2510              		@ args = 0, pretend = 0, frame = 0
 2511              		@ frame_needed = 0, uses_anonymous_args = 0
 2512              		@ link register save eliminated.
 748:Drivers/STM32F1xx_HAL_Driver/Src/stm32f1xx_hal_dma.c ****   HAL_StatusTypeDef status = HAL_OK;
 2513              		.loc 1 748 1 is_stmt 0 view .LVU630
ARM GAS  C:\Users\tianx\AppData\Local\Temp\ccOmbCCE.s 			page 71


 2514 0000 0346     		mov	r3, r0
 749:Drivers/STM32F1xx_HAL_Driver/Src/stm32f1xx_hal_dma.c **** 
 2515              		.loc 1 749 3 is_stmt 1 view .LVU631
 2516              	.LVL81:
 752:Drivers/STM32F1xx_HAL_Driver/Src/stm32f1xx_hal_dma.c ****   
 2517              		.loc 1 752 3 view .LVU632
 752:Drivers/STM32F1xx_HAL_Driver/Src/stm32f1xx_hal_dma.c ****   
 2518              		.loc 1 752 3 view .LVU633
 2519 0002 90F82020 		ldrb	r2, [r0, #32]	@ zero_extendqisi2
 2520 0006 012A     		cmp	r2, #1
 2521 0008 25D0     		beq	.L292
 752:Drivers/STM32F1xx_HAL_Driver/Src/stm32f1xx_hal_dma.c ****   
 2522              		.loc 1 752 3 discriminator 2 view .LVU634
 2523 000a 0122     		movs	r2, #1
 2524 000c 80F82020 		strb	r2, [r0, #32]
 754:Drivers/STM32F1xx_HAL_Driver/Src/stm32f1xx_hal_dma.c ****   {
 2525              		.loc 1 754 3 discriminator 2 view .LVU635
 754:Drivers/STM32F1xx_HAL_Driver/Src/stm32f1xx_hal_dma.c ****   {
 2526              		.loc 1 754 33 is_stmt 0 discriminator 2 view .LVU636
 2527 0010 90F82100 		ldrb	r0, [r0, #33]	@ zero_extendqisi2
 2528              	.LVL82:
 754:Drivers/STM32F1xx_HAL_Driver/Src/stm32f1xx_hal_dma.c ****   {
 2529              		.loc 1 754 5 discriminator 2 view .LVU637
 2530 0014 9042     		cmp	r0, r2
 2531 0016 04D0     		beq	.L294
 788:Drivers/STM32F1xx_HAL_Driver/Src/stm32f1xx_hal_dma.c ****   } 
 2532              		.loc 1 788 12 view .LVU638
 2533 0018 0120     		movs	r0, #1
 2534              	.L285:
 2535              	.LVL83:
 792:Drivers/STM32F1xx_HAL_Driver/Src/stm32f1xx_hal_dma.c ****   
 2536              		.loc 1 792 3 is_stmt 1 view .LVU639
 792:Drivers/STM32F1xx_HAL_Driver/Src/stm32f1xx_hal_dma.c ****   
 2537              		.loc 1 792 3 view .LVU640
 2538 001a 0022     		movs	r2, #0
 2539 001c 83F82020 		strb	r2, [r3, #32]
 794:Drivers/STM32F1xx_HAL_Driver/Src/stm32f1xx_hal_dma.c **** }
 2540              		.loc 1 794 3 view .LVU641
 794:Drivers/STM32F1xx_HAL_Driver/Src/stm32f1xx_hal_dma.c **** }
 2541              		.loc 1 794 10 is_stmt 0 view .LVU642
 2542 0020 7047     		bx	lr
 2543              	.LVL84:
 2544              	.L294:
 756:Drivers/STM32F1xx_HAL_Driver/Src/stm32f1xx_hal_dma.c ****     {
 2545              		.loc 1 756 5 is_stmt 1 view .LVU643
 2546 0022 0429     		cmp	r1, #4
 2547 0024 F9D8     		bhi	.L285
 2548 0026 DFE801F0 		tbb	[pc, r1]
 2549              	.L287:
 2550 002a 03       		.byte	(.L291-.L287)/2
 2551 002b 07       		.byte	(.L290-.L287)/2
 2552 002c 0A       		.byte	(.L289-.L287)/2
 2553 002d 0D       		.byte	(.L288-.L287)/2
 2554 002e 10       		.byte	(.L286-.L287)/2
 2555 002f 00       		.p2align 1
 2556              	.L291:
 759:Drivers/STM32F1xx_HAL_Driver/Src/stm32f1xx_hal_dma.c ****       break;
ARM GAS  C:\Users\tianx\AppData\Local\Temp\ccOmbCCE.s 			page 72


 2557              		.loc 1 759 7 view .LVU644
 759:Drivers/STM32F1xx_HAL_Driver/Src/stm32f1xx_hal_dma.c ****       break;
 2558              		.loc 1 759 30 is_stmt 0 view .LVU645
 2559 0030 0022     		movs	r2, #0
 2560 0032 9A62     		str	r2, [r3, #40]
 760:Drivers/STM32F1xx_HAL_Driver/Src/stm32f1xx_hal_dma.c **** 
 2561              		.loc 1 760 7 is_stmt 1 view .LVU646
 749:Drivers/STM32F1xx_HAL_Driver/Src/stm32f1xx_hal_dma.c **** 
 2562              		.loc 1 749 21 is_stmt 0 view .LVU647
 2563 0034 0846     		mov	r0, r1
 760:Drivers/STM32F1xx_HAL_Driver/Src/stm32f1xx_hal_dma.c **** 
 2564              		.loc 1 760 7 view .LVU648
 2565 0036 F0E7     		b	.L285
 2566              	.L290:
 763:Drivers/STM32F1xx_HAL_Driver/Src/stm32f1xx_hal_dma.c ****       break;         
 2567              		.loc 1 763 7 is_stmt 1 view .LVU649
 763:Drivers/STM32F1xx_HAL_Driver/Src/stm32f1xx_hal_dma.c ****       break;         
 2568              		.loc 1 763 34 is_stmt 0 view .LVU650
 2569 0038 0020     		movs	r0, #0
 2570 003a D862     		str	r0, [r3, #44]
 764:Drivers/STM32F1xx_HAL_Driver/Src/stm32f1xx_hal_dma.c **** 
 2571              		.loc 1 764 7 is_stmt 1 view .LVU651
 2572 003c EDE7     		b	.L285
 2573              	.L289:
 767:Drivers/STM32F1xx_HAL_Driver/Src/stm32f1xx_hal_dma.c ****       break;         
 2574              		.loc 1 767 7 view .LVU652
 767:Drivers/STM32F1xx_HAL_Driver/Src/stm32f1xx_hal_dma.c ****       break;         
 2575              		.loc 1 767 31 is_stmt 0 view .LVU653
 2576 003e 0020     		movs	r0, #0
 2577 0040 1863     		str	r0, [r3, #48]
 768:Drivers/STM32F1xx_HAL_Driver/Src/stm32f1xx_hal_dma.c **** 
 2578              		.loc 1 768 7 is_stmt 1 view .LVU654
 2579 0042 EAE7     		b	.L285
 2580              	.L288:
 771:Drivers/STM32F1xx_HAL_Driver/Src/stm32f1xx_hal_dma.c ****       break; 
 2581              		.loc 1 771 7 view .LVU655
 771:Drivers/STM32F1xx_HAL_Driver/Src/stm32f1xx_hal_dma.c ****       break; 
 2582              		.loc 1 771 31 is_stmt 0 view .LVU656
 2583 0044 0020     		movs	r0, #0
 2584 0046 5863     		str	r0, [r3, #52]
 772:Drivers/STM32F1xx_HAL_Driver/Src/stm32f1xx_hal_dma.c **** 
 2585              		.loc 1 772 7 is_stmt 1 view .LVU657
 2586 0048 E7E7     		b	.L285
 2587              	.L286:
 775:Drivers/STM32F1xx_HAL_Driver/Src/stm32f1xx_hal_dma.c ****       hdma->XferHalfCpltCallback = NULL;
 2588              		.loc 1 775 7 view .LVU658
 775:Drivers/STM32F1xx_HAL_Driver/Src/stm32f1xx_hal_dma.c ****       hdma->XferHalfCpltCallback = NULL;
 2589              		.loc 1 775 30 is_stmt 0 view .LVU659
 2590 004a 0020     		movs	r0, #0
 2591 004c 9862     		str	r0, [r3, #40]
 776:Drivers/STM32F1xx_HAL_Driver/Src/stm32f1xx_hal_dma.c ****       hdma->XferErrorCallback = NULL;
 2592              		.loc 1 776 7 is_stmt 1 view .LVU660
 776:Drivers/STM32F1xx_HAL_Driver/Src/stm32f1xx_hal_dma.c ****       hdma->XferErrorCallback = NULL;
 2593              		.loc 1 776 34 is_stmt 0 view .LVU661
 2594 004e D862     		str	r0, [r3, #44]
 777:Drivers/STM32F1xx_HAL_Driver/Src/stm32f1xx_hal_dma.c ****       hdma->XferAbortCallback = NULL;
 2595              		.loc 1 777 7 is_stmt 1 view .LVU662
ARM GAS  C:\Users\tianx\AppData\Local\Temp\ccOmbCCE.s 			page 73


 777:Drivers/STM32F1xx_HAL_Driver/Src/stm32f1xx_hal_dma.c ****       hdma->XferAbortCallback = NULL;
 2596              		.loc 1 777 31 is_stmt 0 view .LVU663
 2597 0050 1863     		str	r0, [r3, #48]
 778:Drivers/STM32F1xx_HAL_Driver/Src/stm32f1xx_hal_dma.c ****       break; 
 2598              		.loc 1 778 7 is_stmt 1 view .LVU664
 778:Drivers/STM32F1xx_HAL_Driver/Src/stm32f1xx_hal_dma.c ****       break; 
 2599              		.loc 1 778 31 is_stmt 0 view .LVU665
 2600 0052 5863     		str	r0, [r3, #52]
 779:Drivers/STM32F1xx_HAL_Driver/Src/stm32f1xx_hal_dma.c **** 
 2601              		.loc 1 779 7 is_stmt 1 view .LVU666
 2602 0054 E1E7     		b	.L285
 2603              	.LVL85:
 2604              	.L292:
 752:Drivers/STM32F1xx_HAL_Driver/Src/stm32f1xx_hal_dma.c ****   
 2605              		.loc 1 752 3 is_stmt 0 view .LVU667
 2606 0056 0220     		movs	r0, #2
 2607              	.LVL86:
 795:Drivers/STM32F1xx_HAL_Driver/Src/stm32f1xx_hal_dma.c ****   
 2608              		.loc 1 795 1 view .LVU668
 2609 0058 7047     		bx	lr
 2610              		.cfi_endproc
 2611              	.LFE75:
 2613              		.section	.text.HAL_DMA_GetState,"ax",%progbits
 2614              		.align	1
 2615              		.global	HAL_DMA_GetState
 2616              		.syntax unified
 2617              		.thumb
 2618              		.thumb_func
 2619              		.fpu softvfp
 2621              	HAL_DMA_GetState:
 2622              	.LVL87:
 2623              	.LFB76:
 824:Drivers/STM32F1xx_HAL_Driver/Src/stm32f1xx_hal_dma.c ****   /* Return DMA handle state */
 2624              		.loc 1 824 1 is_stmt 1 view -0
 2625              		.cfi_startproc
 2626              		@ args = 0, pretend = 0, frame = 0
 2627              		@ frame_needed = 0, uses_anonymous_args = 0
 2628              		@ link register save eliminated.
 826:Drivers/STM32F1xx_HAL_Driver/Src/stm32f1xx_hal_dma.c **** }
 2629              		.loc 1 826 3 view .LVU670
 827:Drivers/STM32F1xx_HAL_Driver/Src/stm32f1xx_hal_dma.c **** 
 2630              		.loc 1 827 1 is_stmt 0 view .LVU671
 2631 0000 90F82100 		ldrb	r0, [r0, #33]	@ zero_extendqisi2
 2632              	.LVL88:
 827:Drivers/STM32F1xx_HAL_Driver/Src/stm32f1xx_hal_dma.c **** 
 2633              		.loc 1 827 1 view .LVU672
 2634 0004 7047     		bx	lr
 2635              		.cfi_endproc
 2636              	.LFE76:
 2638              		.section	.text.HAL_DMA_GetError,"ax",%progbits
 2639              		.align	1
 2640              		.global	HAL_DMA_GetError
 2641              		.syntax unified
 2642              		.thumb
 2643              		.thumb_func
 2644              		.fpu softvfp
 2646              	HAL_DMA_GetError:
ARM GAS  C:\Users\tianx\AppData\Local\Temp\ccOmbCCE.s 			page 74


 2647              	.LVL89:
 2648              	.LFB77:
 836:Drivers/STM32F1xx_HAL_Driver/Src/stm32f1xx_hal_dma.c ****   return hdma->ErrorCode;
 2649              		.loc 1 836 1 is_stmt 1 view -0
 2650              		.cfi_startproc
 2651              		@ args = 0, pretend = 0, frame = 0
 2652              		@ frame_needed = 0, uses_anonymous_args = 0
 2653              		@ link register save eliminated.
 837:Drivers/STM32F1xx_HAL_Driver/Src/stm32f1xx_hal_dma.c **** }
 2654              		.loc 1 837 3 view .LVU674
 837:Drivers/STM32F1xx_HAL_Driver/Src/stm32f1xx_hal_dma.c **** }
 2655              		.loc 1 837 14 is_stmt 0 view .LVU675
 2656 0000 806B     		ldr	r0, [r0, #56]
 2657              	.LVL90:
 838:Drivers/STM32F1xx_HAL_Driver/Src/stm32f1xx_hal_dma.c **** 
 2658              		.loc 1 838 1 view .LVU676
 2659 0002 7047     		bx	lr
 2660              		.cfi_endproc
 2661              	.LFE77:
 2663              		.text
 2664              	.Letext0:
 2665              		.file 2 "d:\\arm_gcc\\8 2019-q3-update\\arm-none-eabi\\include\\machine\\_default_types.h"
 2666              		.file 3 "d:\\arm_gcc\\8 2019-q3-update\\arm-none-eabi\\include\\sys\\_stdint.h"
 2667              		.file 4 "Drivers/CMSIS/Include/core_cm3.h"
 2668              		.file 5 "Drivers/CMSIS/Device/ST/STM32F1xx/Include/system_stm32f1xx.h"
 2669              		.file 6 "Drivers/CMSIS/Device/ST/STM32F1xx/Include/stm32f103xe.h"
 2670              		.file 7 "d:\\arm_gcc\\8 2019-q3-update\\lib\\gcc\\arm-none-eabi\\8.3.1\\include\\stddef.h"
 2671              		.file 8 "d:\\arm_gcc\\8 2019-q3-update\\arm-none-eabi\\include\\sys\\_types.h"
 2672              		.file 9 "d:\\arm_gcc\\8 2019-q3-update\\arm-none-eabi\\include\\sys\\reent.h"
 2673              		.file 10 "d:\\arm_gcc\\8 2019-q3-update\\arm-none-eabi\\include\\sys\\lock.h"
 2674              		.file 11 "Drivers/CMSIS/Device/ST/STM32F1xx/Include/stm32f1xx.h"
 2675              		.file 12 "Drivers/STM32F1xx_HAL_Driver/Inc/stm32f1xx_hal_def.h"
 2676              		.file 13 "Drivers/STM32F1xx_HAL_Driver/Inc/stm32f1xx_hal_dma.h"
 2677              		.file 14 "Drivers/STM32F1xx_HAL_Driver/Inc/stm32f1xx_hal.h"
ARM GAS  C:\Users\tianx\AppData\Local\Temp\ccOmbCCE.s 			page 75

