ARM GAS  C:\Users\tianx\AppData\Local\Temp\cc9kEmva.s 			page 1


   1              		.cpu cortex-m3
   2              		.eabi_attribute 20, 1
   3              		.eabi_attribute 21, 1
   4              		.eabi_attribute 23, 3
   5              		.eabi_attribute 24, 1
   6              		.eabi_attribute 25, 1
   7              		.eabi_attribute 26, 1
   8              		.eabi_attribute 30, 1
   9              		.eabi_attribute 34, 1
  10              		.eabi_attribute 18, 4
  11              		.file	"task.c"
  12              		.text
  13              	.Ltext0:
  14              		.cfi_sections	.debug_frame
  15              		.section	.text.redLedBlink,"ax",%progbits
  16              		.align	1
  17              		.global	redLedBlink
  18              		.arch armv7-m
  19              		.syntax unified
  20              		.thumb
  21              		.thumb_func
  22              		.fpu softvfp
  24              	redLedBlink:
  25              	.LFB110:
  26              		.file 1 "Src/task.c"
   1:Src/task.c    **** #include "task.h"
   2:Src/task.c    **** #include "gpio.h"
   3:Src/task.c    **** 
   4:Src/task.c    **** void redLedBlink(void *pdata)
   5:Src/task.c    **** {
  27              		.loc 1 5 1 view -0
  28              		.cfi_startproc
  29              		@ Volatile: function does not return.
  30              		@ args = 0, pretend = 0, frame = 0
  31              		@ frame_needed = 0, uses_anonymous_args = 0
  32              	.LVL0:
  33              		.loc 1 5 1 is_stmt 0 view .LVU1
  34 0000 08B5     		push	{r3, lr}
  35              	.LCFI0:
  36              		.cfi_def_cfa_offset 8
  37              		.cfi_offset 3, -8
  38              		.cfi_offset 14, -4
  39              	.LVL1:
  40              	.L2:
   6:Src/task.c    ****     while (1)
  41              		.loc 1 6 5 is_stmt 1 discriminator 1 view .LVU2
   7:Src/task.c    ****     {
   8:Src/task.c    ****         HAL_GPIO_TogglePin(GPIOB, GPIO_PIN_5);
  42              		.loc 1 8 9 discriminator 1 view .LVU3
  43 0002 134C     		ldr	r4, .L4
  44 0004 2021     		movs	r1, #32
  45 0006 2046     		mov	r0, r4
  46 0008 FFF7FEFF 		bl	HAL_GPIO_TogglePin
  47              	.LVL2:
   9:Src/task.c    ****         osDelay(500);
  48              		.loc 1 9 9 discriminator 1 view .LVU4
  49 000c 4FF4FA70 		mov	r0, #500
ARM GAS  C:\Users\tianx\AppData\Local\Temp\cc9kEmva.s 			page 2


  50 0010 FFF7FEFF 		bl	osDelay
  51              	.LVL3:
  10:Src/task.c    ****         HAL_GPIO_TogglePin(GPIOB, GPIO_PIN_5);
  52              		.loc 1 10 9 discriminator 1 view .LVU5
  53 0014 2021     		movs	r1, #32
  54 0016 2046     		mov	r0, r4
  55 0018 FFF7FEFF 		bl	HAL_GPIO_TogglePin
  56              	.LVL4:
  11:Src/task.c    ****         HAL_GPIO_TogglePin(GPIOB, GPIO_PIN_1);
  57              		.loc 1 11 9 discriminator 1 view .LVU6
  58 001c 0221     		movs	r1, #2
  59 001e 2046     		mov	r0, r4
  60 0020 FFF7FEFF 		bl	HAL_GPIO_TogglePin
  61              	.LVL5:
  12:Src/task.c    ****         osDelay(500);
  62              		.loc 1 12 9 discriminator 1 view .LVU7
  63 0024 4FF4FA70 		mov	r0, #500
  64 0028 FFF7FEFF 		bl	osDelay
  65              	.LVL6:
  13:Src/task.c    ****         HAL_GPIO_TogglePin(GPIOB, GPIO_PIN_1);
  66              		.loc 1 13 9 discriminator 1 view .LVU8
  67 002c 0221     		movs	r1, #2
  68 002e 2046     		mov	r0, r4
  69 0030 FFF7FEFF 		bl	HAL_GPIO_TogglePin
  70              	.LVL7:
  14:Src/task.c    ****         HAL_GPIO_TogglePin(GPIOB, GPIO_PIN_0);
  71              		.loc 1 14 9 discriminator 1 view .LVU9
  72 0034 0121     		movs	r1, #1
  73 0036 2046     		mov	r0, r4
  74 0038 FFF7FEFF 		bl	HAL_GPIO_TogglePin
  75              	.LVL8:
  15:Src/task.c    ****         osDelay(500);
  76              		.loc 1 15 9 discriminator 1 view .LVU10
  77 003c 4FF4FA70 		mov	r0, #500
  78 0040 FFF7FEFF 		bl	osDelay
  79              	.LVL9:
  16:Src/task.c    ****         HAL_GPIO_TogglePin(GPIOB, GPIO_PIN_0);
  80              		.loc 1 16 9 discriminator 1 view .LVU11
  81 0044 0121     		movs	r1, #1
  82 0046 2046     		mov	r0, r4
  83 0048 FFF7FEFF 		bl	HAL_GPIO_TogglePin
  84              	.LVL10:
  85 004c D9E7     		b	.L2
  86              	.L5:
  87 004e 00BF     		.align	2
  88              	.L4:
  89 0050 000C0140 		.word	1073810432
  90              		.cfi_endproc
  91              	.LFE110:
  93              		.text
  94              	.Letext0:
  95              		.file 2 "d:\\arm_gcc\\8 2019-q3-update\\arm-none-eabi\\include\\machine\\_default_types.h"
  96              		.file 3 "d:\\arm_gcc\\8 2019-q3-update\\arm-none-eabi\\include\\sys\\_stdint.h"
  97              		.file 4 "d:\\arm_gcc\\8 2019-q3-update\\lib\\gcc\\arm-none-eabi\\8.3.1\\include\\stddef.h"
  98              		.file 5 "Drivers/CMSIS/Include/core_cm3.h"
  99              		.file 6 "Drivers/CMSIS/Device/ST/STM32F1xx/Include/system_stm32f1xx.h"
 100              		.file 7 "Drivers/CMSIS/Device/ST/STM32F1xx/Include/stm32f103xe.h"
ARM GAS  C:\Users\tianx\AppData\Local\Temp\cc9kEmva.s 			page 3


 101              		.file 8 "d:\\arm_gcc\\8 2019-q3-update\\arm-none-eabi\\include\\sys\\_types.h"
 102              		.file 9 "d:\\arm_gcc\\8 2019-q3-update\\arm-none-eabi\\include\\sys\\reent.h"
 103              		.file 10 "d:\\arm_gcc\\8 2019-q3-update\\arm-none-eabi\\include\\sys\\lock.h"
 104              		.file 11 "Drivers/STM32F1xx_HAL_Driver/Inc/stm32f1xx_hal.h"
 105              		.file 12 "..//kernel/core/include/tos_ktypes.h"
 106              		.file 13 "..//kernel/core/include/tos_task.h"
 107              		.file 14 "d:\\arm_gcc\\8 2019-q3-update\\arm-none-eabi\\include\\stdlib.h"
 108              		.file 15 "..//kernel/core/include/tos_list.h"
 109              		.file 16 "..//kernel/core/include/tos_pend.h"
 110              		.file 17 "..//kernel/core/include/tos_sys.h"
 111              		.file 18 "..//kernel/core/include/tos_timer.h"
 112              		.file 19 "..//kernel/core/include/tos_mmheap.h"
 113              		.file 20 "..//kernel/core/include/tos_sched.h"
 114              		.file 21 "..//kernel/core/include/tos_global.h"
 115              		.file 22 "Drivers/STM32F1xx_HAL_Driver/Inc/stm32f1xx_hal_gpio.h"
 116              		.file 23 "..//osal/cmsis_os/cmsis_os.h"
ARM GAS  C:\Users\tianx\AppData\Local\Temp\cc9kEmva.s 			page 4


DEFINED SYMBOLS
                            *ABS*:00000000 task.c
C:\Users\tianx\AppData\Local\Temp\cc9kEmva.s:16     .text.redLedBlink:00000000 $t
C:\Users\tianx\AppData\Local\Temp\cc9kEmva.s:24     .text.redLedBlink:00000000 redLedBlink
C:\Users\tianx\AppData\Local\Temp\cc9kEmva.s:89     .text.redLedBlink:00000050 $d

UNDEFINED SYMBOLS
HAL_GPIO_TogglePin
osDelay
