ARM GAS  C:\Users\tianx\AppData\Local\Temp\ccZrGPud.s 			page 1


   1              		.cpu cortex-m3
   2              		.eabi_attribute 20, 1
   3              		.eabi_attribute 21, 1
   4              		.eabi_attribute 23, 3
   5              		.eabi_attribute 24, 1
   6              		.eabi_attribute 25, 1
   7              		.eabi_attribute 26, 1
   8              		.eabi_attribute 30, 1
   9              		.eabi_attribute 34, 1
  10              		.eabi_attribute 18, 4
  11              		.file	"tos_binary_heap.c"
  12              		.text
  13              	.Ltext0:
  14              		.cfi_sections	.debug_frame
  15              		.section	.text.bin_heap_do_percolate_up,"ax",%progbits
  16              		.align	1
  17              		.arch armv7-m
  18              		.syntax unified
  19              		.thumb
  20              		.thumb_func
  21              		.fpu softvfp
  23              	bin_heap_do_percolate_up:
  24              	.LVL0:
  25              	.LFB114:
  26              		.file 1 "..//kernel/core/tos_binary_heap.c"
   1:..//kernel/core/tos_binary_heap.c **** /*----------------------------------------------------------------------------
   2:..//kernel/core/tos_binary_heap.c ****  * Tencent is pleased to support the open source community by making TencentOS
   3:..//kernel/core/tos_binary_heap.c ****  * available.
   4:..//kernel/core/tos_binary_heap.c ****  *
   5:..//kernel/core/tos_binary_heap.c ****  * Copyright (C) 2019 THL A29 Limited, a Tencent company. All rights reserved.
   6:..//kernel/core/tos_binary_heap.c ****  * If you have downloaded a copy of the TencentOS binary from Tencent, please
   7:..//kernel/core/tos_binary_heap.c ****  * note that the TencentOS binary is licensed under the BSD 3-Clause License.
   8:..//kernel/core/tos_binary_heap.c ****  *
   9:..//kernel/core/tos_binary_heap.c ****  * If you have downloaded a copy of the TencentOS source code from Tencent,
  10:..//kernel/core/tos_binary_heap.c ****  * please note that TencentOS source code is licensed under the BSD 3-Clause
  11:..//kernel/core/tos_binary_heap.c ****  * License, except for the third-party components listed below which are
  12:..//kernel/core/tos_binary_heap.c ****  * subject to different license terms. Your integration of TencentOS into your
  13:..//kernel/core/tos_binary_heap.c ****  * own projects may require compliance with the BSD 3-Clause License, as well
  14:..//kernel/core/tos_binary_heap.c ****  * as the other licenses applicable to the third-party components included
  15:..//kernel/core/tos_binary_heap.c ****  * within TencentOS.
  16:..//kernel/core/tos_binary_heap.c ****  *---------------------------------------------------------------------------*/
  17:..//kernel/core/tos_binary_heap.c **** 
  18:..//kernel/core/tos_binary_heap.c **** #include "tos_k.h"
  19:..//kernel/core/tos_binary_heap.c **** 
  20:..//kernel/core/tos_binary_heap.c **** __STATIC_INLINE__ void bin_heap_item_copy_to(k_bin_heap_t *bin_heap, void *item_out, size_t *item_s
  21:..//kernel/core/tos_binary_heap.c **** {
  22:..//kernel/core/tos_binary_heap.c ****     memcpy(item_out, BIN_HEAP_FIRST_ITEM(bin_heap), bin_heap->item_size);
  23:..//kernel/core/tos_binary_heap.c ****     if (item_size) {
  24:..//kernel/core/tos_binary_heap.c ****         *item_size = bin_heap->item_size;
  25:..//kernel/core/tos_binary_heap.c ****     }
  26:..//kernel/core/tos_binary_heap.c **** }
  27:..//kernel/core/tos_binary_heap.c **** 
  28:..//kernel/core/tos_binary_heap.c **** __STATIC_INLINE__ void bin_heap_item_copy_from(k_bin_heap_t *bin_heap, void *item_in)
  29:..//kernel/core/tos_binary_heap.c **** {
  30:..//kernel/core/tos_binary_heap.c ****     memcpy(BIN_HEAP_LAST_ITEM(bin_heap), item_in, bin_heap->item_size);
  31:..//kernel/core/tos_binary_heap.c **** }
  32:..//kernel/core/tos_binary_heap.c **** 
ARM GAS  C:\Users\tianx\AppData\Local\Temp\ccZrGPud.s 			page 2


  33:..//kernel/core/tos_binary_heap.c **** __STATIC_INLINE__ void bin_heap_item_increase(k_bin_heap_t *bin_heap)
  34:..//kernel/core/tos_binary_heap.c **** {
  35:..//kernel/core/tos_binary_heap.c ****     ++bin_heap->total;
  36:..//kernel/core/tos_binary_heap.c **** }
  37:..//kernel/core/tos_binary_heap.c **** 
  38:..//kernel/core/tos_binary_heap.c **** __STATIC_INLINE__ void bin_heap_item_decrease(k_bin_heap_t *bin_heap)
  39:..//kernel/core/tos_binary_heap.c **** {
  40:..//kernel/core/tos_binary_heap.c ****     --bin_heap->total;
  41:..//kernel/core/tos_binary_heap.c **** }
  42:..//kernel/core/tos_binary_heap.c **** 
  43:..//kernel/core/tos_binary_heap.c **** __STATIC__ void bin_heap_do_percolate_up(k_bin_heap_t *bin_heap, uint16_t hole, void *item_backup)
  44:..//kernel/core/tos_binary_heap.c **** {
  27              		.loc 1 44 1 view -0
  28              		.cfi_startproc
  29              		@ args = 0, pretend = 0, frame = 0
  30              		@ frame_needed = 0, uses_anonymous_args = 0
  31              		.loc 1 44 1 is_stmt 0 view .LVU1
  32 0000 2DE9F84F 		push	{r3, r4, r5, r6, r7, r8, r9, r10, fp, lr}
  33              	.LCFI0:
  34              		.cfi_def_cfa_offset 40
  35              		.cfi_offset 3, -40
  36              		.cfi_offset 4, -36
  37              		.cfi_offset 5, -32
  38              		.cfi_offset 6, -28
  39              		.cfi_offset 7, -24
  40              		.cfi_offset 8, -20
  41              		.cfi_offset 9, -16
  42              		.cfi_offset 10, -12
  43              		.cfi_offset 11, -8
  44              		.cfi_offset 14, -4
  45 0004 0646     		mov	r6, r0
  46 0006 0F46     		mov	r7, r1
  47 0008 9246     		mov	r10, r2
  45:..//kernel/core/tos_binary_heap.c ****     k_bin_heap_cmp cmp;
  48              		.loc 1 45 5 is_stmt 1 view .LVU2
  46:..//kernel/core/tos_binary_heap.c ****     size_t item_size;
  49              		.loc 1 46 5 view .LVU3
  47:..//kernel/core/tos_binary_heap.c ****     uint16_t parent, top;
  50              		.loc 1 47 5 view .LVU4
  48:..//kernel/core/tos_binary_heap.c ****     void *hole_item, *parent_item;
  51              		.loc 1 48 5 view .LVU5
  49:..//kernel/core/tos_binary_heap.c **** 
  50:..//kernel/core/tos_binary_heap.c ****     top         = 0u;
  52              		.loc 1 50 5 view .LVU6
  53              	.LVL1:
  51:..//kernel/core/tos_binary_heap.c ****     parent      = BIN_HEAP_PARENT(hole);
  54              		.loc 1 51 5 view .LVU7
  55              		.loc 1 51 19 is_stmt 0 view .LVU8
  56 000a 4D1E     		subs	r5, r1, #1
  57 000c 05EBD575 		add	r5, r5, r5, lsr #31
  58              		.loc 1 51 17 view .LVU9
  59 0010 C5F34F05 		ubfx	r5, r5, #1, #16
  60              	.LVL2:
  52:..//kernel/core/tos_binary_heap.c ****     cmp         = bin_heap->cmp;
  61              		.loc 1 52 5 is_stmt 1 view .LVU10
  62              		.loc 1 52 17 is_stmt 0 view .LVU11
  63 0014 D0F808B0 		ldr	fp, [r0, #8]
ARM GAS  C:\Users\tianx\AppData\Local\Temp\ccZrGPud.s 			page 3


  64              	.LVL3:
  53:..//kernel/core/tos_binary_heap.c ****     item_size   = bin_heap->item_size;
  65              		.loc 1 53 5 is_stmt 1 view .LVU12
  66              		.loc 1 53 17 is_stmt 0 view .LVU13
  67 0018 D0F80C90 		ldr	r9, [r0, #12]
  68              	.LVL4:
  54:..//kernel/core/tos_binary_heap.c **** 
  55:..//kernel/core/tos_binary_heap.c ****     hole_item   = BIN_HEAP_THE_ITEM(bin_heap, hole);
  69              		.loc 1 55 5 is_stmt 1 view .LVU14
  70              		.loc 1 55 19 is_stmt 0 view .LVU15
  71 001c 4469     		ldr	r4, [r0, #20]
  72              		.loc 1 55 17 view .LVU16
  73 001e 09FB0148 		mla	r8, r9, r1, r4
  74              	.LVL5:
  56:..//kernel/core/tos_binary_heap.c ****     parent_item = BIN_HEAP_THE_ITEM(bin_heap, parent);
  75              		.loc 1 56 5 is_stmt 1 view .LVU17
  76              		.loc 1 56 17 is_stmt 0 view .LVU18
  77 0022 09FB0544 		mla	r4, r9, r5, r4
  78              	.LVL6:
  57:..//kernel/core/tos_binary_heap.c **** 
  58:..//kernel/core/tos_binary_heap.c ****     while (hole > top && cmp(item_backup, parent_item)) {
  79              		.loc 1 58 5 is_stmt 1 view .LVU19
  80              	.L2:
  81              		.loc 1 58 11 is_stmt 0 view .LVU20
  82 0026 B7B1     		cbz	r7, .L3
  83              		.loc 1 58 26 discriminator 1 view .LVU21
  84 0028 2146     		mov	r1, r4
  85 002a 5046     		mov	r0, r10
  86 002c D847     		blx	fp
  87              	.LVL7:
  88              		.loc 1 58 23 discriminator 1 view .LVU22
  89 002e 90B1     		cbz	r0, .L3
  59:..//kernel/core/tos_binary_heap.c ****         memcpy(hole_item, parent_item, item_size);
  90              		.loc 1 59 9 is_stmt 1 view .LVU23
  91 0030 4A46     		mov	r2, r9
  92 0032 2146     		mov	r1, r4
  93 0034 4046     		mov	r0, r8
  94 0036 FFF7FEFF 		bl	memcpy
  95              	.LVL8:
  60:..//kernel/core/tos_binary_heap.c ****         hole        = parent;
  96              		.loc 1 60 9 view .LVU24
  61:..//kernel/core/tos_binary_heap.c ****         parent      = BIN_HEAP_PARENT(hole);
  97              		.loc 1 61 9 view .LVU25
  98              		.loc 1 61 23 is_stmt 0 view .LVU26
  99 003a 6B1E     		subs	r3, r5, #1
 100 003c 03EBD373 		add	r3, r3, r3, lsr #31
 101              		.loc 1 61 21 view .LVU27
 102 0040 C3F34F03 		ubfx	r3, r3, #1, #16
 103              	.LVL9:
  62:..//kernel/core/tos_binary_heap.c ****         hole_item   = BIN_HEAP_THE_ITEM(bin_heap, hole);
 104              		.loc 1 62 9 is_stmt 1 view .LVU28
 105              		.loc 1 62 23 is_stmt 0 view .LVU29
 106 0044 7269     		ldr	r2, [r6, #20]
 107 0046 F468     		ldr	r4, [r6, #12]
 108              	.LVL10:
 109              		.loc 1 62 21 view .LVU30
 110 0048 04FB0528 		mla	r8, r4, r5, r2
ARM GAS  C:\Users\tianx\AppData\Local\Temp\ccZrGPud.s 			page 4


 111              	.LVL11:
  63:..//kernel/core/tos_binary_heap.c ****         parent_item = BIN_HEAP_THE_ITEM(bin_heap, parent);
 112              		.loc 1 63 9 is_stmt 1 view .LVU31
 113              		.loc 1 63 21 is_stmt 0 view .LVU32
 114 004c 04FB0324 		mla	r4, r4, r3, r2
 115              	.LVL12:
  60:..//kernel/core/tos_binary_heap.c ****         parent      = BIN_HEAP_PARENT(hole);
 116              		.loc 1 60 21 view .LVU33
 117 0050 2F46     		mov	r7, r5
  61:..//kernel/core/tos_binary_heap.c ****         hole_item   = BIN_HEAP_THE_ITEM(bin_heap, hole);
 118              		.loc 1 61 21 view .LVU34
 119 0052 1D46     		mov	r5, r3
 120              	.LVL13:
  61:..//kernel/core/tos_binary_heap.c ****         hole_item   = BIN_HEAP_THE_ITEM(bin_heap, hole);
 121              		.loc 1 61 21 view .LVU35
 122 0054 E7E7     		b	.L2
 123              	.LVL14:
 124              	.L3:
  64:..//kernel/core/tos_binary_heap.c ****     }
  65:..//kernel/core/tos_binary_heap.c ****     hole_item = BIN_HEAP_THE_ITEM(bin_heap, hole);
 125              		.loc 1 65 5 is_stmt 1 view .LVU36
 126              		.loc 1 65 17 is_stmt 0 view .LVU37
 127 0056 7369     		ldr	r3, [r6, #20]
 128 0058 F068     		ldr	r0, [r6, #12]
 129              	.LVL15:
  66:..//kernel/core/tos_binary_heap.c ****     memcpy(hole_item, item_backup, item_size);
 130              		.loc 1 66 5 is_stmt 1 view .LVU38
 131 005a 4A46     		mov	r2, r9
 132 005c 5146     		mov	r1, r10
 133 005e 00FB0730 		mla	r0, r0, r7, r3
 134              	.LVL16:
 135              		.loc 1 66 5 is_stmt 0 view .LVU39
 136 0062 FFF7FEFF 		bl	memcpy
 137              	.LVL17:
  67:..//kernel/core/tos_binary_heap.c **** }
 138              		.loc 1 67 1 view .LVU40
 139 0066 BDE8F88F 		pop	{r3, r4, r5, r6, r7, r8, r9, r10, fp, pc}
 140              		.loc 1 67 1 view .LVU41
 141              		.cfi_endproc
 142              	.LFE114:
 144              		.section	.text.bin_heap_percolate_up,"ax",%progbits
 145              		.align	1
 146              		.syntax unified
 147              		.thumb
 148              		.thumb_func
 149              		.fpu softvfp
 151              	bin_heap_percolate_up:
 152              	.LVL18:
 153              	.LFB115:
  68:..//kernel/core/tos_binary_heap.c **** 
  69:..//kernel/core/tos_binary_heap.c **** __STATIC__ void bin_heap_percolate_up(k_bin_heap_t *bin_heap, void *item_backup)
  70:..//kernel/core/tos_binary_heap.c **** {
 154              		.loc 1 70 1 is_stmt 1 view -0
 155              		.cfi_startproc
 156              		@ args = 0, pretend = 0, frame = 0
 157              		@ frame_needed = 0, uses_anonymous_args = 0
 158              		.loc 1 70 1 is_stmt 0 view .LVU43
ARM GAS  C:\Users\tianx\AppData\Local\Temp\ccZrGPud.s 			page 5


 159 0000 08B5     		push	{r3, lr}
 160              	.LCFI1:
 161              		.cfi_def_cfa_offset 8
 162              		.cfi_offset 3, -8
 163              		.cfi_offset 14, -4
  71:..//kernel/core/tos_binary_heap.c ****     bin_heap_do_percolate_up(bin_heap, bin_heap->total, item_backup);
 164              		.loc 1 71 5 is_stmt 1 view .LVU44
 165 0002 0A46     		mov	r2, r1
 166 0004 8188     		ldrh	r1, [r0, #4]
 167              	.LVL19:
 168              		.loc 1 71 5 is_stmt 0 view .LVU45
 169 0006 FFF7FEFF 		bl	bin_heap_do_percolate_up
 170              	.LVL20:
  72:..//kernel/core/tos_binary_heap.c **** }
 171              		.loc 1 72 1 view .LVU46
 172 000a 08BD     		pop	{r3, pc}
 173              		.cfi_endproc
 174              	.LFE115:
 176              		.section	.text.bin_heap_percolate_down,"ax",%progbits
 177              		.align	1
 178              		.syntax unified
 179              		.thumb
 180              		.thumb_func
 181              		.fpu softvfp
 183              	bin_heap_percolate_down:
 184              	.LVL21:
 185              	.LFB116:
  73:..//kernel/core/tos_binary_heap.c **** 
  74:..//kernel/core/tos_binary_heap.c **** __STATIC__ void bin_heap_percolate_down(k_bin_heap_t *bin_heap)
  75:..//kernel/core/tos_binary_heap.c **** {
 186              		.loc 1 75 1 is_stmt 1 view -0
 187              		.cfi_startproc
 188              		@ args = 0, pretend = 0, frame = 0
 189              		@ frame_needed = 0, uses_anonymous_args = 0
 190              		.loc 1 75 1 is_stmt 0 view .LVU48
 191 0000 2DE9F843 		push	{r3, r4, r5, r6, r7, r8, r9, lr}
 192              	.LCFI2:
 193              		.cfi_def_cfa_offset 32
 194              		.cfi_offset 3, -32
 195              		.cfi_offset 4, -28
 196              		.cfi_offset 5, -24
 197              		.cfi_offset 6, -20
 198              		.cfi_offset 7, -16
 199              		.cfi_offset 8, -12
 200              		.cfi_offset 9, -8
 201              		.cfi_offset 14, -4
 202 0004 0546     		mov	r5, r0
  76:..//kernel/core/tos_binary_heap.c ****     k_bin_heap_cmp cmp;
 203              		.loc 1 76 5 is_stmt 1 view .LVU49
  77:..//kernel/core/tos_binary_heap.c ****     size_t item_size;
 204              		.loc 1 77 5 view .LVU50
  78:..//kernel/core/tos_binary_heap.c ****     uint16_t lchild, rchild, the_child, hole;
 205              		.loc 1 78 5 view .LVU51
  79:..//kernel/core/tos_binary_heap.c ****     void *hole_item, *rchild_item, *lchild_item, *the_child_item;
 206              		.loc 1 79 5 view .LVU52
  80:..//kernel/core/tos_binary_heap.c **** 
  81:..//kernel/core/tos_binary_heap.c ****     hole            = 0u;
ARM GAS  C:\Users\tianx\AppData\Local\Temp\ccZrGPud.s 			page 6


 207              		.loc 1 81 5 view .LVU53
 208              	.LVL22:
  82:..//kernel/core/tos_binary_heap.c ****     rchild          = BIN_HEAP_RCHILD(hole);
 209              		.loc 1 82 5 view .LVU54
  83:..//kernel/core/tos_binary_heap.c ****     lchild          = BIN_HEAP_LSIBLING(rchild);
 210              		.loc 1 83 5 view .LVU55
  84:..//kernel/core/tos_binary_heap.c ****     the_child       = rchild;
 211              		.loc 1 84 5 view .LVU56
  85:..//kernel/core/tos_binary_heap.c ****     cmp             = bin_heap->cmp;
 212              		.loc 1 85 5 view .LVU57
 213              		.loc 1 85 21 is_stmt 0 view .LVU58
 214 0006 D0F80880 		ldr	r8, [r0, #8]
 215              	.LVL23:
  86:..//kernel/core/tos_binary_heap.c ****     item_size       = bin_heap->item_size;
 216              		.loc 1 86 5 is_stmt 1 view .LVU59
 217              		.loc 1 86 21 is_stmt 0 view .LVU60
 218 000a C768     		ldr	r7, [r0, #12]
 219              	.LVL24:
  87:..//kernel/core/tos_binary_heap.c **** 
  88:..//kernel/core/tos_binary_heap.c ****     hole_item       = BIN_HEAP_THE_ITEM(bin_heap, hole);
 220              		.loc 1 88 5 is_stmt 1 view .LVU61
 221              		.loc 1 88 23 is_stmt 0 view .LVU62
 222 000c D0F81490 		ldr	r9, [r0, #20]
 223              	.LVL25:
  89:..//kernel/core/tos_binary_heap.c ****     rchild_item     = BIN_HEAP_THE_ITEM(bin_heap, rchild);
 224              		.loc 1 89 5 is_stmt 1 view .LVU63
 225              		.loc 1 89 21 is_stmt 0 view .LVU64
 226 0010 09EB4701 		add	r1, r9, r7, lsl #1
 227              	.LVL26:
  90:..//kernel/core/tos_binary_heap.c ****     lchild_item     = BIN_HEAP_THE_ITEM(bin_heap, lchild);
 228              		.loc 1 90 5 is_stmt 1 view .LVU65
 229              		.loc 1 90 21 is_stmt 0 view .LVU66
 230 0014 09EB0700 		add	r0, r9, r7
 231              	.LVL27:
  91:..//kernel/core/tos_binary_heap.c **** 
  92:..//kernel/core/tos_binary_heap.c ****     while (the_child < bin_heap->total) {
 232              		.loc 1 92 5 is_stmt 1 view .LVU67
  81:..//kernel/core/tos_binary_heap.c ****     rchild          = BIN_HEAP_RCHILD(hole);
 233              		.loc 1 81 21 is_stmt 0 view .LVU68
 234 0018 4FF0000C 		mov	ip, #0
  84:..//kernel/core/tos_binary_heap.c ****     cmp             = bin_heap->cmp;
 235              		.loc 1 84 21 view .LVU69
 236 001c 0224     		movs	r4, #2
  83:..//kernel/core/tos_binary_heap.c ****     the_child       = rchild;
 237              		.loc 1 83 21 view .LVU70
 238 001e 0126     		movs	r6, #1
 239              		.loc 1 92 11 view .LVU71
 240 0020 17E0     		b	.L9
 241              	.LVL28:
 242              	.L10:
  93:..//kernel/core/tos_binary_heap.c ****         if (cmp(lchild_item, rchild_item)) {
  94:..//kernel/core/tos_binary_heap.c ****             the_child = lchild;
  95:..//kernel/core/tos_binary_heap.c ****         }
  96:..//kernel/core/tos_binary_heap.c ****         the_child_item = BIN_HEAP_THE_ITEM(bin_heap, the_child);
 243              		.loc 1 96 9 is_stmt 1 view .LVU72
 244              		.loc 1 96 26 is_stmt 0 view .LVU73
 245 0022 6B69     		ldr	r3, [r5, #20]
ARM GAS  C:\Users\tianx\AppData\Local\Temp\ccZrGPud.s 			page 7


 246 0024 E968     		ldr	r1, [r5, #12]
 247              	.LVL29:
  97:..//kernel/core/tos_binary_heap.c ****         memcpy(hole_item, the_child_item, item_size);
 248              		.loc 1 97 9 is_stmt 1 view .LVU74
 249 0026 3A46     		mov	r2, r7
 250 0028 01FB0631 		mla	r1, r1, r6, r3
 251              	.LVL30:
 252              		.loc 1 97 9 is_stmt 0 view .LVU75
 253 002c 4846     		mov	r0, r9
 254 002e FFF7FEFF 		bl	memcpy
 255              	.LVL31:
  98:..//kernel/core/tos_binary_heap.c **** 
  99:..//kernel/core/tos_binary_heap.c ****         hole        = the_child;
 256              		.loc 1 99 9 is_stmt 1 view .LVU76
 100:..//kernel/core/tos_binary_heap.c ****         the_child   = BIN_HEAP_RCHILD(the_child);
 257              		.loc 1 100 9 view .LVU77
 258              		.loc 1 100 21 is_stmt 0 view .LVU78
 259 0032 741C     		adds	r4, r6, #1
 260 0034 A4B2     		uxth	r4, r4
 261 0036 6400     		lsls	r4, r4, #1
 262 0038 A4B2     		uxth	r4, r4
 263              	.LVL32:
 101:..//kernel/core/tos_binary_heap.c ****         rchild      = the_child;
 264              		.loc 1 101 9 is_stmt 1 view .LVU79
 102:..//kernel/core/tos_binary_heap.c ****         lchild      = BIN_HEAP_LSIBLING(rchild);
 265              		.loc 1 102 9 view .LVU80
 266              		.loc 1 102 21 is_stmt 0 view .LVU81
 267 003a 631E     		subs	r3, r4, #1
 268 003c 9BB2     		uxth	r3, r3
 269              	.LVL33:
 103:..//kernel/core/tos_binary_heap.c **** 
 104:..//kernel/core/tos_binary_heap.c ****         hole_item   = BIN_HEAP_THE_ITEM(bin_heap, hole);
 270              		.loc 1 104 9 is_stmt 1 view .LVU82
 271              		.loc 1 104 23 is_stmt 0 view .LVU83
 272 003e 6A69     		ldr	r2, [r5, #20]
 273 0040 E868     		ldr	r0, [r5, #12]
 274              		.loc 1 104 21 view .LVU84
 275 0042 00FB0629 		mla	r9, r0, r6, r2
 276              	.LVL34:
 105:..//kernel/core/tos_binary_heap.c ****         rchild_item = BIN_HEAP_THE_ITEM(bin_heap, rchild);
 277              		.loc 1 105 9 is_stmt 1 view .LVU85
 278              		.loc 1 105 21 is_stmt 0 view .LVU86
 279 0046 00FB0421 		mla	r1, r0, r4, r2
 280              	.LVL35:
 106:..//kernel/core/tos_binary_heap.c ****         lchild_item = BIN_HEAP_THE_ITEM(bin_heap, lchild);
 281              		.loc 1 106 9 is_stmt 1 view .LVU87
 282              		.loc 1 106 21 is_stmt 0 view .LVU88
 283 004a 00FB0320 		mla	r0, r0, r3, r2
 284              	.LVL36:
  99:..//kernel/core/tos_binary_heap.c ****         the_child   = BIN_HEAP_RCHILD(the_child);
 285              		.loc 1 99 21 view .LVU89
 286 004e B446     		mov	ip, r6
 102:..//kernel/core/tos_binary_heap.c **** 
 287              		.loc 1 102 21 view .LVU90
 288 0050 1E46     		mov	r6, r3
 289              	.LVL37:
 290              	.L9:
ARM GAS  C:\Users\tianx\AppData\Local\Temp\ccZrGPud.s 			page 8


  92:..//kernel/core/tos_binary_heap.c ****         if (cmp(lchild_item, rchild_item)) {
 291              		.loc 1 92 32 view .LVU91
 292 0052 6B68     		ldr	r3, [r5, #4]
  92:..//kernel/core/tos_binary_heap.c ****         if (cmp(lchild_item, rchild_item)) {
 293              		.loc 1 92 11 view .LVU92
 294 0054 9C42     		cmp	r4, r3
 295 0056 04D2     		bcs	.L14
  93:..//kernel/core/tos_binary_heap.c ****             the_child = lchild;
 296              		.loc 1 93 9 is_stmt 1 view .LVU93
  93:..//kernel/core/tos_binary_heap.c ****             the_child = lchild;
 297              		.loc 1 93 13 is_stmt 0 view .LVU94
 298 0058 C047     		blx	r8
 299              	.LVL38:
  93:..//kernel/core/tos_binary_heap.c ****             the_child = lchild;
 300              		.loc 1 93 12 view .LVU95
 301 005a 0028     		cmp	r0, #0
 302 005c E1D1     		bne	.L10
 303 005e 2646     		mov	r6, r4
 304              	.LVL39:
  93:..//kernel/core/tos_binary_heap.c ****             the_child = lchild;
 305              		.loc 1 93 12 view .LVU96
 306 0060 DFE7     		b	.L10
 307              	.LVL40:
 308              	.L14:
 107:..//kernel/core/tos_binary_heap.c ****     }
 108:..//kernel/core/tos_binary_heap.c **** 
 109:..//kernel/core/tos_binary_heap.c ****     if (the_child == bin_heap->total) {
 309              		.loc 1 109 5 is_stmt 1 view .LVU97
 310              		.loc 1 109 8 is_stmt 0 view .LVU98
 311 0062 0AD0     		beq	.L15
 312              	.LVL41:
 313              	.L12:
 110:..//kernel/core/tos_binary_heap.c ****         memcpy(hole_item, lchild_item, item_size);
 111:..//kernel/core/tos_binary_heap.c ****         hole        = lchild;
 112:..//kernel/core/tos_binary_heap.c ****         hole_item   = BIN_HEAP_THE_ITEM(bin_heap, hole);
 113:..//kernel/core/tos_binary_heap.c ****     }
 114:..//kernel/core/tos_binary_heap.c ****     bin_heap_do_percolate_up(bin_heap, hole, BIN_HEAP_LAST_ITEM(bin_heap));
 314              		.loc 1 114 5 is_stmt 1 view .LVU99
 315              		.loc 1 114 46 is_stmt 0 view .LVU100
 316 0064 6B69     		ldr	r3, [r5, #20]
 317 0066 6A68     		ldr	r2, [r5, #4]
 318 0068 E968     		ldr	r1, [r5, #12]
 319              		.loc 1 114 5 view .LVU101
 320 006a 01FB0232 		mla	r2, r1, r2, r3
 321 006e 6146     		mov	r1, ip
 322 0070 2846     		mov	r0, r5
 323 0072 FFF7FEFF 		bl	bin_heap_do_percolate_up
 324              	.LVL42:
 115:..//kernel/core/tos_binary_heap.c **** }
 325              		.loc 1 115 1 view .LVU102
 326 0076 BDE8F883 		pop	{r3, r4, r5, r6, r7, r8, r9, pc}
 327              	.LVL43:
 328              	.L15:
 110:..//kernel/core/tos_binary_heap.c ****         memcpy(hole_item, lchild_item, item_size);
 329              		.loc 1 110 9 is_stmt 1 view .LVU103
 330 007a 3A46     		mov	r2, r7
 331 007c 0146     		mov	r1, r0
ARM GAS  C:\Users\tianx\AppData\Local\Temp\ccZrGPud.s 			page 9


 332              	.LVL44:
 110:..//kernel/core/tos_binary_heap.c ****         memcpy(hole_item, lchild_item, item_size);
 333              		.loc 1 110 9 is_stmt 0 view .LVU104
 334 007e 4846     		mov	r0, r9
 335              	.LVL45:
 110:..//kernel/core/tos_binary_heap.c ****         memcpy(hole_item, lchild_item, item_size);
 336              		.loc 1 110 9 view .LVU105
 337 0080 FFF7FEFF 		bl	memcpy
 338              	.LVL46:
 111:..//kernel/core/tos_binary_heap.c ****         hole_item   = BIN_HEAP_THE_ITEM(bin_heap, hole);
 339              		.loc 1 111 9 is_stmt 1 view .LVU106
 112:..//kernel/core/tos_binary_heap.c ****     }
 340              		.loc 1 112 9 view .LVU107
 111:..//kernel/core/tos_binary_heap.c ****         hole_item   = BIN_HEAP_THE_ITEM(bin_heap, hole);
 341              		.loc 1 111 21 is_stmt 0 view .LVU108
 342 0084 B446     		mov	ip, r6
 343 0086 EDE7     		b	.L12
 344              		.cfi_endproc
 345              	.LFE116:
 347              		.section	.text.tos_bin_heap_create,"ax",%progbits
 348              		.align	1
 349              		.global	tos_bin_heap_create
 350              		.syntax unified
 351              		.thumb
 352              		.thumb_func
 353              		.fpu softvfp
 355              	tos_bin_heap_create:
 356              	.LVL47:
 357              	.LFB117:
 116:..//kernel/core/tos_binary_heap.c **** 
 117:..//kernel/core/tos_binary_heap.c **** __API__ k_err_t tos_bin_heap_create(k_bin_heap_t *bin_heap, void *pool, size_t item_cnt, size_t ite
 118:..//kernel/core/tos_binary_heap.c **** {
 358              		.loc 1 118 1 is_stmt 1 view -0
 359              		.cfi_startproc
 360              		@ args = 4, pretend = 0, frame = 0
 361              		@ frame_needed = 0, uses_anonymous_args = 0
 362              		@ link register save eliminated.
 363              		.loc 1 118 1 is_stmt 0 view .LVU110
 364 0000 30B4     		push	{r4, r5}
 365              	.LCFI3:
 366              		.cfi_def_cfa_offset 8
 367              		.cfi_offset 4, -8
 368              		.cfi_offset 5, -4
 369 0002 029D     		ldr	r5, [sp, #8]
 119:..//kernel/core/tos_binary_heap.c ****     TOS_PTR_SANITY_CHECK(bin_heap);
 370              		.loc 1 119 5 is_stmt 1 view .LVU111
 371              		.loc 1 119 5 view .LVU112
 372 0004 78B1     		cbz	r0, .L18
 373 0006 0446     		mov	r4, r0
 120:..//kernel/core/tos_binary_heap.c ****     TOS_PTR_SANITY_CHECK(pool);
 374              		.loc 1 120 5 view .LVU113
 375              		.loc 1 120 5 view .LVU114
 376 0008 81B1     		cbz	r1, .L19
 121:..//kernel/core/tos_binary_heap.c ****     TOS_PTR_SANITY_CHECK(cmp);
 377              		.loc 1 121 5 view .LVU115
 378              		.loc 1 121 5 view .LVU116
 379 000a 95B1     		cbz	r5, .L20
ARM GAS  C:\Users\tianx\AppData\Local\Temp\ccZrGPud.s 			page 10


 122:..//kernel/core/tos_binary_heap.c **** 
 123:..//kernel/core/tos_binary_heap.c ****     bin_heap->total     = 0;
 380              		.loc 1 123 5 view .LVU117
 381              		.loc 1 123 25 is_stmt 0 view .LVU118
 382 000c 0020     		movs	r0, #0
 383              	.LVL48:
 384              		.loc 1 123 25 view .LVU119
 385 000e 6060     		str	r0, [r4, #4]
 124:..//kernel/core/tos_binary_heap.c ****     bin_heap->cmp       = cmp;
 386              		.loc 1 124 5 is_stmt 1 view .LVU120
 387              		.loc 1 124 25 is_stmt 0 view .LVU121
 388 0010 A560     		str	r5, [r4, #8]
 125:..//kernel/core/tos_binary_heap.c ****     bin_heap->item_size = item_size;
 389              		.loc 1 125 5 is_stmt 1 view .LVU122
 390              		.loc 1 125 25 is_stmt 0 view .LVU123
 391 0012 E360     		str	r3, [r4, #12]
 126:..//kernel/core/tos_binary_heap.c ****     bin_heap->item_cnt  = item_cnt;
 392              		.loc 1 126 5 is_stmt 1 view .LVU124
 393              		.loc 1 126 25 is_stmt 0 view .LVU125
 394 0014 2261     		str	r2, [r4, #16]
 127:..//kernel/core/tos_binary_heap.c ****     bin_heap->pool      = (uint8_t *)pool;
 395              		.loc 1 127 5 is_stmt 1 view .LVU126
 396              		.loc 1 127 25 is_stmt 0 view .LVU127
 397 0016 6161     		str	r1, [r4, #20]
 128:..//kernel/core/tos_binary_heap.c **** 
 129:..//kernel/core/tos_binary_heap.c ****     TOS_OBJ_INIT(bin_heap, KNL_OBJ_TYPE_BINARY_HEAP);
 398              		.loc 1 129 5 is_stmt 1 view .LVU128
 399              	.LVL49:
 400              	.LBB44:
 401              	.LBI44:
 402              		.file 2 "..//kernel/core/include/tos_sys.h"
   1:..//kernel/core/include/tos_sys.h **** /*----------------------------------------------------------------------------
   2:..//kernel/core/include/tos_sys.h ****  * Tencent is pleased to support the open source community by making TencentOS
   3:..//kernel/core/include/tos_sys.h ****  * available.
   4:..//kernel/core/include/tos_sys.h ****  *
   5:..//kernel/core/include/tos_sys.h ****  * Copyright (C) 2019 THL A29 Limited, a Tencent company. All rights reserved.
   6:..//kernel/core/include/tos_sys.h ****  * If you have downloaded a copy of the TencentOS binary from Tencent, please
   7:..//kernel/core/include/tos_sys.h ****  * note that the TencentOS binary is licensed under the BSD 3-Clause License.
   8:..//kernel/core/include/tos_sys.h ****  *
   9:..//kernel/core/include/tos_sys.h ****  * If you have downloaded a copy of the TencentOS source code from Tencent,
  10:..//kernel/core/include/tos_sys.h ****  * please note that TencentOS source code is licensed under the BSD 3-Clause
  11:..//kernel/core/include/tos_sys.h ****  * License, except for the third-party components listed below which are
  12:..//kernel/core/include/tos_sys.h ****  * subject to different license terms. Your integration of TencentOS into your
  13:..//kernel/core/include/tos_sys.h ****  * own projects may require compliance with the BSD 3-Clause License, as well
  14:..//kernel/core/include/tos_sys.h ****  * as the other licenses applicable to the third-party components included
  15:..//kernel/core/include/tos_sys.h ****  * within TencentOS.
  16:..//kernel/core/include/tos_sys.h ****  *---------------------------------------------------------------------------*/
  17:..//kernel/core/include/tos_sys.h **** 
  18:..//kernel/core/include/tos_sys.h **** #ifndef _TOS_SYS_H_
  19:..//kernel/core/include/tos_sys.h **** #define  _TOS_SYS_H_
  20:..//kernel/core/include/tos_sys.h **** 
  21:..//kernel/core/include/tos_sys.h **** __CDECLS_BEGIN
  22:..//kernel/core/include/tos_sys.h **** 
  23:..//kernel/core/include/tos_sys.h **** #define K_NESTING_LIMIT_IRQ             (k_nesting_t)250u
  24:..//kernel/core/include/tos_sys.h **** #define K_NESTING_LIMIT_SCHED_LOCK      (k_nesting_t)250u
  25:..//kernel/core/include/tos_sys.h **** 
  26:..//kernel/core/include/tos_sys.h **** typedef enum knl_state_en {
ARM GAS  C:\Users\tianx\AppData\Local\Temp\ccZrGPud.s 			page 11


  27:..//kernel/core/include/tos_sys.h ****     KNL_STATE_STOPPED,
  28:..//kernel/core/include/tos_sys.h ****     KNL_STATE_RUNNING,
  29:..//kernel/core/include/tos_sys.h **** } knl_state_t;
  30:..//kernel/core/include/tos_sys.h **** 
  31:..//kernel/core/include/tos_sys.h **** // some kind of magic number, mainly for identifing whether the object is initialized, or whether u
  32:..//kernel/core/include/tos_sys.h **** typedef enum knl_obj_type_en {
  33:..//kernel/core/include/tos_sys.h ****     KNL_OBJ_TYPE_NONE                           = 0x0000,
  34:..//kernel/core/include/tos_sys.h **** 
  35:..//kernel/core/include/tos_sys.h ****     KNL_OBJ_TYPE_BINARY_HEAP                    = 0xDAD0,
  36:..//kernel/core/include/tos_sys.h ****     KNL_OBJ_TYPE_BITMAP                         = 0xDAD1,
  37:..//kernel/core/include/tos_sys.h ****     KNL_OBJ_TYPE_CHAR_FIFO                      = 0xDAD2,
  38:..//kernel/core/include/tos_sys.h ****     KNL_OBJ_TYPE_MMBLK_POOL                     = 0xDAD3,
  39:..//kernel/core/include/tos_sys.h ****     KNL_OBJ_TYPE_MSG_QUEUE                      = 0xDAD4,
  40:..//kernel/core/include/tos_sys.h ****     KNL_OBJ_TYPE_PRIORITY_QUEUE                 = 0xDAD5,
  41:..//kernel/core/include/tos_sys.h ****     KNL_OBJ_TYPE_RING_QUEUE                     = 0xDAD6,
  42:..//kernel/core/include/tos_sys.h ****     KNL_OBJ_TYPE_STOPWATCH                      = 0xDAD7,
  43:..//kernel/core/include/tos_sys.h ****     KNL_OBJ_TYPE_TASK                           = 0xDAD8,
  44:..//kernel/core/include/tos_sys.h ****     KNL_OBJ_TYPE_TIMER                          = 0xDAD9,
  45:..//kernel/core/include/tos_sys.h **** 
  46:..//kernel/core/include/tos_sys.h ****     // ipc object
  47:..//kernel/core/include/tos_sys.h ****     KNL_OBJ_TYPE_BARRIER                        = 0x0BEE,
  48:..//kernel/core/include/tos_sys.h ****     KNL_OBJ_TYPE_COMPLETION                     = 0x1BEE,
  49:..//kernel/core/include/tos_sys.h ****     KNL_OBJ_TYPE_COUNTDOWNLATCH                 = 0x2BEE,
  50:..//kernel/core/include/tos_sys.h ****     KNL_OBJ_TYPE_EVENT                          = 0x3BEE,
  51:..//kernel/core/include/tos_sys.h ****     KNL_OBJ_TYPE_MAIL_QUEUE                     = 0x4BEE,
  52:..//kernel/core/include/tos_sys.h ****     KNL_OBJ_TYPE_MESSAGE_QUEUE                  = 0x5BEE,
  53:..//kernel/core/include/tos_sys.h ****     KNL_OBJ_TYPE_MUTEX                          = 0x6BEE,
  54:..//kernel/core/include/tos_sys.h ****     KNL_OBJ_TYPE_PRIORITY_MAIL_QUEUE            = 0x7BEE,
  55:..//kernel/core/include/tos_sys.h ****     KNL_OBJ_TYPE_PRIORITY_MESSAGE_QUEUE         = 0x8BEE,
  56:..//kernel/core/include/tos_sys.h ****     KNL_OBJ_TYPE_RWLOCK                         = 0x9BEE,
  57:..//kernel/core/include/tos_sys.h ****     KNL_OBJ_TYPE_SEMAPHORE                      = 0xABEE,
  58:..//kernel/core/include/tos_sys.h **** } knl_obj_type_t;
  59:..//kernel/core/include/tos_sys.h **** 
  60:..//kernel/core/include/tos_sys.h **** typedef enum knl_obj_alloc_type_en {
  61:..//kernel/core/include/tos_sys.h ****     KNL_OBJ_ALLOC_TYPE_NONE,
  62:..//kernel/core/include/tos_sys.h ****     KNL_OBJ_ALLOC_TYPE_STATIC,
  63:..//kernel/core/include/tos_sys.h ****     KNL_OBJ_ALLOC_TYPE_DYNAMIC,
  64:..//kernel/core/include/tos_sys.h **** } knl_obj_alloc_type_t;
  65:..//kernel/core/include/tos_sys.h **** 
  66:..//kernel/core/include/tos_sys.h **** typedef struct knl_object_st {
  67:..//kernel/core/include/tos_sys.h ****     knl_obj_alloc_type_t    alloc_type; /* is dynamic allocated(using tos_mmheap) or static memory?
  68:..//kernel/core/include/tos_sys.h **** #if TOS_CFG_OBJECT_VERIFY_EN > 0u
  69:..//kernel/core/include/tos_sys.h ****     knl_obj_type_t          type;
  70:..//kernel/core/include/tos_sys.h **** #endif
  71:..//kernel/core/include/tos_sys.h **** } knl_obj_t;
  72:..//kernel/core/include/tos_sys.h **** 
  73:..//kernel/core/include/tos_sys.h **** /**
  74:..//kernel/core/include/tos_sys.h ****  * @brief Initialize the kernel.
  75:..//kernel/core/include/tos_sys.h ****  * initialize the tos tiny kernel.
  76:..//kernel/core/include/tos_sys.h ****  *
  77:..//kernel/core/include/tos_sys.h ****  * @attention None
  78:..//kernel/core/include/tos_sys.h ****  *
  79:..//kernel/core/include/tos_sys.h ****  * @param   None
  80:..//kernel/core/include/tos_sys.h ****  *
  81:..//kernel/core/include/tos_sys.h ****  * @return  errcode
  82:..//kernel/core/include/tos_sys.h ****  * @retval  Non-#K_ERR_NONE               return failed.
  83:..//kernel/core/include/tos_sys.h ****  * @retval  #K_ERR_NONE                   return successfully.
ARM GAS  C:\Users\tianx\AppData\Local\Temp\ccZrGPud.s 			page 12


  84:..//kernel/core/include/tos_sys.h ****  */
  85:..//kernel/core/include/tos_sys.h **** __API__ k_err_t tos_knl_init(void);
  86:..//kernel/core/include/tos_sys.h **** 
  87:..//kernel/core/include/tos_sys.h **** /**
  88:..//kernel/core/include/tos_sys.h ****  * @brief Start the kernel.
  89:..//kernel/core/include/tos_sys.h ****  * get the kernel start to run, which means start the multitask scheduling.
  90:..//kernel/core/include/tos_sys.h ****  *
  91:..//kernel/core/include/tos_sys.h ****  * @attention None
  92:..//kernel/core/include/tos_sys.h ****  *
  93:..//kernel/core/include/tos_sys.h ****  * @param   None
  94:..//kernel/core/include/tos_sys.h ****  *
  95:..//kernel/core/include/tos_sys.h ****  * @return  errcode
  96:..//kernel/core/include/tos_sys.h ****  * @retval  #K_ERR_KNL_RUNNING            the kernel is already running.
  97:..//kernel/core/include/tos_sys.h ****  * @retval  #K_ERR_NONE                   return successfully.
  98:..//kernel/core/include/tos_sys.h ****  */
  99:..//kernel/core/include/tos_sys.h **** __API__ k_err_t tos_knl_start(void);
 100:..//kernel/core/include/tos_sys.h **** 
 101:..//kernel/core/include/tos_sys.h **** /**
 102:..//kernel/core/include/tos_sys.h ****  * @brief Get the kernel state.
 103:..//kernel/core/include/tos_sys.h ****  * whether the kernel is running.
 104:..//kernel/core/include/tos_sys.h ****  *
 105:..//kernel/core/include/tos_sys.h ****  * @attention None
 106:..//kernel/core/include/tos_sys.h ****  *
 107:..//kernel/core/include/tos_sys.h ****  * @param   None
 108:..//kernel/core/include/tos_sys.h ****  *
 109:..//kernel/core/include/tos_sys.h ****  * @return  whether the kernel is running.
 110:..//kernel/core/include/tos_sys.h ****  * @retval  Non-0                           the kernel is running.
 111:..//kernel/core/include/tos_sys.h ****  * @retval  0                               the kernel is not running.
 112:..//kernel/core/include/tos_sys.h ****  */
 113:..//kernel/core/include/tos_sys.h **** __API__ int     tos_knl_is_running(void);
 114:..//kernel/core/include/tos_sys.h **** 
 115:..//kernel/core/include/tos_sys.h **** /**
 116:..//kernel/core/include/tos_sys.h ****  * @brief Kernel enter the interrupt.
 117:..//kernel/core/include/tos_sys.h ****  * this function should be called in the entrance of a interrupt handler.
 118:..//kernel/core/include/tos_sys.h ****  *
 119:..//kernel/core/include/tos_sys.h ****  * @attention None
 120:..//kernel/core/include/tos_sys.h ****  *
 121:..//kernel/core/include/tos_sys.h ****  * @param   None
 122:..//kernel/core/include/tos_sys.h ****  *
 123:..//kernel/core/include/tos_sys.h ****  * @return  None
 124:..//kernel/core/include/tos_sys.h ****  */
 125:..//kernel/core/include/tos_sys.h **** __API__ void    tos_knl_irq_enter(void);
 126:..//kernel/core/include/tos_sys.h **** 
 127:..//kernel/core/include/tos_sys.h **** /**
 128:..//kernel/core/include/tos_sys.h ****  * @brief Kernel exit the interrupt.
 129:..//kernel/core/include/tos_sys.h ****  * this function should be called in the exit of a interrupt handler.
 130:..//kernel/core/include/tos_sys.h ****  *
 131:..//kernel/core/include/tos_sys.h ****  * @attention None
 132:..//kernel/core/include/tos_sys.h ****  *
 133:..//kernel/core/include/tos_sys.h ****  * @param   None
 134:..//kernel/core/include/tos_sys.h ****  *
 135:..//kernel/core/include/tos_sys.h ****  * @return  None
 136:..//kernel/core/include/tos_sys.h ****  */
 137:..//kernel/core/include/tos_sys.h **** __API__ void    tos_knl_irq_leave(void);
 138:..//kernel/core/include/tos_sys.h **** 
 139:..//kernel/core/include/tos_sys.h **** /**
 140:..//kernel/core/include/tos_sys.h ****  * @brief Lock the scheduler.
ARM GAS  C:\Users\tianx\AppData\Local\Temp\ccZrGPud.s 			page 13


 141:..//kernel/core/include/tos_sys.h ****  * prevent the kernel from performing task schedule.
 142:..//kernel/core/include/tos_sys.h ****  *
 143:..//kernel/core/include/tos_sys.h ****  * @attention None
 144:..//kernel/core/include/tos_sys.h ****  *
 145:..//kernel/core/include/tos_sys.h ****  * @param   None
 146:..//kernel/core/include/tos_sys.h ****  *
 147:..//kernel/core/include/tos_sys.h ****  * @return  errcode
 148:..//kernel/core/include/tos_sys.h ****  * @retval  K_ERR_KNL_NOT_RUNNING         the kernel is not running.
 149:..//kernel/core/include/tos_sys.h ****  * @retval  K_ERR_LOCK_NESTING_OVERFLOW   the schedule lock nesting is overflow.
 150:..//kernel/core/include/tos_sys.h ****  * @retval  K_ERR_NONE                    return successfully.
 151:..//kernel/core/include/tos_sys.h ****  */
 152:..//kernel/core/include/tos_sys.h **** __API__ k_err_t tos_knl_sched_lock(void);
 153:..//kernel/core/include/tos_sys.h **** 
 154:..//kernel/core/include/tos_sys.h **** /**
 155:..//kernel/core/include/tos_sys.h ****  * @brief Unlock the scheduler.
 156:..//kernel/core/include/tos_sys.h ****  * re-enable the task schedule.
 157:..//kernel/core/include/tos_sys.h ****  *
 158:..//kernel/core/include/tos_sys.h ****  * @attention None
 159:..//kernel/core/include/tos_sys.h ****  *
 160:..//kernel/core/include/tos_sys.h ****  * @param   None
 161:..//kernel/core/include/tos_sys.h ****  *
 162:..//kernel/core/include/tos_sys.h ****  * @return  errcode
 163:..//kernel/core/include/tos_sys.h ****  * @retval  K_ERR_KNL_NOT_RUNNING         the kernel is not running.
 164:..//kernel/core/include/tos_sys.h ****  * @retval  K_ERR_SCHED_NOT_LOCKED        the scheduler is not locked.
 165:..//kernel/core/include/tos_sys.h ****  * @retval  K_ERR_NONE                    return successfully.
 166:..//kernel/core/include/tos_sys.h ****  */
 167:..//kernel/core/include/tos_sys.h **** __API__ k_err_t tos_knl_sched_unlock(void);
 168:..//kernel/core/include/tos_sys.h **** 
 169:..//kernel/core/include/tos_sys.h **** #if TOS_CFG_TICKLESS_EN > 0u
 170:..//kernel/core/include/tos_sys.h **** __KNL__ k_tick_t knl_next_expires_get(void);
 171:..//kernel/core/include/tos_sys.h **** #endif
 172:..//kernel/core/include/tos_sys.h **** 
 173:..//kernel/core/include/tos_sys.h **** __KNL__ void    knl_sched(void);
 174:..//kernel/core/include/tos_sys.h **** __KNL__ int     knl_is_sched_locked(void);
 175:..//kernel/core/include/tos_sys.h **** __KNL__ int     knl_is_inirq(void);
 176:..//kernel/core/include/tos_sys.h **** __KNL__ int     knl_is_idle(k_task_t *task);
 177:..//kernel/core/include/tos_sys.h **** __KNL__ int     knl_is_self(k_task_t *task);
 178:..//kernel/core/include/tos_sys.h **** __KNL__ k_err_t knl_idle_init(void);
 179:..//kernel/core/include/tos_sys.h **** 
 180:..//kernel/core/include/tos_sys.h **** #if TOS_CFG_OBJECT_VERIFY_EN > 0u
 181:..//kernel/core/include/tos_sys.h **** 
 182:..//kernel/core/include/tos_sys.h **** __KNL__ __STATIC_INLINE__ int knl_object_verify(knl_obj_t *knl_obj, knl_obj_type_t type)
 183:..//kernel/core/include/tos_sys.h **** {
 184:..//kernel/core/include/tos_sys.h ****     return knl_obj->type == type;
 185:..//kernel/core/include/tos_sys.h **** }
 186:..//kernel/core/include/tos_sys.h **** 
 187:..//kernel/core/include/tos_sys.h **** __KNL__ __STATIC_INLINE__ void knl_object_init(knl_obj_t *knl_obj, knl_obj_type_t type)
 403              		.loc 2 187 32 view .LVU129
 404              	.LBB45:
 188:..//kernel/core/include/tos_sys.h **** {
 189:..//kernel/core/include/tos_sys.h ****     knl_obj->type = type;
 405              		.loc 2 189 5 view .LVU130
 406              		.loc 2 189 19 is_stmt 0 view .LVU131
 407 0018 4DF6D023 		movw	r3, #56016
 408              	.LVL50:
 409              		.loc 2 189 19 view .LVU132
 410 001c 6380     		strh	r3, [r4, #2]	@ movhi
ARM GAS  C:\Users\tianx\AppData\Local\Temp\ccZrGPud.s 			page 14


 411              	.LVL51:
 412              		.loc 2 189 19 view .LVU133
 413              	.LBE45:
 414              	.LBE44:
 130:..//kernel/core/tos_binary_heap.c ****     knl_object_alloc_set_static(&bin_heap->knl_obj);
 415              		.loc 1 130 5 is_stmt 1 view .LVU134
 416              	.LBB46:
 417              	.LBI46:
 190:..//kernel/core/include/tos_sys.h **** }
 191:..//kernel/core/include/tos_sys.h **** 
 192:..//kernel/core/include/tos_sys.h **** __KNL__ __STATIC_INLINE__ void knl_object_deinit(knl_obj_t *knl_obj)
 193:..//kernel/core/include/tos_sys.h **** {
 194:..//kernel/core/include/tos_sys.h ****     knl_obj->type = KNL_OBJ_TYPE_NONE;
 195:..//kernel/core/include/tos_sys.h **** }
 196:..//kernel/core/include/tos_sys.h **** 
 197:..//kernel/core/include/tos_sys.h **** #endif
 198:..//kernel/core/include/tos_sys.h **** 
 199:..//kernel/core/include/tos_sys.h **** __KNL__ __STATIC_INLINE__ void knl_object_alloc_reset(knl_obj_t *knl_obj)
 200:..//kernel/core/include/tos_sys.h **** {
 201:..//kernel/core/include/tos_sys.h ****     knl_obj->alloc_type = KNL_OBJ_ALLOC_TYPE_NONE;
 202:..//kernel/core/include/tos_sys.h **** }
 203:..//kernel/core/include/tos_sys.h **** 
 204:..//kernel/core/include/tos_sys.h **** __KNL__ __STATIC_INLINE__ void knl_object_alloc_set_dynamic(knl_obj_t *knl_obj)
 205:..//kernel/core/include/tos_sys.h **** {
 206:..//kernel/core/include/tos_sys.h ****     knl_obj->alloc_type = KNL_OBJ_ALLOC_TYPE_DYNAMIC;
 207:..//kernel/core/include/tos_sys.h **** }
 208:..//kernel/core/include/tos_sys.h **** 
 209:..//kernel/core/include/tos_sys.h **** __KNL__ __STATIC_INLINE__ void knl_object_alloc_set_static(knl_obj_t *knl_obj)
 418              		.loc 2 209 32 view .LVU135
 419              	.LBB47:
 210:..//kernel/core/include/tos_sys.h **** {
 211:..//kernel/core/include/tos_sys.h ****     knl_obj->alloc_type = KNL_OBJ_ALLOC_TYPE_STATIC;
 420              		.loc 2 211 5 view .LVU136
 421              		.loc 2 211 25 is_stmt 0 view .LVU137
 422 001e 0123     		movs	r3, #1
 423 0020 2370     		strb	r3, [r4]
 424              	.LVL52:
 425              		.loc 2 211 25 view .LVU138
 426              	.LBE47:
 427              	.LBE46:
 131:..//kernel/core/tos_binary_heap.c **** 
 132:..//kernel/core/tos_binary_heap.c ****     return K_ERR_NONE;
 428              		.loc 1 132 5 is_stmt 1 view .LVU139
 429              	.L17:
 133:..//kernel/core/tos_binary_heap.c **** }
 430              		.loc 1 133 1 is_stmt 0 view .LVU140
 431 0022 30BC     		pop	{r4, r5}
 432              	.LCFI4:
 433              		.cfi_remember_state
 434              		.cfi_restore 5
 435              		.cfi_restore 4
 436              		.cfi_def_cfa_offset 0
 437              	.LVL53:
 438              		.loc 1 133 1 view .LVU141
 439 0024 7047     		bx	lr
 440              	.LVL54:
 441              	.L18:
ARM GAS  C:\Users\tianx\AppData\Local\Temp\ccZrGPud.s 			page 15


 442              	.LCFI5:
 443              		.cfi_restore_state
 119:..//kernel/core/tos_binary_heap.c ****     TOS_PTR_SANITY_CHECK(pool);
 444              		.loc 1 119 5 view .LVU142
 445 0026 40F24C40 		movw	r0, #1100
 446              	.LVL55:
 119:..//kernel/core/tos_binary_heap.c ****     TOS_PTR_SANITY_CHECK(pool);
 447              		.loc 1 119 5 view .LVU143
 448 002a FAE7     		b	.L17
 449              	.LVL56:
 450              	.L19:
 120:..//kernel/core/tos_binary_heap.c ****     TOS_PTR_SANITY_CHECK(cmp);
 451              		.loc 1 120 5 view .LVU144
 452 002c 40F24C40 		movw	r0, #1100
 453              	.LVL57:
 120:..//kernel/core/tos_binary_heap.c ****     TOS_PTR_SANITY_CHECK(cmp);
 454              		.loc 1 120 5 view .LVU145
 455 0030 F7E7     		b	.L17
 456              	.LVL58:
 457              	.L20:
 121:..//kernel/core/tos_binary_heap.c **** 
 458              		.loc 1 121 5 view .LVU146
 459 0032 40F24C40 		movw	r0, #1100
 460              	.LVL59:
 121:..//kernel/core/tos_binary_heap.c **** 
 461              		.loc 1 121 5 view .LVU147
 462 0036 F4E7     		b	.L17
 463              		.cfi_endproc
 464              	.LFE117:
 466              		.section	.text.tos_bin_heap_destroy,"ax",%progbits
 467              		.align	1
 468              		.global	tos_bin_heap_destroy
 469              		.syntax unified
 470              		.thumb
 471              		.thumb_func
 472              		.fpu softvfp
 474              	tos_bin_heap_destroy:
 475              	.LVL60:
 476              	.LFB118:
 134:..//kernel/core/tos_binary_heap.c **** 
 135:..//kernel/core/tos_binary_heap.c **** __API__ k_err_t tos_bin_heap_destroy(k_bin_heap_t *bin_heap)
 136:..//kernel/core/tos_binary_heap.c **** {
 477              		.loc 1 136 1 is_stmt 1 view -0
 478              		.cfi_startproc
 479              		@ args = 0, pretend = 0, frame = 0
 480              		@ frame_needed = 0, uses_anonymous_args = 0
 481              		@ link register save eliminated.
 137:..//kernel/core/tos_binary_heap.c ****     TOS_PTR_SANITY_CHECK(bin_heap);
 482              		.loc 1 137 5 view .LVU149
 483              		.loc 1 137 5 view .LVU150
 484 0000 0346     		mov	r3, r0
 485 0002 80B1     		cbz	r0, .L24
 138:..//kernel/core/tos_binary_heap.c ****     TOS_OBJ_VERIFY(bin_heap, KNL_OBJ_TYPE_BINARY_HEAP);
 486              		.loc 1 138 5 view .LVU151
 487              		.loc 1 138 5 view .LVU152
 488              	.LVL61:
 489              	.LBB48:
ARM GAS  C:\Users\tianx\AppData\Local\Temp\ccZrGPud.s 			page 16


 490              	.LBI48:
 182:..//kernel/core/include/tos_sys.h **** {
 491              		.loc 2 182 31 view .LVU153
 492              	.LBB49:
 184:..//kernel/core/include/tos_sys.h **** }
 493              		.loc 2 184 5 view .LVU154
 184:..//kernel/core/include/tos_sys.h **** }
 494              		.loc 2 184 19 is_stmt 0 view .LVU155
 495 0004 4188     		ldrh	r1, [r0, #2]
 496              	.LVL62:
 184:..//kernel/core/include/tos_sys.h **** }
 497              		.loc 2 184 19 view .LVU156
 498              	.LBE49:
 499              	.LBE48:
 500              		.loc 1 138 5 view .LVU157
 501 0006 4DF6D022 		movw	r2, #56016
 502 000a 9142     		cmp	r1, r2
 503 000c 0ED1     		bne	.L25
 139:..//kernel/core/tos_binary_heap.c **** 
 140:..//kernel/core/tos_binary_heap.c ****     if (!knl_object_alloc_is_static(&bin_heap->knl_obj)) {
 504              		.loc 1 140 5 is_stmt 1 view .LVU158
 505              	.LVL63:
 506              	.LBB50:
 507              	.LBI50:
 212:..//kernel/core/include/tos_sys.h **** }
 213:..//kernel/core/include/tos_sys.h **** 
 214:..//kernel/core/include/tos_sys.h **** __KNL__ __STATIC_INLINE__ int knl_object_alloc_is_dynamic(knl_obj_t *knl_obj)
 215:..//kernel/core/include/tos_sys.h **** {
 216:..//kernel/core/include/tos_sys.h ****     return knl_obj->alloc_type == KNL_OBJ_ALLOC_TYPE_DYNAMIC;
 217:..//kernel/core/include/tos_sys.h **** }
 218:..//kernel/core/include/tos_sys.h **** 
 219:..//kernel/core/include/tos_sys.h **** __KNL__ __STATIC_INLINE__ int knl_object_alloc_is_static(knl_obj_t *knl_obj)
 508              		.loc 2 219 31 view .LVU159
 509              	.LBB51:
 220:..//kernel/core/include/tos_sys.h **** {
 221:..//kernel/core/include/tos_sys.h ****     return knl_obj->alloc_type == KNL_OBJ_ALLOC_TYPE_STATIC;
 510              		.loc 2 221 5 view .LVU160
 511              		.loc 2 221 19 is_stmt 0 view .LVU161
 512 000e 0278     		ldrb	r2, [r0]	@ zero_extendqisi2
 513              	.LVL64:
 514              		.loc 2 221 19 view .LVU162
 515              	.LBE51:
 516              	.LBE50:
 517              		.loc 1 140 8 view .LVU163
 518 0010 012A     		cmp	r2, #1
 519 0012 0ED1     		bne	.L26
 141:..//kernel/core/tos_binary_heap.c ****         return K_ERR_OBJ_INVALID_ALLOC_TYPE;
 142:..//kernel/core/tos_binary_heap.c ****     }
 143:..//kernel/core/tos_binary_heap.c **** 
 144:..//kernel/core/tos_binary_heap.c ****     bin_heap->total     = 0;
 520              		.loc 1 144 5 is_stmt 1 view .LVU164
 521              		.loc 1 144 25 is_stmt 0 view .LVU165
 522 0014 0020     		movs	r0, #0
 523              	.LVL65:
 524              		.loc 1 144 25 view .LVU166
 525 0016 5860     		str	r0, [r3, #4]
 145:..//kernel/core/tos_binary_heap.c ****     bin_heap->cmp       = K_NULL;
ARM GAS  C:\Users\tianx\AppData\Local\Temp\ccZrGPud.s 			page 17


 526              		.loc 1 145 5 is_stmt 1 view .LVU167
 527              		.loc 1 145 25 is_stmt 0 view .LVU168
 528 0018 9860     		str	r0, [r3, #8]
 146:..//kernel/core/tos_binary_heap.c ****     bin_heap->item_size = 0;
 529              		.loc 1 146 5 is_stmt 1 view .LVU169
 530              		.loc 1 146 25 is_stmt 0 view .LVU170
 531 001a D860     		str	r0, [r3, #12]
 147:..//kernel/core/tos_binary_heap.c ****     bin_heap->item_cnt  = 0;
 532              		.loc 1 147 5 is_stmt 1 view .LVU171
 533              		.loc 1 147 25 is_stmt 0 view .LVU172
 534 001c 1861     		str	r0, [r3, #16]
 148:..//kernel/core/tos_binary_heap.c ****     bin_heap->pool      = K_NULL;
 535              		.loc 1 148 5 is_stmt 1 view .LVU173
 536              		.loc 1 148 25 is_stmt 0 view .LVU174
 537 001e 5861     		str	r0, [r3, #20]
 149:..//kernel/core/tos_binary_heap.c **** 
 150:..//kernel/core/tos_binary_heap.c ****     TOS_OBJ_DEINIT(bin_heap);
 538              		.loc 1 150 5 is_stmt 1 view .LVU175
 539              	.LVL66:
 540              	.LBB52:
 541              	.LBI52:
 192:..//kernel/core/include/tos_sys.h **** {
 542              		.loc 2 192 32 view .LVU176
 543              	.LBB53:
 194:..//kernel/core/include/tos_sys.h **** }
 544              		.loc 2 194 5 view .LVU177
 194:..//kernel/core/include/tos_sys.h **** }
 545              		.loc 2 194 19 is_stmt 0 view .LVU178
 546 0020 5880     		strh	r0, [r3, #2]	@ movhi
 547              	.LVL67:
 194:..//kernel/core/include/tos_sys.h **** }
 548              		.loc 2 194 19 view .LVU179
 549              	.LBE53:
 550              	.LBE52:
 151:..//kernel/core/tos_binary_heap.c ****     knl_object_alloc_reset(&bin_heap->knl_obj);
 551              		.loc 1 151 5 is_stmt 1 view .LVU180
 552              	.LBB54:
 553              	.LBI54:
 199:..//kernel/core/include/tos_sys.h **** {
 554              		.loc 2 199 32 view .LVU181
 555              	.LBB55:
 201:..//kernel/core/include/tos_sys.h **** }
 556              		.loc 2 201 5 view .LVU182
 201:..//kernel/core/include/tos_sys.h **** }
 557              		.loc 2 201 25 is_stmt 0 view .LVU183
 558 0022 1870     		strb	r0, [r3]
 559              	.LVL68:
 201:..//kernel/core/include/tos_sys.h **** }
 560              		.loc 2 201 25 view .LVU184
 561              	.LBE55:
 562              	.LBE54:
 152:..//kernel/core/tos_binary_heap.c **** 
 153:..//kernel/core/tos_binary_heap.c ****     return K_ERR_NONE;
 563              		.loc 1 153 5 is_stmt 1 view .LVU185
 564              		.loc 1 153 12 is_stmt 0 view .LVU186
 565 0024 7047     		bx	lr
 566              	.LVL69:
ARM GAS  C:\Users\tianx\AppData\Local\Temp\ccZrGPud.s 			page 18


 567              	.L24:
 137:..//kernel/core/tos_binary_heap.c ****     TOS_OBJ_VERIFY(bin_heap, KNL_OBJ_TYPE_BINARY_HEAP);
 568              		.loc 1 137 5 view .LVU187
 569 0026 40F24C40 		movw	r0, #1100
 570              	.LVL70:
 137:..//kernel/core/tos_binary_heap.c ****     TOS_OBJ_VERIFY(bin_heap, KNL_OBJ_TYPE_BINARY_HEAP);
 571              		.loc 1 137 5 view .LVU188
 572 002a 7047     		bx	lr
 573              	.LVL71:
 574              	.L25:
 138:..//kernel/core/tos_binary_heap.c **** 
 575              		.loc 1 138 5 view .LVU189
 576 002c 40F24D40 		movw	r0, #1101
 577              	.LVL72:
 138:..//kernel/core/tos_binary_heap.c **** 
 578              		.loc 1 138 5 view .LVU190
 579 0030 7047     		bx	lr
 580              	.LVL73:
 581              	.L26:
 141:..//kernel/core/tos_binary_heap.c ****     }
 582              		.loc 1 141 16 view .LVU191
 583 0032 40F24E40 		movw	r0, #1102
 584              	.LVL74:
 154:..//kernel/core/tos_binary_heap.c **** }
 585              		.loc 1 154 1 view .LVU192
 586 0036 7047     		bx	lr
 587              		.cfi_endproc
 588              	.LFE118:
 590              		.section	.text.tos_bin_heap_create_dyn,"ax",%progbits
 591              		.align	1
 592              		.global	tos_bin_heap_create_dyn
 593              		.syntax unified
 594              		.thumb
 595              		.thumb_func
 596              		.fpu softvfp
 598              	tos_bin_heap_create_dyn:
 599              	.LVL75:
 600              	.LFB119:
 155:..//kernel/core/tos_binary_heap.c **** 
 156:..//kernel/core/tos_binary_heap.c **** __API__ k_err_t tos_bin_heap_create_dyn(k_bin_heap_t *bin_heap, size_t item_cnt, size_t item_size, 
 157:..//kernel/core/tos_binary_heap.c **** {
 601              		.loc 1 157 1 is_stmt 1 view -0
 602              		.cfi_startproc
 603              		@ args = 0, pretend = 0, frame = 0
 604              		@ frame_needed = 0, uses_anonymous_args = 0
 158:..//kernel/core/tos_binary_heap.c ****     void *pool;
 605              		.loc 1 158 5 view .LVU194
 159:..//kernel/core/tos_binary_heap.c **** 
 160:..//kernel/core/tos_binary_heap.c ****     TOS_PTR_SANITY_CHECK(bin_heap);
 606              		.loc 1 160 5 view .LVU195
 607              		.loc 1 160 5 view .LVU196
 608 0000 B8B1     		cbz	r0, .L29
 157:..//kernel/core/tos_binary_heap.c ****     void *pool;
 609              		.loc 1 157 1 is_stmt 0 view .LVU197
 610 0002 F8B5     		push	{r3, r4, r5, r6, r7, lr}
 611              	.LCFI6:
 612              		.cfi_def_cfa_offset 24
ARM GAS  C:\Users\tianx\AppData\Local\Temp\ccZrGPud.s 			page 19


 613              		.cfi_offset 3, -24
 614              		.cfi_offset 4, -20
 615              		.cfi_offset 5, -16
 616              		.cfi_offset 6, -12
 617              		.cfi_offset 7, -8
 618              		.cfi_offset 14, -4
 619 0004 0446     		mov	r4, r0
 161:..//kernel/core/tos_binary_heap.c ****     TOS_PTR_SANITY_CHECK(cmp);
 620              		.loc 1 161 5 is_stmt 1 view .LVU198
 621              		.loc 1 161 5 view .LVU199
 622 0006 BBB1     		cbz	r3, .L30
 623 0008 1D46     		mov	r5, r3
 624 000a 1746     		mov	r7, r2
 625 000c 0E46     		mov	r6, r1
 162:..//kernel/core/tos_binary_heap.c **** 
 163:..//kernel/core/tos_binary_heap.c ****     pool = tos_mmheap_alloc(item_cnt * item_size);
 626              		.loc 1 163 5 view .LVU200
 627              		.loc 1 163 12 is_stmt 0 view .LVU201
 628 000e 02FB01F0 		mul	r0, r2, r1
 629              	.LVL76:
 630              		.loc 1 163 12 view .LVU202
 631 0012 FFF7FEFF 		bl	tos_mmheap_alloc
 632              	.LVL77:
 164:..//kernel/core/tos_binary_heap.c ****     if (!pool) {
 633              		.loc 1 164 5 is_stmt 1 view .LVU203
 634              		.loc 1 164 8 is_stmt 0 view .LVU204
 635 0016 0346     		mov	r3, r0
 636 0018 88B1     		cbz	r0, .L31
 165:..//kernel/core/tos_binary_heap.c ****         return K_ERR_OUT_OF_MEMORY;
 166:..//kernel/core/tos_binary_heap.c ****     }
 167:..//kernel/core/tos_binary_heap.c **** 
 168:..//kernel/core/tos_binary_heap.c ****     bin_heap->total     = 0;
 637              		.loc 1 168 5 is_stmt 1 view .LVU205
 638              		.loc 1 168 25 is_stmt 0 view .LVU206
 639 001a 0020     		movs	r0, #0
 640              	.LVL78:
 641              		.loc 1 168 25 view .LVU207
 642 001c 6060     		str	r0, [r4, #4]
 169:..//kernel/core/tos_binary_heap.c ****     bin_heap->cmp       = cmp;
 643              		.loc 1 169 5 is_stmt 1 view .LVU208
 644              		.loc 1 169 25 is_stmt 0 view .LVU209
 645 001e A560     		str	r5, [r4, #8]
 170:..//kernel/core/tos_binary_heap.c ****     bin_heap->item_size = item_size;
 646              		.loc 1 170 5 is_stmt 1 view .LVU210
 647              		.loc 1 170 25 is_stmt 0 view .LVU211
 648 0020 E760     		str	r7, [r4, #12]
 171:..//kernel/core/tos_binary_heap.c ****     bin_heap->item_cnt  = item_cnt;
 649              		.loc 1 171 5 is_stmt 1 view .LVU212
 650              		.loc 1 171 25 is_stmt 0 view .LVU213
 651 0022 2661     		str	r6, [r4, #16]
 172:..//kernel/core/tos_binary_heap.c ****     bin_heap->pool      = (uint8_t *)pool;
 652              		.loc 1 172 5 is_stmt 1 view .LVU214
 653              		.loc 1 172 25 is_stmt 0 view .LVU215
 654 0024 6361     		str	r3, [r4, #20]
 173:..//kernel/core/tos_binary_heap.c **** 
 174:..//kernel/core/tos_binary_heap.c ****     TOS_OBJ_INIT(bin_heap, KNL_OBJ_TYPE_BINARY_HEAP);
 655              		.loc 1 174 5 is_stmt 1 view .LVU216
ARM GAS  C:\Users\tianx\AppData\Local\Temp\ccZrGPud.s 			page 20


 656              	.LVL79:
 657              	.LBB56:
 658              	.LBI56:
 187:..//kernel/core/include/tos_sys.h **** {
 659              		.loc 2 187 32 view .LVU217
 660              	.LBB57:
 189:..//kernel/core/include/tos_sys.h **** }
 661              		.loc 2 189 5 view .LVU218
 189:..//kernel/core/include/tos_sys.h **** }
 662              		.loc 2 189 19 is_stmt 0 view .LVU219
 663 0026 4DF6D023 		movw	r3, #56016
 664              	.LVL80:
 189:..//kernel/core/include/tos_sys.h **** }
 665              		.loc 2 189 19 view .LVU220
 666 002a 6380     		strh	r3, [r4, #2]	@ movhi
 667              	.LVL81:
 189:..//kernel/core/include/tos_sys.h **** }
 668              		.loc 2 189 19 view .LVU221
 669              	.LBE57:
 670              	.LBE56:
 175:..//kernel/core/tos_binary_heap.c ****     knl_object_alloc_set_dynamic(&bin_heap->knl_obj);
 671              		.loc 1 175 5 is_stmt 1 view .LVU222
 672              	.LBB58:
 673              	.LBI58:
 204:..//kernel/core/include/tos_sys.h **** {
 674              		.loc 2 204 32 view .LVU223
 675              	.LBB59:
 206:..//kernel/core/include/tos_sys.h **** }
 676              		.loc 2 206 5 view .LVU224
 206:..//kernel/core/include/tos_sys.h **** }
 677              		.loc 2 206 25 is_stmt 0 view .LVU225
 678 002c 0223     		movs	r3, #2
 679 002e 2370     		strb	r3, [r4]
 680              	.LVL82:
 206:..//kernel/core/include/tos_sys.h **** }
 681              		.loc 2 206 25 view .LVU226
 682              	.LBE59:
 683              	.LBE58:
 176:..//kernel/core/tos_binary_heap.c **** 
 177:..//kernel/core/tos_binary_heap.c ****     return K_ERR_NONE;
 684              		.loc 1 177 5 is_stmt 1 view .LVU227
 685              	.L28:
 178:..//kernel/core/tos_binary_heap.c **** }
 686              		.loc 1 178 1 is_stmt 0 view .LVU228
 687 0030 F8BD     		pop	{r3, r4, r5, r6, r7, pc}
 688              	.LVL83:
 689              	.L29:
 690              	.LCFI7:
 691              		.cfi_def_cfa_offset 0
 692              		.cfi_restore 3
 693              		.cfi_restore 4
 694              		.cfi_restore 5
 695              		.cfi_restore 6
 696              		.cfi_restore 7
 697              		.cfi_restore 14
 160:..//kernel/core/tos_binary_heap.c ****     TOS_PTR_SANITY_CHECK(cmp);
 698              		.loc 1 160 5 view .LVU229
ARM GAS  C:\Users\tianx\AppData\Local\Temp\ccZrGPud.s 			page 21


 699 0032 40F24C40 		movw	r0, #1100
 700              	.LVL84:
 701              		.loc 1 178 1 view .LVU230
 702 0036 7047     		bx	lr
 703              	.LVL85:
 704              	.L30:
 705              	.LCFI8:
 706              		.cfi_def_cfa_offset 24
 707              		.cfi_offset 3, -24
 708              		.cfi_offset 4, -20
 709              		.cfi_offset 5, -16
 710              		.cfi_offset 6, -12
 711              		.cfi_offset 7, -8
 712              		.cfi_offset 14, -4
 161:..//kernel/core/tos_binary_heap.c **** 
 713              		.loc 1 161 5 view .LVU231
 714 0038 40F24C40 		movw	r0, #1100
 715              	.LVL86:
 161:..//kernel/core/tos_binary_heap.c **** 
 716              		.loc 1 161 5 view .LVU232
 717 003c F8E7     		b	.L28
 718              	.LVL87:
 719              	.L31:
 165:..//kernel/core/tos_binary_heap.c ****     }
 720              		.loc 1 165 16 view .LVU233
 721 003e 40F27E40 		movw	r0, #1150
 722              	.LVL88:
 165:..//kernel/core/tos_binary_heap.c ****     }
 723              		.loc 1 165 16 view .LVU234
 724 0042 F5E7     		b	.L28
 725              		.cfi_endproc
 726              	.LFE119:
 728              		.section	.text.tos_bin_heap_destroy_dyn,"ax",%progbits
 729              		.align	1
 730              		.global	tos_bin_heap_destroy_dyn
 731              		.syntax unified
 732              		.thumb
 733              		.thumb_func
 734              		.fpu softvfp
 736              	tos_bin_heap_destroy_dyn:
 737              	.LVL89:
 738              	.LFB120:
 179:..//kernel/core/tos_binary_heap.c **** 
 180:..//kernel/core/tos_binary_heap.c **** __API__ k_err_t tos_bin_heap_destroy_dyn(k_bin_heap_t *bin_heap)
 181:..//kernel/core/tos_binary_heap.c **** {
 739              		.loc 1 181 1 is_stmt 1 view -0
 740              		.cfi_startproc
 741              		@ args = 0, pretend = 0, frame = 0
 742              		@ frame_needed = 0, uses_anonymous_args = 0
 182:..//kernel/core/tos_binary_heap.c ****     TOS_PTR_SANITY_CHECK(bin_heap);
 743              		.loc 1 182 5 view .LVU236
 744              		.loc 1 182 5 view .LVU237
 745 0000 C0B1     		cbz	r0, .L38
 181:..//kernel/core/tos_binary_heap.c ****     TOS_PTR_SANITY_CHECK(bin_heap);
 746              		.loc 1 181 1 is_stmt 0 view .LVU238
 747 0002 10B5     		push	{r4, lr}
 748              	.LCFI9:
ARM GAS  C:\Users\tianx\AppData\Local\Temp\ccZrGPud.s 			page 22


 749              		.cfi_def_cfa_offset 8
 750              		.cfi_offset 4, -8
 751              		.cfi_offset 14, -4
 752 0004 0446     		mov	r4, r0
 183:..//kernel/core/tos_binary_heap.c ****     TOS_OBJ_VERIFY(bin_heap, KNL_OBJ_TYPE_BINARY_HEAP);
 753              		.loc 1 183 5 is_stmt 1 view .LVU239
 754              		.loc 1 183 5 view .LVU240
 755              	.LVL90:
 756              	.LBB60:
 757              	.LBI60:
 182:..//kernel/core/include/tos_sys.h **** {
 758              		.loc 2 182 31 view .LVU241
 759              	.LBB61:
 184:..//kernel/core/include/tos_sys.h **** }
 760              		.loc 2 184 5 view .LVU242
 184:..//kernel/core/include/tos_sys.h **** }
 761              		.loc 2 184 19 is_stmt 0 view .LVU243
 762 0006 4188     		ldrh	r1, [r0, #2]
 763              	.LVL91:
 184:..//kernel/core/include/tos_sys.h **** }
 764              		.loc 2 184 19 view .LVU244
 765              	.LBE61:
 766              	.LBE60:
 767              		.loc 1 183 5 view .LVU245
 768 0008 4DF6D022 		movw	r2, #56016
 769 000c 9142     		cmp	r1, r2
 770 000e 14D1     		bne	.L39
 184:..//kernel/core/tos_binary_heap.c **** 
 185:..//kernel/core/tos_binary_heap.c ****     if (!knl_object_alloc_is_dynamic(&bin_heap->knl_obj)) {
 771              		.loc 1 185 5 is_stmt 1 view .LVU246
 772              	.LVL92:
 773              	.LBB62:
 774              	.LBI62:
 214:..//kernel/core/include/tos_sys.h **** {
 775              		.loc 2 214 31 view .LVU247
 776              	.LBB63:
 216:..//kernel/core/include/tos_sys.h **** }
 777              		.loc 2 216 5 view .LVU248
 216:..//kernel/core/include/tos_sys.h **** }
 778              		.loc 2 216 19 is_stmt 0 view .LVU249
 779 0010 0278     		ldrb	r2, [r0]	@ zero_extendqisi2
 780              	.LVL93:
 216:..//kernel/core/include/tos_sys.h **** }
 781              		.loc 2 216 19 view .LVU250
 782              	.LBE63:
 783              	.LBE62:
 784              		.loc 1 185 8 view .LVU251
 785 0012 022A     		cmp	r2, #2
 786 0014 02D0     		beq	.L45
 186:..//kernel/core/tos_binary_heap.c ****         return K_ERR_OBJ_INVALID_ALLOC_TYPE;
 787              		.loc 1 186 16 view .LVU252
 788 0016 40F24E40 		movw	r0, #1102
 789              	.LVL94:
 790              		.loc 1 186 16 view .LVU253
 791 001a 10E0     		b	.L37
 792              	.LVL95:
 793              	.L45:
ARM GAS  C:\Users\tianx\AppData\Local\Temp\ccZrGPud.s 			page 23


 187:..//kernel/core/tos_binary_heap.c ****     }
 188:..//kernel/core/tos_binary_heap.c **** 
 189:..//kernel/core/tos_binary_heap.c ****     tos_mmheap_free(bin_heap->pool);
 794              		.loc 1 189 5 is_stmt 1 view .LVU254
 795 001c 4069     		ldr	r0, [r0, #20]
 796              	.LVL96:
 797              		.loc 1 189 5 is_stmt 0 view .LVU255
 798 001e FFF7FEFF 		bl	tos_mmheap_free
 799              	.LVL97:
 190:..//kernel/core/tos_binary_heap.c **** 
 191:..//kernel/core/tos_binary_heap.c ****     bin_heap->total     = 0;
 800              		.loc 1 191 5 is_stmt 1 view .LVU256
 801              		.loc 1 191 25 is_stmt 0 view .LVU257
 802 0022 0020     		movs	r0, #0
 803 0024 6060     		str	r0, [r4, #4]
 192:..//kernel/core/tos_binary_heap.c ****     bin_heap->cmp       = K_NULL;
 804              		.loc 1 192 5 is_stmt 1 view .LVU258
 805              		.loc 1 192 25 is_stmt 0 view .LVU259
 806 0026 A060     		str	r0, [r4, #8]
 193:..//kernel/core/tos_binary_heap.c ****     bin_heap->item_size = 0;
 807              		.loc 1 193 5 is_stmt 1 view .LVU260
 808              		.loc 1 193 25 is_stmt 0 view .LVU261
 809 0028 E060     		str	r0, [r4, #12]
 194:..//kernel/core/tos_binary_heap.c ****     bin_heap->item_cnt  = 0;
 810              		.loc 1 194 5 is_stmt 1 view .LVU262
 811              		.loc 1 194 25 is_stmt 0 view .LVU263
 812 002a 2061     		str	r0, [r4, #16]
 195:..//kernel/core/tos_binary_heap.c ****     bin_heap->pool      = K_NULL;
 813              		.loc 1 195 5 is_stmt 1 view .LVU264
 814              		.loc 1 195 25 is_stmt 0 view .LVU265
 815 002c 6061     		str	r0, [r4, #20]
 196:..//kernel/core/tos_binary_heap.c **** 
 197:..//kernel/core/tos_binary_heap.c ****     TOS_OBJ_DEINIT(bin_heap);
 816              		.loc 1 197 5 is_stmt 1 view .LVU266
 817              	.LVL98:
 818              	.LBB64:
 819              	.LBI64:
 192:..//kernel/core/include/tos_sys.h **** {
 820              		.loc 2 192 32 view .LVU267
 821              	.LBB65:
 194:..//kernel/core/include/tos_sys.h **** }
 822              		.loc 2 194 5 view .LVU268
 194:..//kernel/core/include/tos_sys.h **** }
 823              		.loc 2 194 19 is_stmt 0 view .LVU269
 824 002e 6080     		strh	r0, [r4, #2]	@ movhi
 825              	.LVL99:
 194:..//kernel/core/include/tos_sys.h **** }
 826              		.loc 2 194 19 view .LVU270
 827              	.LBE65:
 828              	.LBE64:
 198:..//kernel/core/tos_binary_heap.c ****     knl_object_alloc_reset(&bin_heap->knl_obj);
 829              		.loc 1 198 5 is_stmt 1 view .LVU271
 830              	.LBB66:
 831              	.LBI66:
 199:..//kernel/core/include/tos_sys.h **** {
 832              		.loc 2 199 32 view .LVU272
 833              	.LBB67:
ARM GAS  C:\Users\tianx\AppData\Local\Temp\ccZrGPud.s 			page 24


 201:..//kernel/core/include/tos_sys.h **** }
 834              		.loc 2 201 5 view .LVU273
 201:..//kernel/core/include/tos_sys.h **** }
 835              		.loc 2 201 25 is_stmt 0 view .LVU274
 836 0030 2070     		strb	r0, [r4]
 837              	.LVL100:
 201:..//kernel/core/include/tos_sys.h **** }
 838              		.loc 2 201 25 view .LVU275
 839              	.LBE67:
 840              	.LBE66:
 199:..//kernel/core/tos_binary_heap.c **** 
 200:..//kernel/core/tos_binary_heap.c ****     return K_ERR_NONE;
 841              		.loc 1 200 5 is_stmt 1 view .LVU276
 842              		.loc 1 200 12 is_stmt 0 view .LVU277
 843 0032 04E0     		b	.L37
 844              	.LVL101:
 845              	.L38:
 846              	.LCFI10:
 847              		.cfi_def_cfa_offset 0
 848              		.cfi_restore 4
 849              		.cfi_restore 14
 182:..//kernel/core/tos_binary_heap.c ****     TOS_OBJ_VERIFY(bin_heap, KNL_OBJ_TYPE_BINARY_HEAP);
 850              		.loc 1 182 5 view .LVU278
 851 0034 40F24C40 		movw	r0, #1100
 852              	.LVL102:
 201:..//kernel/core/tos_binary_heap.c **** }
 853              		.loc 1 201 1 view .LVU279
 854 0038 7047     		bx	lr
 855              	.LVL103:
 856              	.L39:
 857              	.LCFI11:
 858              		.cfi_def_cfa_offset 8
 859              		.cfi_offset 4, -8
 860              		.cfi_offset 14, -4
 183:..//kernel/core/tos_binary_heap.c **** 
 861              		.loc 1 183 5 view .LVU280
 862 003a 40F24D40 		movw	r0, #1101
 863              	.LVL104:
 864              	.L37:
 865              		.loc 1 201 1 view .LVU281
 866 003e 10BD     		pop	{r4, pc}
 867              		.loc 1 201 1 view .LVU282
 868              		.cfi_endproc
 869              	.LFE120:
 871              		.section	.text.tos_bin_heap_flush,"ax",%progbits
 872              		.align	1
 873              		.global	tos_bin_heap_flush
 874              		.syntax unified
 875              		.thumb
 876              		.thumb_func
 877              		.fpu softvfp
 879              	tos_bin_heap_flush:
 880              	.LVL105:
 881              	.LFB123:
 202:..//kernel/core/tos_binary_heap.c **** 
 203:..//kernel/core/tos_binary_heap.c **** __API__ k_err_t tos_bin_heap_push(k_bin_heap_t *bin_heap, void *item, size_t item_size)
 204:..//kernel/core/tos_binary_heap.c **** {
ARM GAS  C:\Users\tianx\AppData\Local\Temp\ccZrGPud.s 			page 25


 205:..//kernel/core/tos_binary_heap.c ****     TOS_CPU_CPSR_ALLOC();
 206:..//kernel/core/tos_binary_heap.c **** 
 207:..//kernel/core/tos_binary_heap.c ****     TOS_PTR_SANITY_CHECK(bin_heap);
 208:..//kernel/core/tos_binary_heap.c ****     TOS_PTR_SANITY_CHECK(item);
 209:..//kernel/core/tos_binary_heap.c ****     TOS_OBJ_VERIFY(bin_heap, KNL_OBJ_TYPE_BINARY_HEAP);
 210:..//kernel/core/tos_binary_heap.c **** 
 211:..//kernel/core/tos_binary_heap.c ****     if (item_size != bin_heap->item_size) {
 212:..//kernel/core/tos_binary_heap.c ****         return K_ERR_BIN_HEAP_ITEM_SIZE_NOT_MATCH;
 213:..//kernel/core/tos_binary_heap.c ****     }
 214:..//kernel/core/tos_binary_heap.c **** 
 215:..//kernel/core/tos_binary_heap.c ****     if (tos_bin_heap_is_full(bin_heap)) {
 216:..//kernel/core/tos_binary_heap.c ****         return K_ERR_BIN_HEAP_FULL;
 217:..//kernel/core/tos_binary_heap.c ****     }
 218:..//kernel/core/tos_binary_heap.c **** 
 219:..//kernel/core/tos_binary_heap.c ****     TOS_CPU_INT_DISABLE();
 220:..//kernel/core/tos_binary_heap.c **** 
 221:..//kernel/core/tos_binary_heap.c ****     bin_heap_item_copy_from(bin_heap, item);
 222:..//kernel/core/tos_binary_heap.c ****     bin_heap_percolate_up(bin_heap, item);
 223:..//kernel/core/tos_binary_heap.c ****     bin_heap_item_increase(bin_heap);
 224:..//kernel/core/tos_binary_heap.c **** 
 225:..//kernel/core/tos_binary_heap.c ****     TOS_CPU_INT_ENABLE();
 226:..//kernel/core/tos_binary_heap.c ****     return K_ERR_NONE;
 227:..//kernel/core/tos_binary_heap.c **** }
 228:..//kernel/core/tos_binary_heap.c **** 
 229:..//kernel/core/tos_binary_heap.c **** __API__ k_err_t tos_bin_heap_pop(k_bin_heap_t *bin_heap, void *item, size_t *item_size)
 230:..//kernel/core/tos_binary_heap.c **** {
 231:..//kernel/core/tos_binary_heap.c ****     TOS_CPU_CPSR_ALLOC();
 232:..//kernel/core/tos_binary_heap.c **** 
 233:..//kernel/core/tos_binary_heap.c ****     TOS_PTR_SANITY_CHECK(bin_heap);
 234:..//kernel/core/tos_binary_heap.c ****     TOS_PTR_SANITY_CHECK(item);
 235:..//kernel/core/tos_binary_heap.c ****     TOS_OBJ_VERIFY(bin_heap, KNL_OBJ_TYPE_BINARY_HEAP);
 236:..//kernel/core/tos_binary_heap.c **** 
 237:..//kernel/core/tos_binary_heap.c ****     TOS_CPU_INT_DISABLE();
 238:..//kernel/core/tos_binary_heap.c **** 
 239:..//kernel/core/tos_binary_heap.c ****     if (tos_bin_heap_is_empty(bin_heap)) {
 240:..//kernel/core/tos_binary_heap.c ****         TOS_CPU_INT_ENABLE();
 241:..//kernel/core/tos_binary_heap.c ****         return K_ERR_BIN_HEAP_EMPTY;
 242:..//kernel/core/tos_binary_heap.c ****     }
 243:..//kernel/core/tos_binary_heap.c **** 
 244:..//kernel/core/tos_binary_heap.c ****     bin_heap_item_copy_to(bin_heap, item, item_size);
 245:..//kernel/core/tos_binary_heap.c ****     bin_heap_item_decrease(bin_heap);
 246:..//kernel/core/tos_binary_heap.c ****     bin_heap_percolate_down(bin_heap);
 247:..//kernel/core/tos_binary_heap.c **** 
 248:..//kernel/core/tos_binary_heap.c ****     TOS_CPU_INT_ENABLE();
 249:..//kernel/core/tos_binary_heap.c **** 
 250:..//kernel/core/tos_binary_heap.c ****     return K_ERR_NONE;
 251:..//kernel/core/tos_binary_heap.c **** }
 252:..//kernel/core/tos_binary_heap.c **** 
 253:..//kernel/core/tos_binary_heap.c **** __API__ k_err_t tos_bin_heap_flush(k_bin_heap_t *bin_heap)
 254:..//kernel/core/tos_binary_heap.c **** {
 882              		.loc 1 254 1 is_stmt 1 view -0
 883              		.cfi_startproc
 884              		@ args = 0, pretend = 0, frame = 0
 885              		@ frame_needed = 0, uses_anonymous_args = 0
 255:..//kernel/core/tos_binary_heap.c ****     TOS_CPU_CPSR_ALLOC();
 886              		.loc 1 255 5 view .LVU284
 256:..//kernel/core/tos_binary_heap.c **** 
ARM GAS  C:\Users\tianx\AppData\Local\Temp\ccZrGPud.s 			page 26


 257:..//kernel/core/tos_binary_heap.c ****     TOS_PTR_SANITY_CHECK(bin_heap);
 887              		.loc 1 257 5 view .LVU285
 888              		.loc 1 257 5 view .LVU286
 889 0000 88B1     		cbz	r0, .L48
 254:..//kernel/core/tos_binary_heap.c ****     TOS_CPU_CPSR_ALLOC();
 890              		.loc 1 254 1 is_stmt 0 view .LVU287
 891 0002 38B5     		push	{r3, r4, r5, lr}
 892              	.LCFI12:
 893              		.cfi_def_cfa_offset 16
 894              		.cfi_offset 3, -16
 895              		.cfi_offset 4, -12
 896              		.cfi_offset 5, -8
 897              		.cfi_offset 14, -4
 898 0004 0546     		mov	r5, r0
 258:..//kernel/core/tos_binary_heap.c ****     TOS_OBJ_VERIFY(bin_heap, KNL_OBJ_TYPE_BINARY_HEAP);
 899              		.loc 1 258 5 is_stmt 1 view .LVU288
 900              		.loc 1 258 5 view .LVU289
 901              	.LVL106:
 902              	.LBB68:
 903              	.LBI68:
 182:..//kernel/core/include/tos_sys.h **** {
 904              		.loc 2 182 31 view .LVU290
 905              	.LBB69:
 184:..//kernel/core/include/tos_sys.h **** }
 906              		.loc 2 184 5 view .LVU291
 184:..//kernel/core/include/tos_sys.h **** }
 907              		.loc 2 184 19 is_stmt 0 view .LVU292
 908 0006 4188     		ldrh	r1, [r0, #2]
 909              	.LVL107:
 184:..//kernel/core/include/tos_sys.h **** }
 910              		.loc 2 184 19 view .LVU293
 911              	.LBE69:
 912              	.LBE68:
 913              		.loc 1 258 5 view .LVU294
 914 0008 4DF6D022 		movw	r2, #56016
 915 000c 9142     		cmp	r1, r2
 916 000e 02D0     		beq	.L54
 917 0010 40F24D40 		movw	r0, #1101
 918              	.LVL108:
 919              	.L47:
 259:..//kernel/core/tos_binary_heap.c **** 
 260:..//kernel/core/tos_binary_heap.c ****     TOS_CPU_INT_DISABLE();
 261:..//kernel/core/tos_binary_heap.c ****     bin_heap->total = 0;
 262:..//kernel/core/tos_binary_heap.c ****     TOS_CPU_INT_ENABLE();
 263:..//kernel/core/tos_binary_heap.c **** 
 264:..//kernel/core/tos_binary_heap.c ****     return K_ERR_NONE;
 265:..//kernel/core/tos_binary_heap.c **** }
 920              		.loc 1 265 1 view .LVU295
 921 0014 38BD     		pop	{r3, r4, r5, pc}
 922              	.LVL109:
 923              	.L54:
 260:..//kernel/core/tos_binary_heap.c ****     bin_heap->total = 0;
 924              		.loc 1 260 5 is_stmt 1 view .LVU296
 260:..//kernel/core/tos_binary_heap.c ****     bin_heap->total = 0;
 925              		.loc 1 260 5 view .LVU297
 926 0016 FFF7FEFF 		bl	tos_cpu_cpsr_save
 927              	.LVL110:
ARM GAS  C:\Users\tianx\AppData\Local\Temp\ccZrGPud.s 			page 27


 261:..//kernel/core/tos_binary_heap.c ****     TOS_CPU_INT_ENABLE();
 928              		.loc 1 261 5 view .LVU298
 261:..//kernel/core/tos_binary_heap.c ****     TOS_CPU_INT_ENABLE();
 929              		.loc 1 261 21 is_stmt 0 view .LVU299
 930 001a 0024     		movs	r4, #0
 931 001c 6C60     		str	r4, [r5, #4]
 262:..//kernel/core/tos_binary_heap.c **** 
 932              		.loc 1 262 5 is_stmt 1 view .LVU300
 262:..//kernel/core/tos_binary_heap.c **** 
 933              		.loc 1 262 5 view .LVU301
 934 001e FFF7FEFF 		bl	tos_cpu_cpsr_restore
 935              	.LVL111:
 264:..//kernel/core/tos_binary_heap.c **** }
 936              		.loc 1 264 5 view .LVU302
 264:..//kernel/core/tos_binary_heap.c **** }
 937              		.loc 1 264 12 is_stmt 0 view .LVU303
 938 0022 2046     		mov	r0, r4
 939 0024 F6E7     		b	.L47
 940              	.LVL112:
 941              	.L48:
 942              	.LCFI13:
 943              		.cfi_def_cfa_offset 0
 944              		.cfi_restore 3
 945              		.cfi_restore 4
 946              		.cfi_restore 5
 947              		.cfi_restore 14
 257:..//kernel/core/tos_binary_heap.c ****     TOS_OBJ_VERIFY(bin_heap, KNL_OBJ_TYPE_BINARY_HEAP);
 948              		.loc 1 257 5 view .LVU304
 949 0026 40F24C40 		movw	r0, #1100
 950              	.LVL113:
 951              		.loc 1 265 1 view .LVU305
 952 002a 7047     		bx	lr
 953              		.cfi_endproc
 954              	.LFE123:
 956              		.section	.text.tos_bin_heap_is_empty,"ax",%progbits
 957              		.align	1
 958              		.global	tos_bin_heap_is_empty
 959              		.syntax unified
 960              		.thumb
 961              		.thumb_func
 962              		.fpu softvfp
 964              	tos_bin_heap_is_empty:
 965              	.LVL114:
 966              	.LFB124:
 266:..//kernel/core/tos_binary_heap.c **** 
 267:..//kernel/core/tos_binary_heap.c **** __API__ int tos_bin_heap_is_empty(k_bin_heap_t *bin_heap)
 268:..//kernel/core/tos_binary_heap.c **** {
 967              		.loc 1 268 1 is_stmt 1 view -0
 968              		.cfi_startproc
 969              		@ args = 0, pretend = 0, frame = 0
 970              		@ frame_needed = 0, uses_anonymous_args = 0
 971              		.loc 1 268 1 is_stmt 0 view .LVU307
 972 0000 10B5     		push	{r4, lr}
 973              	.LCFI14:
 974              		.cfi_def_cfa_offset 8
 975              		.cfi_offset 4, -8
 976              		.cfi_offset 14, -4
ARM GAS  C:\Users\tianx\AppData\Local\Temp\ccZrGPud.s 			page 28


 269:..//kernel/core/tos_binary_heap.c ****     TOS_CPU_CPSR_ALLOC();
 977              		.loc 1 269 5 is_stmt 1 view .LVU308
 978              	.LVL115:
 270:..//kernel/core/tos_binary_heap.c ****     int is_empty = K_FALSE;
 979              		.loc 1 270 5 view .LVU309
 271:..//kernel/core/tos_binary_heap.c **** 
 272:..//kernel/core/tos_binary_heap.c ****     TOS_PTR_SANITY_CHECK_RC(bin_heap, K_FALSE);
 980              		.loc 1 272 5 view .LVU310
 981              		.loc 1 272 5 view .LVU311
 982 0002 B0FA80F4 		clz	r4, r0
 983 0006 6409     		lsrs	r4, r4, #5
 984 0008 84B9     		cbnz	r4, .L57
 273:..//kernel/core/tos_binary_heap.c ****     TOS_OBJ_VERIFY_RC(bin_heap, KNL_OBJ_TYPE_BINARY_HEAP, K_FALSE);
 985              		.loc 1 273 5 view .LVU312
 986              		.loc 1 273 5 view .LVU313
 987              	.LVL116:
 988              	.LBB70:
 989              	.LBI70:
 182:..//kernel/core/include/tos_sys.h **** {
 990              		.loc 2 182 31 view .LVU314
 991              	.LBB71:
 184:..//kernel/core/include/tos_sys.h **** }
 992              		.loc 2 184 5 view .LVU315
 184:..//kernel/core/include/tos_sys.h **** }
 993              		.loc 2 184 19 is_stmt 0 view .LVU316
 994 000a 4188     		ldrh	r1, [r0, #2]
 995              	.LVL117:
 184:..//kernel/core/include/tos_sys.h **** }
 996              		.loc 2 184 19 view .LVU317
 997              	.LBE71:
 998              	.LBE70:
 999              		.loc 1 273 5 view .LVU318
 1000 000c 4DF6D022 		movw	r2, #56016
 1001 0010 9142     		cmp	r1, r2
 1002 0012 01D0     		beq	.L59
 1003              	.LVL118:
 1004              	.L55:
 274:..//kernel/core/tos_binary_heap.c **** 
 275:..//kernel/core/tos_binary_heap.c ****     TOS_CPU_INT_DISABLE();
 276:..//kernel/core/tos_binary_heap.c ****     is_empty = (bin_heap->total == 0);
 277:..//kernel/core/tos_binary_heap.c ****     TOS_CPU_INT_ENABLE();
 278:..//kernel/core/tos_binary_heap.c **** 
 279:..//kernel/core/tos_binary_heap.c ****     return is_empty;
 280:..//kernel/core/tos_binary_heap.c **** }
 1005              		.loc 1 280 1 view .LVU319
 1006 0014 2046     		mov	r0, r4
 1007 0016 10BD     		pop	{r4, pc}
 1008              	.LVL119:
 1009              	.L59:
 1010              		.loc 1 280 1 view .LVU320
 1011 0018 0446     		mov	r4, r0
 275:..//kernel/core/tos_binary_heap.c ****     is_empty = (bin_heap->total == 0);
 1012              		.loc 1 275 5 is_stmt 1 view .LVU321
 275:..//kernel/core/tos_binary_heap.c ****     is_empty = (bin_heap->total == 0);
 1013              		.loc 1 275 5 view .LVU322
 1014 001a FFF7FEFF 		bl	tos_cpu_cpsr_save
 1015              	.LVL120:
ARM GAS  C:\Users\tianx\AppData\Local\Temp\ccZrGPud.s 			page 29


 276:..//kernel/core/tos_binary_heap.c ****     TOS_CPU_INT_ENABLE();
 1016              		.loc 1 276 5 view .LVU323
 276:..//kernel/core/tos_binary_heap.c ****     TOS_CPU_INT_ENABLE();
 1017              		.loc 1 276 25 is_stmt 0 view .LVU324
 1018 001e 6468     		ldr	r4, [r4, #4]
 1019              	.LVL121:
 276:..//kernel/core/tos_binary_heap.c ****     TOS_CPU_INT_ENABLE();
 1020              		.loc 1 276 33 view .LVU325
 1021 0020 B4FA84F4 		clz	r4, r4
 1022 0024 6409     		lsrs	r4, r4, #5
 1023              	.LVL122:
 277:..//kernel/core/tos_binary_heap.c **** 
 1024              		.loc 1 277 5 is_stmt 1 view .LVU326
 277:..//kernel/core/tos_binary_heap.c **** 
 1025              		.loc 1 277 5 view .LVU327
 1026 0026 FFF7FEFF 		bl	tos_cpu_cpsr_restore
 1027              	.LVL123:
 279:..//kernel/core/tos_binary_heap.c **** }
 1028              		.loc 1 279 5 view .LVU328
 279:..//kernel/core/tos_binary_heap.c **** }
 1029              		.loc 1 279 12 is_stmt 0 view .LVU329
 1030 002a F3E7     		b	.L55
 1031              	.LVL124:
 1032              	.L57:
 272:..//kernel/core/tos_binary_heap.c ****     TOS_OBJ_VERIFY_RC(bin_heap, KNL_OBJ_TYPE_BINARY_HEAP, K_FALSE);
 1033              		.loc 1 272 5 view .LVU330
 1034 002c 0024     		movs	r4, #0
 1035 002e F1E7     		b	.L55
 1036              		.cfi_endproc
 1037              	.LFE124:
 1039              		.section	.text.tos_bin_heap_pop,"ax",%progbits
 1040              		.align	1
 1041              		.global	tos_bin_heap_pop
 1042              		.syntax unified
 1043              		.thumb
 1044              		.thumb_func
 1045              		.fpu softvfp
 1047              	tos_bin_heap_pop:
 1048              	.LVL125:
 1049              	.LFB122:
 230:..//kernel/core/tos_binary_heap.c ****     TOS_CPU_CPSR_ALLOC();
 1050              		.loc 1 230 1 is_stmt 1 view -0
 1051              		.cfi_startproc
 1052              		@ args = 0, pretend = 0, frame = 0
 1053              		@ frame_needed = 0, uses_anonymous_args = 0
 231:..//kernel/core/tos_binary_heap.c **** 
 1054              		.loc 1 231 5 view .LVU332
 233:..//kernel/core/tos_binary_heap.c ****     TOS_PTR_SANITY_CHECK(item);
 1055              		.loc 1 233 5 view .LVU333
 233:..//kernel/core/tos_binary_heap.c ****     TOS_PTR_SANITY_CHECK(item);
 1056              		.loc 1 233 5 view .LVU334
 1057 0000 58B3     		cbz	r0, .L64
 230:..//kernel/core/tos_binary_heap.c ****     TOS_CPU_CPSR_ALLOC();
 1058              		.loc 1 230 1 is_stmt 0 view .LVU335
 1059 0002 F8B5     		push	{r3, r4, r5, r6, r7, lr}
 1060              	.LCFI15:
 1061              		.cfi_def_cfa_offset 24
ARM GAS  C:\Users\tianx\AppData\Local\Temp\ccZrGPud.s 			page 30


 1062              		.cfi_offset 3, -24
 1063              		.cfi_offset 4, -20
 1064              		.cfi_offset 5, -16
 1065              		.cfi_offset 6, -12
 1066              		.cfi_offset 7, -8
 1067              		.cfi_offset 14, -4
 1068 0004 0446     		mov	r4, r0
 234:..//kernel/core/tos_binary_heap.c ****     TOS_OBJ_VERIFY(bin_heap, KNL_OBJ_TYPE_BINARY_HEAP);
 1069              		.loc 1 234 5 is_stmt 1 view .LVU336
 234:..//kernel/core/tos_binary_heap.c ****     TOS_OBJ_VERIFY(bin_heap, KNL_OBJ_TYPE_BINARY_HEAP);
 1070              		.loc 1 234 5 view .LVU337
 1071 0006 59B3     		cbz	r1, .L65
 235:..//kernel/core/tos_binary_heap.c **** 
 1072              		.loc 1 235 5 view .LVU338
 235:..//kernel/core/tos_binary_heap.c **** 
 1073              		.loc 1 235 5 view .LVU339
 1074              	.LVL126:
 1075              	.LBB72:
 1076              	.LBI72:
 182:..//kernel/core/include/tos_sys.h **** {
 1077              		.loc 2 182 31 view .LVU340
 1078              	.LBB73:
 184:..//kernel/core/include/tos_sys.h **** }
 1079              		.loc 2 184 5 view .LVU341
 184:..//kernel/core/include/tos_sys.h **** }
 1080              		.loc 2 184 19 is_stmt 0 view .LVU342
 1081 0008 4088     		ldrh	r0, [r0, #2]
 1082              	.LVL127:
 184:..//kernel/core/include/tos_sys.h **** }
 1083              		.loc 2 184 19 view .LVU343
 1084              	.LBE73:
 1085              	.LBE72:
 235:..//kernel/core/tos_binary_heap.c **** 
 1086              		.loc 1 235 5 view .LVU344
 1087 000a 4DF6D023 		movw	r3, #56016
 1088 000e 9842     		cmp	r0, r3
 1089 0010 02D0     		beq	.L71
 1090 0012 40F24D40 		movw	r0, #1101
 1091              	.LVL128:
 1092              	.L61:
 251:..//kernel/core/tos_binary_heap.c **** 
 1093              		.loc 1 251 1 view .LVU345
 1094 0016 F8BD     		pop	{r3, r4, r5, r6, r7, pc}
 1095              	.LVL129:
 1096              	.L71:
 251:..//kernel/core/tos_binary_heap.c **** 
 1097              		.loc 1 251 1 view .LVU346
 1098 0018 1646     		mov	r6, r2
 1099 001a 0D46     		mov	r5, r1
 237:..//kernel/core/tos_binary_heap.c **** 
 1100              		.loc 1 237 5 is_stmt 1 view .LVU347
 237:..//kernel/core/tos_binary_heap.c **** 
 1101              		.loc 1 237 5 view .LVU348
 1102 001c FFF7FEFF 		bl	tos_cpu_cpsr_save
 1103              	.LVL130:
 237:..//kernel/core/tos_binary_heap.c **** 
 1104              		.loc 1 237 5 is_stmt 0 view .LVU349
ARM GAS  C:\Users\tianx\AppData\Local\Temp\ccZrGPud.s 			page 31


 1105 0020 0746     		mov	r7, r0
 1106              	.LVL131:
 239:..//kernel/core/tos_binary_heap.c ****         TOS_CPU_INT_ENABLE();
 1107              		.loc 1 239 5 is_stmt 1 view .LVU350
 239:..//kernel/core/tos_binary_heap.c ****         TOS_CPU_INT_ENABLE();
 1108              		.loc 1 239 9 is_stmt 0 view .LVU351
 1109 0022 2046     		mov	r0, r4
 1110              	.LVL132:
 239:..//kernel/core/tos_binary_heap.c ****         TOS_CPU_INT_ENABLE();
 1111              		.loc 1 239 9 view .LVU352
 1112 0024 FFF7FEFF 		bl	tos_bin_heap_is_empty
 1113              	.LVL133:
 239:..//kernel/core/tos_binary_heap.c ****         TOS_CPU_INT_ENABLE();
 1114              		.loc 1 239 8 view .LVU353
 1115 0028 90B9     		cbnz	r0, .L72
 244:..//kernel/core/tos_binary_heap.c ****     bin_heap_item_decrease(bin_heap);
 1116              		.loc 1 244 5 is_stmt 1 view .LVU354
 1117              	.LVL134:
 1118              	.LBB74:
 1119              	.LBI74:
  20:..//kernel/core/tos_binary_heap.c **** {
 1120              		.loc 1 20 24 view .LVU355
 1121              	.LBB75:
  22:..//kernel/core/tos_binary_heap.c ****     if (item_size) {
 1122              		.loc 1 22 5 view .LVU356
 1123 002a E268     		ldr	r2, [r4, #12]
 1124 002c 6169     		ldr	r1, [r4, #20]
 1125 002e 2846     		mov	r0, r5
 1126 0030 FFF7FEFF 		bl	memcpy
 1127              	.LVL135:
  23:..//kernel/core/tos_binary_heap.c ****         *item_size = bin_heap->item_size;
 1128              		.loc 1 23 5 view .LVU357
  23:..//kernel/core/tos_binary_heap.c ****         *item_size = bin_heap->item_size;
 1129              		.loc 1 23 8 is_stmt 0 view .LVU358
 1130 0034 0EB1     		cbz	r6, .L63
  24:..//kernel/core/tos_binary_heap.c ****     }
 1131              		.loc 1 24 9 is_stmt 1 view .LVU359
  24:..//kernel/core/tos_binary_heap.c ****     }
 1132              		.loc 1 24 30 is_stmt 0 view .LVU360
 1133 0036 E368     		ldr	r3, [r4, #12]
  24:..//kernel/core/tos_binary_heap.c ****     }
 1134              		.loc 1 24 20 view .LVU361
 1135 0038 3360     		str	r3, [r6]
 1136              	.L63:
 1137              	.LVL136:
  24:..//kernel/core/tos_binary_heap.c ****     }
 1138              		.loc 1 24 20 view .LVU362
 1139              	.LBE75:
 1140              	.LBE74:
 245:..//kernel/core/tos_binary_heap.c ****     bin_heap_percolate_down(bin_heap);
 1141              		.loc 1 245 5 is_stmt 1 view .LVU363
 1142              	.LBB76:
 1143              	.LBI76:
  38:..//kernel/core/tos_binary_heap.c **** {
 1144              		.loc 1 38 24 view .LVU364
 1145              	.LBB77:
  40:..//kernel/core/tos_binary_heap.c **** }
ARM GAS  C:\Users\tianx\AppData\Local\Temp\ccZrGPud.s 			page 32


 1146              		.loc 1 40 5 view .LVU365
  40:..//kernel/core/tos_binary_heap.c **** }
 1147              		.loc 1 40 15 is_stmt 0 view .LVU366
 1148 003a 6368     		ldr	r3, [r4, #4]
  40:..//kernel/core/tos_binary_heap.c **** }
 1149              		.loc 1 40 5 view .LVU367
 1150 003c 013B     		subs	r3, r3, #1
 1151 003e 6360     		str	r3, [r4, #4]
 1152              	.LVL137:
  40:..//kernel/core/tos_binary_heap.c **** }
 1153              		.loc 1 40 5 view .LVU368
 1154              	.LBE77:
 1155              	.LBE76:
 246:..//kernel/core/tos_binary_heap.c **** 
 1156              		.loc 1 246 5 is_stmt 1 view .LVU369
 1157 0040 2046     		mov	r0, r4
 1158 0042 FFF7FEFF 		bl	bin_heap_percolate_down
 1159              	.LVL138:
 248:..//kernel/core/tos_binary_heap.c **** 
 1160              		.loc 1 248 5 view .LVU370
 248:..//kernel/core/tos_binary_heap.c **** 
 1161              		.loc 1 248 5 view .LVU371
 1162 0046 3846     		mov	r0, r7
 1163 0048 FFF7FEFF 		bl	tos_cpu_cpsr_restore
 1164              	.LVL139:
 250:..//kernel/core/tos_binary_heap.c **** }
 1165              		.loc 1 250 5 view .LVU372
 250:..//kernel/core/tos_binary_heap.c **** }
 1166              		.loc 1 250 12 is_stmt 0 view .LVU373
 1167 004c 0020     		movs	r0, #0
 1168 004e E2E7     		b	.L61
 1169              	.L72:
 240:..//kernel/core/tos_binary_heap.c ****         return K_ERR_BIN_HEAP_EMPTY;
 1170              		.loc 1 240 9 is_stmt 1 view .LVU374
 240:..//kernel/core/tos_binary_heap.c ****         return K_ERR_BIN_HEAP_EMPTY;
 1171              		.loc 1 240 9 view .LVU375
 1172 0050 3846     		mov	r0, r7
 1173 0052 FFF7FEFF 		bl	tos_cpu_cpsr_restore
 1174              	.LVL140:
 241:..//kernel/core/tos_binary_heap.c ****     }
 1175              		.loc 1 241 9 view .LVU376
 241:..//kernel/core/tos_binary_heap.c ****     }
 1176              		.loc 1 241 16 is_stmt 0 view .LVU377
 1177 0056 1020     		movs	r0, #16
 1178 0058 DDE7     		b	.L61
 1179              	.LVL141:
 1180              	.L64:
 1181              	.LCFI16:
 1182              		.cfi_def_cfa_offset 0
 1183              		.cfi_restore 3
 1184              		.cfi_restore 4
 1185              		.cfi_restore 5
 1186              		.cfi_restore 6
 1187              		.cfi_restore 7
 1188              		.cfi_restore 14
 233:..//kernel/core/tos_binary_heap.c ****     TOS_PTR_SANITY_CHECK(item);
 1189              		.loc 1 233 5 view .LVU378
ARM GAS  C:\Users\tianx\AppData\Local\Temp\ccZrGPud.s 			page 33


 1190 005a 40F24C40 		movw	r0, #1100
 1191              	.LVL142:
 251:..//kernel/core/tos_binary_heap.c **** 
 1192              		.loc 1 251 1 view .LVU379
 1193 005e 7047     		bx	lr
 1194              	.LVL143:
 1195              	.L65:
 1196              	.LCFI17:
 1197              		.cfi_def_cfa_offset 24
 1198              		.cfi_offset 3, -24
 1199              		.cfi_offset 4, -20
 1200              		.cfi_offset 5, -16
 1201              		.cfi_offset 6, -12
 1202              		.cfi_offset 7, -8
 1203              		.cfi_offset 14, -4
 234:..//kernel/core/tos_binary_heap.c ****     TOS_OBJ_VERIFY(bin_heap, KNL_OBJ_TYPE_BINARY_HEAP);
 1204              		.loc 1 234 5 view .LVU380
 1205 0060 40F24C40 		movw	r0, #1100
 1206              	.LVL144:
 234:..//kernel/core/tos_binary_heap.c ****     TOS_OBJ_VERIFY(bin_heap, KNL_OBJ_TYPE_BINARY_HEAP);
 1207              		.loc 1 234 5 view .LVU381
 1208 0064 D7E7     		b	.L61
 1209              		.cfi_endproc
 1210              	.LFE122:
 1212              		.section	.text.tos_bin_heap_is_full,"ax",%progbits
 1213              		.align	1
 1214              		.global	tos_bin_heap_is_full
 1215              		.syntax unified
 1216              		.thumb
 1217              		.thumb_func
 1218              		.fpu softvfp
 1220              	tos_bin_heap_is_full:
 1221              	.LVL145:
 1222              	.LFB125:
 281:..//kernel/core/tos_binary_heap.c **** 
 282:..//kernel/core/tos_binary_heap.c **** __API__ int tos_bin_heap_is_full(k_bin_heap_t *bin_heap)
 283:..//kernel/core/tos_binary_heap.c **** {
 1223              		.loc 1 283 1 is_stmt 1 view -0
 1224              		.cfi_startproc
 1225              		@ args = 0, pretend = 0, frame = 0
 1226              		@ frame_needed = 0, uses_anonymous_args = 0
 1227              		.loc 1 283 1 is_stmt 0 view .LVU383
 1228 0000 38B5     		push	{r3, r4, r5, lr}
 1229              	.LCFI18:
 1230              		.cfi_def_cfa_offset 16
 1231              		.cfi_offset 3, -16
 1232              		.cfi_offset 4, -12
 1233              		.cfi_offset 5, -8
 1234              		.cfi_offset 14, -4
 284:..//kernel/core/tos_binary_heap.c ****     TOS_CPU_CPSR_ALLOC();
 1235              		.loc 1 284 5 is_stmt 1 view .LVU384
 1236              	.LVL146:
 285:..//kernel/core/tos_binary_heap.c ****     int is_full = K_FALSE;
 1237              		.loc 1 285 5 view .LVU385
 286:..//kernel/core/tos_binary_heap.c **** 
 287:..//kernel/core/tos_binary_heap.c ****     TOS_PTR_SANITY_CHECK_RC(bin_heap, K_FALSE);
 1238              		.loc 1 287 5 view .LVU386
ARM GAS  C:\Users\tianx\AppData\Local\Temp\ccZrGPud.s 			page 34


 1239              		.loc 1 287 5 view .LVU387
 1240 0002 B0FA80F4 		clz	r4, r0
 1241 0006 6409     		lsrs	r4, r4, #5
 1242 0008 94B9     		cbnz	r4, .L75
 1243 000a 0546     		mov	r5, r0
 288:..//kernel/core/tos_binary_heap.c ****     TOS_OBJ_VERIFY_RC(bin_heap, KNL_OBJ_TYPE_BINARY_HEAP, K_FALSE);
 1244              		.loc 1 288 5 view .LVU388
 1245              		.loc 1 288 5 view .LVU389
 1246              	.LVL147:
 1247              	.LBB78:
 1248              	.LBI78:
 182:..//kernel/core/include/tos_sys.h **** {
 1249              		.loc 2 182 31 view .LVU390
 1250              	.LBB79:
 184:..//kernel/core/include/tos_sys.h **** }
 1251              		.loc 2 184 5 view .LVU391
 184:..//kernel/core/include/tos_sys.h **** }
 1252              		.loc 2 184 19 is_stmt 0 view .LVU392
 1253 000c 4188     		ldrh	r1, [r0, #2]
 1254              	.LVL148:
 184:..//kernel/core/include/tos_sys.h **** }
 1255              		.loc 2 184 19 view .LVU393
 1256              	.LBE79:
 1257              	.LBE78:
 1258              		.loc 1 288 5 view .LVU394
 1259 000e 4DF6D022 		movw	r2, #56016
 1260 0012 9142     		cmp	r1, r2
 1261 0014 01D0     		beq	.L77
 1262              	.LVL149:
 1263              	.L73:
 289:..//kernel/core/tos_binary_heap.c **** 
 290:..//kernel/core/tos_binary_heap.c ****     TOS_CPU_INT_DISABLE();
 291:..//kernel/core/tos_binary_heap.c ****     is_full = (bin_heap->total == bin_heap->item_cnt ? K_TRUE : K_FALSE);
 292:..//kernel/core/tos_binary_heap.c ****     TOS_CPU_INT_ENABLE();
 293:..//kernel/core/tos_binary_heap.c **** 
 294:..//kernel/core/tos_binary_heap.c ****     return is_full;
 295:..//kernel/core/tos_binary_heap.c **** }
 1264              		.loc 1 295 1 view .LVU395
 1265 0016 2046     		mov	r0, r4
 1266 0018 38BD     		pop	{r3, r4, r5, pc}
 1267              	.LVL150:
 1268              	.L77:
 290:..//kernel/core/tos_binary_heap.c ****     is_full = (bin_heap->total == bin_heap->item_cnt ? K_TRUE : K_FALSE);
 1269              		.loc 1 290 5 is_stmt 1 view .LVU396
 290:..//kernel/core/tos_binary_heap.c ****     is_full = (bin_heap->total == bin_heap->item_cnt ? K_TRUE : K_FALSE);
 1270              		.loc 1 290 5 view .LVU397
 1271 001a FFF7FEFF 		bl	tos_cpu_cpsr_save
 1272              	.LVL151:
 291:..//kernel/core/tos_binary_heap.c ****     TOS_CPU_INT_ENABLE();
 1273              		.loc 1 291 5 view .LVU398
 291:..//kernel/core/tos_binary_heap.c ****     TOS_CPU_INT_ENABLE();
 1274              		.loc 1 291 24 is_stmt 0 view .LVU399
 1275 001e 6C68     		ldr	r4, [r5, #4]
 291:..//kernel/core/tos_binary_heap.c ****     TOS_CPU_INT_ENABLE();
 1276              		.loc 1 291 43 view .LVU400
 1277 0020 2B69     		ldr	r3, [r5, #16]
 291:..//kernel/core/tos_binary_heap.c ****     TOS_CPU_INT_ENABLE();
ARM GAS  C:\Users\tianx\AppData\Local\Temp\ccZrGPud.s 			page 35


 1278              		.loc 1 291 63 view .LVU401
 1279 0022 9C42     		cmp	r4, r3
 1280 0024 14BF     		ite	ne
 1281 0026 0024     		movne	r4, #0
 1282 0028 0124     		moveq	r4, #1
 1283              	.LVL152:
 292:..//kernel/core/tos_binary_heap.c **** 
 1284              		.loc 1 292 5 is_stmt 1 view .LVU402
 292:..//kernel/core/tos_binary_heap.c **** 
 1285              		.loc 1 292 5 view .LVU403
 1286 002a FFF7FEFF 		bl	tos_cpu_cpsr_restore
 1287              	.LVL153:
 294:..//kernel/core/tos_binary_heap.c **** }
 1288              		.loc 1 294 5 view .LVU404
 294:..//kernel/core/tos_binary_heap.c **** }
 1289              		.loc 1 294 12 is_stmt 0 view .LVU405
 1290 002e F2E7     		b	.L73
 1291              	.LVL154:
 1292              	.L75:
 287:..//kernel/core/tos_binary_heap.c ****     TOS_OBJ_VERIFY_RC(bin_heap, KNL_OBJ_TYPE_BINARY_HEAP, K_FALSE);
 1293              		.loc 1 287 5 view .LVU406
 1294 0030 0024     		movs	r4, #0
 1295 0032 F0E7     		b	.L73
 1296              		.cfi_endproc
 1297              	.LFE125:
 1299              		.section	.text.tos_bin_heap_push,"ax",%progbits
 1300              		.align	1
 1301              		.global	tos_bin_heap_push
 1302              		.syntax unified
 1303              		.thumb
 1304              		.thumb_func
 1305              		.fpu softvfp
 1307              	tos_bin_heap_push:
 1308              	.LVL155:
 1309              	.LFB121:
 204:..//kernel/core/tos_binary_heap.c ****     TOS_CPU_CPSR_ALLOC();
 1310              		.loc 1 204 1 is_stmt 1 view -0
 1311              		.cfi_startproc
 1312              		@ args = 0, pretend = 0, frame = 0
 1313              		@ frame_needed = 0, uses_anonymous_args = 0
 205:..//kernel/core/tos_binary_heap.c **** 
 1314              		.loc 1 205 5 view .LVU408
 207:..//kernel/core/tos_binary_heap.c ****     TOS_PTR_SANITY_CHECK(item);
 1315              		.loc 1 207 5 view .LVU409
 207:..//kernel/core/tos_binary_heap.c ****     TOS_PTR_SANITY_CHECK(item);
 1316              		.loc 1 207 5 view .LVU410
 1317 0000 48B3     		cbz	r0, .L80
 204:..//kernel/core/tos_binary_heap.c ****     TOS_CPU_CPSR_ALLOC();
 1318              		.loc 1 204 1 is_stmt 0 view .LVU411
 1319 0002 F8B5     		push	{r3, r4, r5, r6, r7, lr}
 1320              	.LCFI19:
 1321              		.cfi_def_cfa_offset 24
 1322              		.cfi_offset 3, -24
 1323              		.cfi_offset 4, -20
 1324              		.cfi_offset 5, -16
 1325              		.cfi_offset 6, -12
 1326              		.cfi_offset 7, -8
ARM GAS  C:\Users\tianx\AppData\Local\Temp\ccZrGPud.s 			page 36


 1327              		.cfi_offset 14, -4
 1328 0004 0546     		mov	r5, r0
 208:..//kernel/core/tos_binary_heap.c ****     TOS_OBJ_VERIFY(bin_heap, KNL_OBJ_TYPE_BINARY_HEAP);
 1329              		.loc 1 208 5 is_stmt 1 view .LVU412
 208:..//kernel/core/tos_binary_heap.c ****     TOS_OBJ_VERIFY(bin_heap, KNL_OBJ_TYPE_BINARY_HEAP);
 1330              		.loc 1 208 5 view .LVU413
 1331 0006 49B3     		cbz	r1, .L81
 209:..//kernel/core/tos_binary_heap.c **** 
 1332              		.loc 1 209 5 view .LVU414
 209:..//kernel/core/tos_binary_heap.c **** 
 1333              		.loc 1 209 5 view .LVU415
 1334              	.LVL156:
 1335              	.LBB80:
 1336              	.LBI80:
 182:..//kernel/core/include/tos_sys.h **** {
 1337              		.loc 2 182 31 view .LVU416
 1338              	.LBB81:
 184:..//kernel/core/include/tos_sys.h **** }
 1339              		.loc 2 184 5 view .LVU417
 184:..//kernel/core/include/tos_sys.h **** }
 1340              		.loc 2 184 19 is_stmt 0 view .LVU418
 1341 0008 4488     		ldrh	r4, [r0, #2]
 1342              	.LVL157:
 184:..//kernel/core/include/tos_sys.h **** }
 1343              		.loc 2 184 19 view .LVU419
 1344              	.LBE81:
 1345              	.LBE80:
 209:..//kernel/core/tos_binary_heap.c **** 
 1346              		.loc 1 209 5 view .LVU420
 1347 000a 4DF6D020 		movw	r0, #56016
 1348              	.LVL158:
 209:..//kernel/core/tos_binary_heap.c **** 
 1349              		.loc 1 209 5 view .LVU421
 1350 000e 8442     		cmp	r4, r0
 1351 0010 27D1     		bne	.L82
 211:..//kernel/core/tos_binary_heap.c ****         return K_ERR_BIN_HEAP_ITEM_SIZE_NOT_MATCH;
 1352              		.loc 1 211 5 is_stmt 1 view .LVU422
 211:..//kernel/core/tos_binary_heap.c ****         return K_ERR_BIN_HEAP_ITEM_SIZE_NOT_MATCH;
 1353              		.loc 1 211 30 is_stmt 0 view .LVU423
 1354 0012 E868     		ldr	r0, [r5, #12]
 211:..//kernel/core/tos_binary_heap.c ****         return K_ERR_BIN_HEAP_ITEM_SIZE_NOT_MATCH;
 1355              		.loc 1 211 8 view .LVU424
 1356 0014 9042     		cmp	r0, r2
 1357 0016 01D0     		beq	.L89
 212:..//kernel/core/tos_binary_heap.c ****     }
 1358              		.loc 1 212 16 view .LVU425
 1359 0018 1120     		movs	r0, #17
 1360 001a 24E0     		b	.L79
 1361              	.L89:
 1362 001c 0C46     		mov	r4, r1
 215:..//kernel/core/tos_binary_heap.c ****         return K_ERR_BIN_HEAP_FULL;
 1363              		.loc 1 215 5 is_stmt 1 view .LVU426
 215:..//kernel/core/tos_binary_heap.c ****         return K_ERR_BIN_HEAP_FULL;
 1364              		.loc 1 215 9 is_stmt 0 view .LVU427
 1365 001e 2846     		mov	r0, r5
 1366 0020 FFF7FEFF 		bl	tos_bin_heap_is_full
 1367              	.LVL159:
ARM GAS  C:\Users\tianx\AppData\Local\Temp\ccZrGPud.s 			page 37


 215:..//kernel/core/tos_binary_heap.c ****         return K_ERR_BIN_HEAP_FULL;
 1368              		.loc 1 215 8 view .LVU428
 1369 0024 00BB     		cbnz	r0, .L84
 219:..//kernel/core/tos_binary_heap.c **** 
 1370              		.loc 1 219 5 is_stmt 1 view .LVU429
 219:..//kernel/core/tos_binary_heap.c **** 
 1371              		.loc 1 219 5 view .LVU430
 1372 0026 FFF7FEFF 		bl	tos_cpu_cpsr_save
 1373              	.LVL160:
 1374 002a 0646     		mov	r6, r0
 1375              	.LVL161:
 221:..//kernel/core/tos_binary_heap.c ****     bin_heap_percolate_up(bin_heap, item);
 1376              		.loc 1 221 5 view .LVU431
 1377              	.LBB82:
 1378              	.LBI82:
  28:..//kernel/core/tos_binary_heap.c **** {
 1379              		.loc 1 28 24 view .LVU432
 1380              	.LBB83:
  30:..//kernel/core/tos_binary_heap.c **** }
 1381              		.loc 1 30 5 view .LVU433
  30:..//kernel/core/tos_binary_heap.c **** }
 1382              		.loc 1 30 12 is_stmt 0 view .LVU434
 1383 002c 6869     		ldr	r0, [r5, #20]
 1384              	.LVL162:
  30:..//kernel/core/tos_binary_heap.c **** }
 1385              		.loc 1 30 12 view .LVU435
 1386 002e 6F68     		ldr	r7, [r5, #4]
 1387 0030 EB68     		ldr	r3, [r5, #12]
  30:..//kernel/core/tos_binary_heap.c **** }
 1388              		.loc 1 30 5 view .LVU436
 1389 0032 1A46     		mov	r2, r3
 1390 0034 2146     		mov	r1, r4
 1391 0036 03FB0700 		mla	r0, r3, r7, r0
 1392 003a FFF7FEFF 		bl	memcpy
 1393              	.LVL163:
  30:..//kernel/core/tos_binary_heap.c **** }
 1394              		.loc 1 30 5 view .LVU437
 1395              	.LBE83:
 1396              	.LBE82:
 222:..//kernel/core/tos_binary_heap.c ****     bin_heap_item_increase(bin_heap);
 1397              		.loc 1 222 5 is_stmt 1 view .LVU438
 1398 003e 2146     		mov	r1, r4
 1399 0040 2846     		mov	r0, r5
 1400 0042 FFF7FEFF 		bl	bin_heap_percolate_up
 1401              	.LVL164:
 223:..//kernel/core/tos_binary_heap.c **** 
 1402              		.loc 1 223 5 view .LVU439
 1403              	.LBB84:
 1404              	.LBI84:
  33:..//kernel/core/tos_binary_heap.c **** {
 1405              		.loc 1 33 24 view .LVU440
 1406              	.LBB85:
  35:..//kernel/core/tos_binary_heap.c **** }
 1407              		.loc 1 35 5 view .LVU441
  35:..//kernel/core/tos_binary_heap.c **** }
 1408              		.loc 1 35 15 is_stmt 0 view .LVU442
 1409 0046 6B68     		ldr	r3, [r5, #4]
ARM GAS  C:\Users\tianx\AppData\Local\Temp\ccZrGPud.s 			page 38


  35:..//kernel/core/tos_binary_heap.c **** }
 1410              		.loc 1 35 5 view .LVU443
 1411 0048 0133     		adds	r3, r3, #1
 1412 004a 6B60     		str	r3, [r5, #4]
 1413              	.LVL165:
  35:..//kernel/core/tos_binary_heap.c **** }
 1414              		.loc 1 35 5 view .LVU444
 1415              	.LBE85:
 1416              	.LBE84:
 225:..//kernel/core/tos_binary_heap.c ****     return K_ERR_NONE;
 1417              		.loc 1 225 5 is_stmt 1 view .LVU445
 225:..//kernel/core/tos_binary_heap.c ****     return K_ERR_NONE;
 1418              		.loc 1 225 5 view .LVU446
 1419 004c 3046     		mov	r0, r6
 1420 004e FFF7FEFF 		bl	tos_cpu_cpsr_restore
 1421              	.LVL166:
 226:..//kernel/core/tos_binary_heap.c **** }
 1422              		.loc 1 226 5 view .LVU447
 226:..//kernel/core/tos_binary_heap.c **** }
 1423              		.loc 1 226 12 is_stmt 0 view .LVU448
 1424 0052 0020     		movs	r0, #0
 1425 0054 07E0     		b	.L79
 1426              	.LVL167:
 1427              	.L80:
 1428              	.LCFI20:
 1429              		.cfi_def_cfa_offset 0
 1430              		.cfi_restore 3
 1431              		.cfi_restore 4
 1432              		.cfi_restore 5
 1433              		.cfi_restore 6
 1434              		.cfi_restore 7
 1435              		.cfi_restore 14
 207:..//kernel/core/tos_binary_heap.c ****     TOS_PTR_SANITY_CHECK(item);
 1436              		.loc 1 207 5 view .LVU449
 1437 0056 40F24C40 		movw	r0, #1100
 1438              	.LVL168:
 227:..//kernel/core/tos_binary_heap.c **** 
 1439              		.loc 1 227 1 view .LVU450
 1440 005a 7047     		bx	lr
 1441              	.LVL169:
 1442              	.L81:
 1443              	.LCFI21:
 1444              		.cfi_def_cfa_offset 24
 1445              		.cfi_offset 3, -24
 1446              		.cfi_offset 4, -20
 1447              		.cfi_offset 5, -16
 1448              		.cfi_offset 6, -12
 1449              		.cfi_offset 7, -8
 1450              		.cfi_offset 14, -4
 208:..//kernel/core/tos_binary_heap.c ****     TOS_OBJ_VERIFY(bin_heap, KNL_OBJ_TYPE_BINARY_HEAP);
 1451              		.loc 1 208 5 view .LVU451
 1452 005c 40F24C40 		movw	r0, #1100
 1453              	.LVL170:
 208:..//kernel/core/tos_binary_heap.c ****     TOS_OBJ_VERIFY(bin_heap, KNL_OBJ_TYPE_BINARY_HEAP);
 1454              		.loc 1 208 5 view .LVU452
 1455 0060 01E0     		b	.L79
 1456              	.L82:
ARM GAS  C:\Users\tianx\AppData\Local\Temp\ccZrGPud.s 			page 39


 209:..//kernel/core/tos_binary_heap.c **** 
 1457              		.loc 1 209 5 view .LVU453
 1458 0062 40F24D40 		movw	r0, #1101
 1459              	.LVL171:
 1460              	.L79:
 227:..//kernel/core/tos_binary_heap.c **** 
 1461              		.loc 1 227 1 view .LVU454
 1462 0066 F8BD     		pop	{r3, r4, r5, r6, r7, pc}
 1463              	.LVL172:
 1464              	.L84:
 216:..//kernel/core/tos_binary_heap.c ****     }
 1465              		.loc 1 216 16 view .LVU455
 1466 0068 0F20     		movs	r0, #15
 1467 006a FCE7     		b	.L79
 1468              		.cfi_endproc
 1469              	.LFE121:
 1471              		.text
 1472              	.Letext0:
 1473              		.file 3 "..//kernel/core/include/tos_kerr.h"
 1474              		.file 4 "d:\\arm_gcc\\8 2019-q3-update\\arm-none-eabi\\include\\machine\\_default_types.h"
 1475              		.file 5 "d:\\arm_gcc\\8 2019-q3-update\\arm-none-eabi\\include\\sys\\_stdint.h"
 1476              		.file 6 "Drivers/CMSIS/Include/core_cm3.h"
 1477              		.file 7 "Drivers/CMSIS/Device/ST/STM32F1xx/Include/system_stm32f1xx.h"
 1478              		.file 8 "d:\\arm_gcc\\8 2019-q3-update\\lib\\gcc\\arm-none-eabi\\8.3.1\\include\\stddef.h"
 1479              		.file 9 "d:\\arm_gcc\\8 2019-q3-update\\arm-none-eabi\\include\\sys\\_types.h"
 1480              		.file 10 "d:\\arm_gcc\\8 2019-q3-update\\arm-none-eabi\\include\\sys\\reent.h"
 1481              		.file 11 "d:\\arm_gcc\\8 2019-q3-update\\arm-none-eabi\\include\\sys\\lock.h"
 1482              		.file 12 "Drivers/STM32F1xx_HAL_Driver/Inc/stm32f1xx_hal.h"
 1483              		.file 13 "..//arch/arm/arm-v7m/common/include/tos_cpu_types.h"
 1484              		.file 14 "..//kernel/core/include/tos_ktypes.h"
 1485              		.file 15 "..//kernel/core/include/tos_task.h"
 1486              		.file 16 "d:\\arm_gcc\\8 2019-q3-update\\arm-none-eabi\\include\\stdlib.h"
 1487              		.file 17 "..//kernel/core/include/tos_list.h"
 1488              		.file 18 "..//kernel/core/include/tos_pend.h"
 1489              		.file 19 "..//kernel/core/include/tos_binary_heap.h"
 1490              		.file 20 "..//kernel/core/include/tos_timer.h"
 1491              		.file 21 "..//kernel/core/include/tos_mmheap.h"
 1492              		.file 22 "..//kernel/core/include/tos_sched.h"
 1493              		.file 23 "..//kernel/core/include/tos_global.h"
 1494              		.file 24 "..//arch/arm/arm-v7m/common/include/tos_cpu.h"
 1495              		.file 25 "<built-in>"
ARM GAS  C:\Users\tianx\AppData\Local\Temp\ccZrGPud.s 			page 40

