ARM GAS  C:\Users\tianx\AppData\Local\Temp\ccMFmtVU.s 			page 1


   1              		.cpu cortex-m3
   2              		.eabi_attribute 20, 1
   3              		.eabi_attribute 21, 1
   4              		.eabi_attribute 23, 3
   5              		.eabi_attribute 24, 1
   6              		.eabi_attribute 25, 1
   7              		.eabi_attribute 26, 1
   8              		.eabi_attribute 30, 1
   9              		.eabi_attribute 34, 1
  10              		.eabi_attribute 18, 4
  11              		.file	"tos_message_queue.c"
  12              		.text
  13              	.Ltext0:
  14              		.cfi_sections	.debug_frame
  15              		.section	.text.msg_q_task_recv,"ax",%progbits
  16              		.align	1
  17              		.arch armv7-m
  18              		.syntax unified
  19              		.thumb
  20              		.thumb_func
  21              		.fpu softvfp
  23              	msg_q_task_recv:
  24              	.LVL0:
  25              	.LFB116:
  26              		.file 1 "..//kernel/core/tos_message_queue.c"
   1:..//kernel/core/tos_message_queue.c **** /*----------------------------------------------------------------------------
   2:..//kernel/core/tos_message_queue.c ****  * Tencent is pleased to support the open source community by making TencentOS
   3:..//kernel/core/tos_message_queue.c ****  * available.
   4:..//kernel/core/tos_message_queue.c ****  *
   5:..//kernel/core/tos_message_queue.c ****  * Copyright (C) 2019 THL A29 Limited, a Tencent company. All rights reserved.
   6:..//kernel/core/tos_message_queue.c ****  * If you have downloaded a copy of the TencentOS binary from Tencent, please
   7:..//kernel/core/tos_message_queue.c ****  * note that the TencentOS binary is licensed under the BSD 3-Clause License.
   8:..//kernel/core/tos_message_queue.c ****  *
   9:..//kernel/core/tos_message_queue.c ****  * If you have downloaded a copy of the TencentOS source code from Tencent,
  10:..//kernel/core/tos_message_queue.c ****  * please note that TencentOS source code is licensed under the BSD 3-Clause
  11:..//kernel/core/tos_message_queue.c ****  * License, except for the third-party components listed below which are
  12:..//kernel/core/tos_message_queue.c ****  * subject to different license terms. Your integration of TencentOS into your
  13:..//kernel/core/tos_message_queue.c ****  * own projects may require compliance with the BSD 3-Clause License, as well
  14:..//kernel/core/tos_message_queue.c ****  * as the other licenses applicable to the third-party components included
  15:..//kernel/core/tos_message_queue.c ****  * within TencentOS.
  16:..//kernel/core/tos_message_queue.c ****  *---------------------------------------------------------------------------*/
  17:..//kernel/core/tos_message_queue.c **** 
  18:..//kernel/core/tos_message_queue.c **** #include "tos_k.h"
  19:..//kernel/core/tos_message_queue.c **** 
  20:..//kernel/core/tos_message_queue.c **** #if TOS_CFG_MESSAGE_QUEUE_EN > 0u
  21:..//kernel/core/tos_message_queue.c **** 
  22:..//kernel/core/tos_message_queue.c **** __API__ k_err_t tos_msg_q_create(k_msg_q_t *msg_q, void *pool, size_t msg_cnt)
  23:..//kernel/core/tos_message_queue.c **** {
  24:..//kernel/core/tos_message_queue.c ****     k_err_t err;
  25:..//kernel/core/tos_message_queue.c **** 
  26:..//kernel/core/tos_message_queue.c ****     TOS_PTR_SANITY_CHECK(msg_q);
  27:..//kernel/core/tos_message_queue.c ****     TOS_PTR_SANITY_CHECK(pool);
  28:..//kernel/core/tos_message_queue.c **** 
  29:..//kernel/core/tos_message_queue.c ****     err = tos_ring_q_create(&msg_q->ring_q, pool, msg_cnt, sizeof(void *));
  30:..//kernel/core/tos_message_queue.c ****     if (err != K_ERR_NONE) {
  31:..//kernel/core/tos_message_queue.c ****         return err;
  32:..//kernel/core/tos_message_queue.c ****     }
ARM GAS  C:\Users\tianx\AppData\Local\Temp\ccMFmtVU.s 			page 2


  33:..//kernel/core/tos_message_queue.c **** 
  34:..//kernel/core/tos_message_queue.c ****     pend_object_init(&msg_q->pend_obj);
  35:..//kernel/core/tos_message_queue.c **** 
  36:..//kernel/core/tos_message_queue.c ****     TOS_OBJ_INIT(msg_q, KNL_OBJ_TYPE_MESSAGE_QUEUE);
  37:..//kernel/core/tos_message_queue.c ****     knl_object_alloc_set_static(&msg_q->knl_obj);
  38:..//kernel/core/tos_message_queue.c **** 
  39:..//kernel/core/tos_message_queue.c ****     return K_ERR_NONE;
  40:..//kernel/core/tos_message_queue.c **** }
  41:..//kernel/core/tos_message_queue.c **** 
  42:..//kernel/core/tos_message_queue.c **** __API__ k_err_t tos_msg_q_destroy(k_msg_q_t *msg_q)
  43:..//kernel/core/tos_message_queue.c **** {
  44:..//kernel/core/tos_message_queue.c ****     TOS_CPU_CPSR_ALLOC();
  45:..//kernel/core/tos_message_queue.c ****     k_err_t err;
  46:..//kernel/core/tos_message_queue.c **** 
  47:..//kernel/core/tos_message_queue.c ****     TOS_PTR_SANITY_CHECK(msg_q);
  48:..//kernel/core/tos_message_queue.c ****     TOS_OBJ_VERIFY(msg_q, KNL_OBJ_TYPE_MESSAGE_QUEUE);
  49:..//kernel/core/tos_message_queue.c **** 
  50:..//kernel/core/tos_message_queue.c ****     if (!knl_object_alloc_is_static(&msg_q->knl_obj)) {
  51:..//kernel/core/tos_message_queue.c ****         return K_ERR_OBJ_INVALID_ALLOC_TYPE;
  52:..//kernel/core/tos_message_queue.c ****     }
  53:..//kernel/core/tos_message_queue.c **** 
  54:..//kernel/core/tos_message_queue.c ****     TOS_CPU_INT_DISABLE();
  55:..//kernel/core/tos_message_queue.c **** 
  56:..//kernel/core/tos_message_queue.c ****     err = tos_ring_q_destroy(&msg_q->ring_q);
  57:..//kernel/core/tos_message_queue.c ****     if (err != K_ERR_NONE) {
  58:..//kernel/core/tos_message_queue.c ****         TOS_CPU_INT_ENABLE();
  59:..//kernel/core/tos_message_queue.c ****         return err;
  60:..//kernel/core/tos_message_queue.c ****     }
  61:..//kernel/core/tos_message_queue.c **** 
  62:..//kernel/core/tos_message_queue.c ****     pend_wakeup_all(&msg_q->pend_obj, PEND_STATE_DESTROY);
  63:..//kernel/core/tos_message_queue.c **** 
  64:..//kernel/core/tos_message_queue.c ****     pend_object_deinit(&msg_q->pend_obj);
  65:..//kernel/core/tos_message_queue.c **** 
  66:..//kernel/core/tos_message_queue.c ****     TOS_OBJ_DEINIT(msg_q);
  67:..//kernel/core/tos_message_queue.c ****     knl_object_alloc_reset(&msg_q->knl_obj);
  68:..//kernel/core/tos_message_queue.c **** 
  69:..//kernel/core/tos_message_queue.c ****     TOS_CPU_INT_ENABLE();
  70:..//kernel/core/tos_message_queue.c ****     knl_sched();
  71:..//kernel/core/tos_message_queue.c **** 
  72:..//kernel/core/tos_message_queue.c ****     return K_ERR_NONE;
  73:..//kernel/core/tos_message_queue.c **** }
  74:..//kernel/core/tos_message_queue.c **** 
  75:..//kernel/core/tos_message_queue.c **** __API__ k_err_t tos_msg_q_create_dyn(k_msg_q_t *msg_q, size_t msg_cnt)
  76:..//kernel/core/tos_message_queue.c **** {
  77:..//kernel/core/tos_message_queue.c ****     k_err_t err;
  78:..//kernel/core/tos_message_queue.c **** 
  79:..//kernel/core/tos_message_queue.c ****     TOS_PTR_SANITY_CHECK(msg_q);
  80:..//kernel/core/tos_message_queue.c **** 
  81:..//kernel/core/tos_message_queue.c ****     err = tos_ring_q_create_dyn(&msg_q->ring_q, msg_cnt, sizeof(void *));
  82:..//kernel/core/tos_message_queue.c ****     if (err != K_ERR_NONE) {
  83:..//kernel/core/tos_message_queue.c ****         return err;
  84:..//kernel/core/tos_message_queue.c ****     }
  85:..//kernel/core/tos_message_queue.c **** 
  86:..//kernel/core/tos_message_queue.c ****     pend_object_init(&msg_q->pend_obj);
  87:..//kernel/core/tos_message_queue.c **** 
  88:..//kernel/core/tos_message_queue.c ****     TOS_OBJ_INIT(msg_q, KNL_OBJ_TYPE_MESSAGE_QUEUE);
  89:..//kernel/core/tos_message_queue.c ****     knl_object_alloc_set_dynamic(&msg_q->knl_obj);
ARM GAS  C:\Users\tianx\AppData\Local\Temp\ccMFmtVU.s 			page 3


  90:..//kernel/core/tos_message_queue.c **** 
  91:..//kernel/core/tos_message_queue.c ****     return K_ERR_NONE;
  92:..//kernel/core/tos_message_queue.c **** }
  93:..//kernel/core/tos_message_queue.c **** 
  94:..//kernel/core/tos_message_queue.c **** __API__ k_err_t tos_msg_q_destroy_dyn(k_msg_q_t *msg_q)
  95:..//kernel/core/tos_message_queue.c **** {
  96:..//kernel/core/tos_message_queue.c ****     TOS_CPU_CPSR_ALLOC();
  97:..//kernel/core/tos_message_queue.c ****     k_err_t err;
  98:..//kernel/core/tos_message_queue.c **** 
  99:..//kernel/core/tos_message_queue.c ****     TOS_PTR_SANITY_CHECK(msg_q);
 100:..//kernel/core/tos_message_queue.c ****     TOS_OBJ_VERIFY(msg_q, KNL_OBJ_TYPE_MESSAGE_QUEUE);
 101:..//kernel/core/tos_message_queue.c **** 
 102:..//kernel/core/tos_message_queue.c ****     if (!knl_object_alloc_is_dynamic(&msg_q->knl_obj)) {
 103:..//kernel/core/tos_message_queue.c ****         return K_ERR_OBJ_INVALID_ALLOC_TYPE;
 104:..//kernel/core/tos_message_queue.c ****     }
 105:..//kernel/core/tos_message_queue.c **** 
 106:..//kernel/core/tos_message_queue.c ****     TOS_CPU_INT_DISABLE();
 107:..//kernel/core/tos_message_queue.c **** 
 108:..//kernel/core/tos_message_queue.c ****     err = tos_ring_q_destroy_dyn(&msg_q->ring_q);
 109:..//kernel/core/tos_message_queue.c ****     if (err != K_ERR_NONE) {
 110:..//kernel/core/tos_message_queue.c ****         TOS_CPU_INT_ENABLE();
 111:..//kernel/core/tos_message_queue.c ****         return err;
 112:..//kernel/core/tos_message_queue.c ****     }
 113:..//kernel/core/tos_message_queue.c **** 
 114:..//kernel/core/tos_message_queue.c ****     pend_wakeup_all(&msg_q->pend_obj, PEND_STATE_DESTROY);
 115:..//kernel/core/tos_message_queue.c **** 
 116:..//kernel/core/tos_message_queue.c ****     pend_object_deinit(&msg_q->pend_obj);
 117:..//kernel/core/tos_message_queue.c **** 
 118:..//kernel/core/tos_message_queue.c ****     TOS_OBJ_DEINIT(msg_q);
 119:..//kernel/core/tos_message_queue.c ****     knl_object_alloc_reset(&msg_q->knl_obj);
 120:..//kernel/core/tos_message_queue.c **** 
 121:..//kernel/core/tos_message_queue.c ****     TOS_CPU_INT_ENABLE();
 122:..//kernel/core/tos_message_queue.c ****     knl_sched();
 123:..//kernel/core/tos_message_queue.c **** 
 124:..//kernel/core/tos_message_queue.c ****     return K_ERR_NONE;
 125:..//kernel/core/tos_message_queue.c **** }
 126:..//kernel/core/tos_message_queue.c **** 
 127:..//kernel/core/tos_message_queue.c **** __API__ k_err_t tos_msg_q_flush(k_msg_q_t *msg_q)
 128:..//kernel/core/tos_message_queue.c **** {
 129:..//kernel/core/tos_message_queue.c ****     TOS_PTR_SANITY_CHECK(msg_q);
 130:..//kernel/core/tos_message_queue.c ****     TOS_OBJ_VERIFY(msg_q, KNL_OBJ_TYPE_MESSAGE_QUEUE);
 131:..//kernel/core/tos_message_queue.c **** 
 132:..//kernel/core/tos_message_queue.c ****     return tos_ring_q_flush(&msg_q->ring_q);
 133:..//kernel/core/tos_message_queue.c **** }
 134:..//kernel/core/tos_message_queue.c **** 
 135:..//kernel/core/tos_message_queue.c **** __API__ k_err_t tos_msg_q_pend(k_msg_q_t *msg_q, void **msg_ptr, k_tick_t timeout)
 136:..//kernel/core/tos_message_queue.c **** {
 137:..//kernel/core/tos_message_queue.c ****     TOS_CPU_CPSR_ALLOC();
 138:..//kernel/core/tos_message_queue.c ****     k_err_t err;
 139:..//kernel/core/tos_message_queue.c **** 
 140:..//kernel/core/tos_message_queue.c ****     TOS_IN_IRQ_CHECK();
 141:..//kernel/core/tos_message_queue.c ****     TOS_PTR_SANITY_CHECK(msg_q);
 142:..//kernel/core/tos_message_queue.c ****     TOS_PTR_SANITY_CHECK(msg_ptr);
 143:..//kernel/core/tos_message_queue.c ****     TOS_OBJ_VERIFY(msg_q, KNL_OBJ_TYPE_MESSAGE_QUEUE);
 144:..//kernel/core/tos_message_queue.c **** 
 145:..//kernel/core/tos_message_queue.c ****     TOS_CPU_INT_DISABLE();
 146:..//kernel/core/tos_message_queue.c **** 
ARM GAS  C:\Users\tianx\AppData\Local\Temp\ccMFmtVU.s 			page 4


 147:..//kernel/core/tos_message_queue.c ****     if (tos_ring_q_dequeue(&msg_q->ring_q, msg_ptr, K_NULL) == K_ERR_NONE) {
 148:..//kernel/core/tos_message_queue.c ****         TOS_CPU_INT_ENABLE();
 149:..//kernel/core/tos_message_queue.c ****         return K_ERR_NONE;
 150:..//kernel/core/tos_message_queue.c ****     }
 151:..//kernel/core/tos_message_queue.c **** 
 152:..//kernel/core/tos_message_queue.c ****     if (timeout == TOS_TIME_NOWAIT) {
 153:..//kernel/core/tos_message_queue.c ****         *msg_ptr = K_NULL;
 154:..//kernel/core/tos_message_queue.c ****         TOS_CPU_INT_ENABLE();
 155:..//kernel/core/tos_message_queue.c ****         return K_ERR_PEND_NOWAIT;
 156:..//kernel/core/tos_message_queue.c ****     }
 157:..//kernel/core/tos_message_queue.c **** 
 158:..//kernel/core/tos_message_queue.c ****     if (knl_is_sched_locked()) {
 159:..//kernel/core/tos_message_queue.c ****         TOS_CPU_INT_ENABLE();
 160:..//kernel/core/tos_message_queue.c ****         return K_ERR_PEND_SCHED_LOCKED;
 161:..//kernel/core/tos_message_queue.c ****     }
 162:..//kernel/core/tos_message_queue.c **** 
 163:..//kernel/core/tos_message_queue.c ****     pend_task_block(k_curr_task, &msg_q->pend_obj, timeout);
 164:..//kernel/core/tos_message_queue.c **** 
 165:..//kernel/core/tos_message_queue.c ****     TOS_CPU_INT_ENABLE();
 166:..//kernel/core/tos_message_queue.c ****     knl_sched();
 167:..//kernel/core/tos_message_queue.c **** 
 168:..//kernel/core/tos_message_queue.c ****     err = pend_state2errno(k_curr_task->pend_state);
 169:..//kernel/core/tos_message_queue.c ****     if (err == K_ERR_NONE) {
 170:..//kernel/core/tos_message_queue.c ****         *msg_ptr = k_curr_task->msg;
 171:..//kernel/core/tos_message_queue.c ****         k_curr_task->msg = K_NULL;
 172:..//kernel/core/tos_message_queue.c ****     }
 173:..//kernel/core/tos_message_queue.c **** 
 174:..//kernel/core/tos_message_queue.c ****     return err;
 175:..//kernel/core/tos_message_queue.c **** }
 176:..//kernel/core/tos_message_queue.c **** 
 177:..//kernel/core/tos_message_queue.c **** __STATIC__ void msg_q_task_recv(k_task_t *task, void *msg_ptr)
 178:..//kernel/core/tos_message_queue.c **** {
  27              		.loc 1 178 1 view -0
  28              		.cfi_startproc
  29              		@ args = 0, pretend = 0, frame = 0
  30              		@ frame_needed = 0, uses_anonymous_args = 0
  31              		.loc 1 178 1 is_stmt 0 view .LVU1
  32 0000 08B5     		push	{r3, lr}
  33              	.LCFI0:
  34              		.cfi_def_cfa_offset 8
  35              		.cfi_offset 3, -8
  36              		.cfi_offset 14, -4
 179:..//kernel/core/tos_message_queue.c ****     task->msg = msg_ptr;
  37              		.loc 1 179 5 is_stmt 1 view .LVU2
  38              		.loc 1 179 15 is_stmt 0 view .LVU3
  39 0002 C166     		str	r1, [r0, #108]
 180:..//kernel/core/tos_message_queue.c ****     pend_task_wakeup(task, PEND_STATE_POST);
  40              		.loc 1 180 5 is_stmt 1 view .LVU4
  41 0004 0121     		movs	r1, #1
  42              	.LVL1:
  43              		.loc 1 180 5 is_stmt 0 view .LVU5
  44 0006 FFF7FEFF 		bl	pend_task_wakeup
  45              	.LVL2:
 181:..//kernel/core/tos_message_queue.c **** }
  46              		.loc 1 181 1 view .LVU6
  47 000a 08BD     		pop	{r3, pc}
  48              		.cfi_endproc
ARM GAS  C:\Users\tianx\AppData\Local\Temp\ccMFmtVU.s 			page 5


  49              	.LFE116:
  51              		.section	.text.msg_q_do_post,"ax",%progbits
  52              		.align	1
  53              		.syntax unified
  54              		.thumb
  55              		.thumb_func
  56              		.fpu softvfp
  58              	msg_q_do_post:
  59              	.LVL3:
  60              	.LFB117:
 182:..//kernel/core/tos_message_queue.c **** 
 183:..//kernel/core/tos_message_queue.c **** __STATIC__ k_err_t msg_q_do_post(k_msg_q_t *msg_q, void *msg_ptr, opt_post_t opt)
 184:..//kernel/core/tos_message_queue.c **** {
  61              		.loc 1 184 1 is_stmt 1 view -0
  62              		.cfi_startproc
  63              		@ args = 0, pretend = 0, frame = 8
  64              		@ frame_needed = 0, uses_anonymous_args = 0
  65              		.loc 1 184 1 is_stmt 0 view .LVU8
  66 0000 70B5     		push	{r4, r5, r6, lr}
  67              	.LCFI1:
  68              		.cfi_def_cfa_offset 16
  69              		.cfi_offset 4, -16
  70              		.cfi_offset 5, -12
  71              		.cfi_offset 6, -8
  72              		.cfi_offset 14, -4
  73 0002 82B0     		sub	sp, sp, #8
  74              	.LCFI2:
  75              		.cfi_def_cfa_offset 24
  76 0004 0191     		str	r1, [sp, #4]
 185:..//kernel/core/tos_message_queue.c ****     TOS_CPU_CPSR_ALLOC();
  77              		.loc 1 185 5 is_stmt 1 view .LVU9
  78              	.LVL4:
 186:..//kernel/core/tos_message_queue.c ****     k_err_t err;
  79              		.loc 1 186 5 view .LVU10
 187:..//kernel/core/tos_message_queue.c ****     k_task_t *task, *tmp;
  80              		.loc 1 187 5 view .LVU11
 188:..//kernel/core/tos_message_queue.c **** 
 189:..//kernel/core/tos_message_queue.c ****     TOS_PTR_SANITY_CHECK(msg_q);
  81              		.loc 1 189 5 view .LVU12
  82              		.loc 1 189 5 view .LVU13
  83 0006 0028     		cmp	r0, #0
  84 0008 41D0     		beq	.L11
  85 000a 0446     		mov	r4, r0
 190:..//kernel/core/tos_message_queue.c ****     TOS_OBJ_VERIFY(msg_q, KNL_OBJ_TYPE_MESSAGE_QUEUE);
  86              		.loc 1 190 5 view .LVU14
  87              		.loc 1 190 5 view .LVU15
  88              	.LVL5:
  89              	.LBB32:
  90              	.LBI32:
  91              		.file 2 "..//kernel/core/include/tos_sys.h"
   1:..//kernel/core/include/tos_sys.h **** /*----------------------------------------------------------------------------
   2:..//kernel/core/include/tos_sys.h ****  * Tencent is pleased to support the open source community by making TencentOS
   3:..//kernel/core/include/tos_sys.h ****  * available.
   4:..//kernel/core/include/tos_sys.h ****  *
   5:..//kernel/core/include/tos_sys.h ****  * Copyright (C) 2019 THL A29 Limited, a Tencent company. All rights reserved.
   6:..//kernel/core/include/tos_sys.h ****  * If you have downloaded a copy of the TencentOS binary from Tencent, please
   7:..//kernel/core/include/tos_sys.h ****  * note that the TencentOS binary is licensed under the BSD 3-Clause License.
ARM GAS  C:\Users\tianx\AppData\Local\Temp\ccMFmtVU.s 			page 6


   8:..//kernel/core/include/tos_sys.h ****  *
   9:..//kernel/core/include/tos_sys.h ****  * If you have downloaded a copy of the TencentOS source code from Tencent,
  10:..//kernel/core/include/tos_sys.h ****  * please note that TencentOS source code is licensed under the BSD 3-Clause
  11:..//kernel/core/include/tos_sys.h ****  * License, except for the third-party components listed below which are
  12:..//kernel/core/include/tos_sys.h ****  * subject to different license terms. Your integration of TencentOS into your
  13:..//kernel/core/include/tos_sys.h ****  * own projects may require compliance with the BSD 3-Clause License, as well
  14:..//kernel/core/include/tos_sys.h ****  * as the other licenses applicable to the third-party components included
  15:..//kernel/core/include/tos_sys.h ****  * within TencentOS.
  16:..//kernel/core/include/tos_sys.h ****  *---------------------------------------------------------------------------*/
  17:..//kernel/core/include/tos_sys.h **** 
  18:..//kernel/core/include/tos_sys.h **** #ifndef _TOS_SYS_H_
  19:..//kernel/core/include/tos_sys.h **** #define  _TOS_SYS_H_
  20:..//kernel/core/include/tos_sys.h **** 
  21:..//kernel/core/include/tos_sys.h **** __CDECLS_BEGIN
  22:..//kernel/core/include/tos_sys.h **** 
  23:..//kernel/core/include/tos_sys.h **** #define K_NESTING_LIMIT_IRQ             (k_nesting_t)250u
  24:..//kernel/core/include/tos_sys.h **** #define K_NESTING_LIMIT_SCHED_LOCK      (k_nesting_t)250u
  25:..//kernel/core/include/tos_sys.h **** 
  26:..//kernel/core/include/tos_sys.h **** typedef enum knl_state_en {
  27:..//kernel/core/include/tos_sys.h ****     KNL_STATE_STOPPED,
  28:..//kernel/core/include/tos_sys.h ****     KNL_STATE_RUNNING,
  29:..//kernel/core/include/tos_sys.h **** } knl_state_t;
  30:..//kernel/core/include/tos_sys.h **** 
  31:..//kernel/core/include/tos_sys.h **** // some kind of magic number, mainly for identifing whether the object is initialized, or whether u
  32:..//kernel/core/include/tos_sys.h **** typedef enum knl_obj_type_en {
  33:..//kernel/core/include/tos_sys.h ****     KNL_OBJ_TYPE_NONE                           = 0x0000,
  34:..//kernel/core/include/tos_sys.h **** 
  35:..//kernel/core/include/tos_sys.h ****     KNL_OBJ_TYPE_BINARY_HEAP                    = 0xDAD0,
  36:..//kernel/core/include/tos_sys.h ****     KNL_OBJ_TYPE_BITMAP                         = 0xDAD1,
  37:..//kernel/core/include/tos_sys.h ****     KNL_OBJ_TYPE_CHAR_FIFO                      = 0xDAD2,
  38:..//kernel/core/include/tos_sys.h ****     KNL_OBJ_TYPE_MMBLK_POOL                     = 0xDAD3,
  39:..//kernel/core/include/tos_sys.h ****     KNL_OBJ_TYPE_MSG_QUEUE                      = 0xDAD4,
  40:..//kernel/core/include/tos_sys.h ****     KNL_OBJ_TYPE_PRIORITY_QUEUE                 = 0xDAD5,
  41:..//kernel/core/include/tos_sys.h ****     KNL_OBJ_TYPE_RING_QUEUE                     = 0xDAD6,
  42:..//kernel/core/include/tos_sys.h ****     KNL_OBJ_TYPE_STOPWATCH                      = 0xDAD7,
  43:..//kernel/core/include/tos_sys.h ****     KNL_OBJ_TYPE_TASK                           = 0xDAD8,
  44:..//kernel/core/include/tos_sys.h ****     KNL_OBJ_TYPE_TIMER                          = 0xDAD9,
  45:..//kernel/core/include/tos_sys.h **** 
  46:..//kernel/core/include/tos_sys.h ****     // ipc object
  47:..//kernel/core/include/tos_sys.h ****     KNL_OBJ_TYPE_BARRIER                        = 0x0BEE,
  48:..//kernel/core/include/tos_sys.h ****     KNL_OBJ_TYPE_COMPLETION                     = 0x1BEE,
  49:..//kernel/core/include/tos_sys.h ****     KNL_OBJ_TYPE_COUNTDOWNLATCH                 = 0x2BEE,
  50:..//kernel/core/include/tos_sys.h ****     KNL_OBJ_TYPE_EVENT                          = 0x3BEE,
  51:..//kernel/core/include/tos_sys.h ****     KNL_OBJ_TYPE_MAIL_QUEUE                     = 0x4BEE,
  52:..//kernel/core/include/tos_sys.h ****     KNL_OBJ_TYPE_MESSAGE_QUEUE                  = 0x5BEE,
  53:..//kernel/core/include/tos_sys.h ****     KNL_OBJ_TYPE_MUTEX                          = 0x6BEE,
  54:..//kernel/core/include/tos_sys.h ****     KNL_OBJ_TYPE_PRIORITY_MAIL_QUEUE            = 0x7BEE,
  55:..//kernel/core/include/tos_sys.h ****     KNL_OBJ_TYPE_PRIORITY_MESSAGE_QUEUE         = 0x8BEE,
  56:..//kernel/core/include/tos_sys.h ****     KNL_OBJ_TYPE_RWLOCK                         = 0x9BEE,
  57:..//kernel/core/include/tos_sys.h ****     KNL_OBJ_TYPE_SEMAPHORE                      = 0xABEE,
  58:..//kernel/core/include/tos_sys.h **** } knl_obj_type_t;
  59:..//kernel/core/include/tos_sys.h **** 
  60:..//kernel/core/include/tos_sys.h **** typedef enum knl_obj_alloc_type_en {
  61:..//kernel/core/include/tos_sys.h ****     KNL_OBJ_ALLOC_TYPE_NONE,
  62:..//kernel/core/include/tos_sys.h ****     KNL_OBJ_ALLOC_TYPE_STATIC,
  63:..//kernel/core/include/tos_sys.h ****     KNL_OBJ_ALLOC_TYPE_DYNAMIC,
  64:..//kernel/core/include/tos_sys.h **** } knl_obj_alloc_type_t;
ARM GAS  C:\Users\tianx\AppData\Local\Temp\ccMFmtVU.s 			page 7


  65:..//kernel/core/include/tos_sys.h **** 
  66:..//kernel/core/include/tos_sys.h **** typedef struct knl_object_st {
  67:..//kernel/core/include/tos_sys.h ****     knl_obj_alloc_type_t    alloc_type; /* is dynamic allocated(using tos_mmheap) or static memory?
  68:..//kernel/core/include/tos_sys.h **** #if TOS_CFG_OBJECT_VERIFY_EN > 0u
  69:..//kernel/core/include/tos_sys.h ****     knl_obj_type_t          type;
  70:..//kernel/core/include/tos_sys.h **** #endif
  71:..//kernel/core/include/tos_sys.h **** } knl_obj_t;
  72:..//kernel/core/include/tos_sys.h **** 
  73:..//kernel/core/include/tos_sys.h **** /**
  74:..//kernel/core/include/tos_sys.h ****  * @brief Initialize the kernel.
  75:..//kernel/core/include/tos_sys.h ****  * initialize the tos tiny kernel.
  76:..//kernel/core/include/tos_sys.h ****  *
  77:..//kernel/core/include/tos_sys.h ****  * @attention None
  78:..//kernel/core/include/tos_sys.h ****  *
  79:..//kernel/core/include/tos_sys.h ****  * @param   None
  80:..//kernel/core/include/tos_sys.h ****  *
  81:..//kernel/core/include/tos_sys.h ****  * @return  errcode
  82:..//kernel/core/include/tos_sys.h ****  * @retval  Non-#K_ERR_NONE               return failed.
  83:..//kernel/core/include/tos_sys.h ****  * @retval  #K_ERR_NONE                   return successfully.
  84:..//kernel/core/include/tos_sys.h ****  */
  85:..//kernel/core/include/tos_sys.h **** __API__ k_err_t tos_knl_init(void);
  86:..//kernel/core/include/tos_sys.h **** 
  87:..//kernel/core/include/tos_sys.h **** /**
  88:..//kernel/core/include/tos_sys.h ****  * @brief Start the kernel.
  89:..//kernel/core/include/tos_sys.h ****  * get the kernel start to run, which means start the multitask scheduling.
  90:..//kernel/core/include/tos_sys.h ****  *
  91:..//kernel/core/include/tos_sys.h ****  * @attention None
  92:..//kernel/core/include/tos_sys.h ****  *
  93:..//kernel/core/include/tos_sys.h ****  * @param   None
  94:..//kernel/core/include/tos_sys.h ****  *
  95:..//kernel/core/include/tos_sys.h ****  * @return  errcode
  96:..//kernel/core/include/tos_sys.h ****  * @retval  #K_ERR_KNL_RUNNING            the kernel is already running.
  97:..//kernel/core/include/tos_sys.h ****  * @retval  #K_ERR_NONE                   return successfully.
  98:..//kernel/core/include/tos_sys.h ****  */
  99:..//kernel/core/include/tos_sys.h **** __API__ k_err_t tos_knl_start(void);
 100:..//kernel/core/include/tos_sys.h **** 
 101:..//kernel/core/include/tos_sys.h **** /**
 102:..//kernel/core/include/tos_sys.h ****  * @brief Get the kernel state.
 103:..//kernel/core/include/tos_sys.h ****  * whether the kernel is running.
 104:..//kernel/core/include/tos_sys.h ****  *
 105:..//kernel/core/include/tos_sys.h ****  * @attention None
 106:..//kernel/core/include/tos_sys.h ****  *
 107:..//kernel/core/include/tos_sys.h ****  * @param   None
 108:..//kernel/core/include/tos_sys.h ****  *
 109:..//kernel/core/include/tos_sys.h ****  * @return  whether the kernel is running.
 110:..//kernel/core/include/tos_sys.h ****  * @retval  Non-0                           the kernel is running.
 111:..//kernel/core/include/tos_sys.h ****  * @retval  0                               the kernel is not running.
 112:..//kernel/core/include/tos_sys.h ****  */
 113:..//kernel/core/include/tos_sys.h **** __API__ int     tos_knl_is_running(void);
 114:..//kernel/core/include/tos_sys.h **** 
 115:..//kernel/core/include/tos_sys.h **** /**
 116:..//kernel/core/include/tos_sys.h ****  * @brief Kernel enter the interrupt.
 117:..//kernel/core/include/tos_sys.h ****  * this function should be called in the entrance of a interrupt handler.
 118:..//kernel/core/include/tos_sys.h ****  *
 119:..//kernel/core/include/tos_sys.h ****  * @attention None
 120:..//kernel/core/include/tos_sys.h ****  *
 121:..//kernel/core/include/tos_sys.h ****  * @param   None
ARM GAS  C:\Users\tianx\AppData\Local\Temp\ccMFmtVU.s 			page 8


 122:..//kernel/core/include/tos_sys.h ****  *
 123:..//kernel/core/include/tos_sys.h ****  * @return  None
 124:..//kernel/core/include/tos_sys.h ****  */
 125:..//kernel/core/include/tos_sys.h **** __API__ void    tos_knl_irq_enter(void);
 126:..//kernel/core/include/tos_sys.h **** 
 127:..//kernel/core/include/tos_sys.h **** /**
 128:..//kernel/core/include/tos_sys.h ****  * @brief Kernel exit the interrupt.
 129:..//kernel/core/include/tos_sys.h ****  * this function should be called in the exit of a interrupt handler.
 130:..//kernel/core/include/tos_sys.h ****  *
 131:..//kernel/core/include/tos_sys.h ****  * @attention None
 132:..//kernel/core/include/tos_sys.h ****  *
 133:..//kernel/core/include/tos_sys.h ****  * @param   None
 134:..//kernel/core/include/tos_sys.h ****  *
 135:..//kernel/core/include/tos_sys.h ****  * @return  None
 136:..//kernel/core/include/tos_sys.h ****  */
 137:..//kernel/core/include/tos_sys.h **** __API__ void    tos_knl_irq_leave(void);
 138:..//kernel/core/include/tos_sys.h **** 
 139:..//kernel/core/include/tos_sys.h **** /**
 140:..//kernel/core/include/tos_sys.h ****  * @brief Lock the scheduler.
 141:..//kernel/core/include/tos_sys.h ****  * prevent the kernel from performing task schedule.
 142:..//kernel/core/include/tos_sys.h ****  *
 143:..//kernel/core/include/tos_sys.h ****  * @attention None
 144:..//kernel/core/include/tos_sys.h ****  *
 145:..//kernel/core/include/tos_sys.h ****  * @param   None
 146:..//kernel/core/include/tos_sys.h ****  *
 147:..//kernel/core/include/tos_sys.h ****  * @return  errcode
 148:..//kernel/core/include/tos_sys.h ****  * @retval  K_ERR_KNL_NOT_RUNNING         the kernel is not running.
 149:..//kernel/core/include/tos_sys.h ****  * @retval  K_ERR_LOCK_NESTING_OVERFLOW   the schedule lock nesting is overflow.
 150:..//kernel/core/include/tos_sys.h ****  * @retval  K_ERR_NONE                    return successfully.
 151:..//kernel/core/include/tos_sys.h ****  */
 152:..//kernel/core/include/tos_sys.h **** __API__ k_err_t tos_knl_sched_lock(void);
 153:..//kernel/core/include/tos_sys.h **** 
 154:..//kernel/core/include/tos_sys.h **** /**
 155:..//kernel/core/include/tos_sys.h ****  * @brief Unlock the scheduler.
 156:..//kernel/core/include/tos_sys.h ****  * re-enable the task schedule.
 157:..//kernel/core/include/tos_sys.h ****  *
 158:..//kernel/core/include/tos_sys.h ****  * @attention None
 159:..//kernel/core/include/tos_sys.h ****  *
 160:..//kernel/core/include/tos_sys.h ****  * @param   None
 161:..//kernel/core/include/tos_sys.h ****  *
 162:..//kernel/core/include/tos_sys.h ****  * @return  errcode
 163:..//kernel/core/include/tos_sys.h ****  * @retval  K_ERR_KNL_NOT_RUNNING         the kernel is not running.
 164:..//kernel/core/include/tos_sys.h ****  * @retval  K_ERR_SCHED_NOT_LOCKED        the scheduler is not locked.
 165:..//kernel/core/include/tos_sys.h ****  * @retval  K_ERR_NONE                    return successfully.
 166:..//kernel/core/include/tos_sys.h ****  */
 167:..//kernel/core/include/tos_sys.h **** __API__ k_err_t tos_knl_sched_unlock(void);
 168:..//kernel/core/include/tos_sys.h **** 
 169:..//kernel/core/include/tos_sys.h **** #if TOS_CFG_TICKLESS_EN > 0u
 170:..//kernel/core/include/tos_sys.h **** __KNL__ k_tick_t knl_next_expires_get(void);
 171:..//kernel/core/include/tos_sys.h **** #endif
 172:..//kernel/core/include/tos_sys.h **** 
 173:..//kernel/core/include/tos_sys.h **** __KNL__ void    knl_sched(void);
 174:..//kernel/core/include/tos_sys.h **** __KNL__ int     knl_is_sched_locked(void);
 175:..//kernel/core/include/tos_sys.h **** __KNL__ int     knl_is_inirq(void);
 176:..//kernel/core/include/tos_sys.h **** __KNL__ int     knl_is_idle(k_task_t *task);
 177:..//kernel/core/include/tos_sys.h **** __KNL__ int     knl_is_self(k_task_t *task);
 178:..//kernel/core/include/tos_sys.h **** __KNL__ k_err_t knl_idle_init(void);
ARM GAS  C:\Users\tianx\AppData\Local\Temp\ccMFmtVU.s 			page 9


 179:..//kernel/core/include/tos_sys.h **** 
 180:..//kernel/core/include/tos_sys.h **** #if TOS_CFG_OBJECT_VERIFY_EN > 0u
 181:..//kernel/core/include/tos_sys.h **** 
 182:..//kernel/core/include/tos_sys.h **** __KNL__ __STATIC_INLINE__ int knl_object_verify(knl_obj_t *knl_obj, knl_obj_type_t type)
  92              		.loc 2 182 31 view .LVU16
  93              	.LBB33:
 183:..//kernel/core/include/tos_sys.h **** {
 184:..//kernel/core/include/tos_sys.h ****     return knl_obj->type == type;
  94              		.loc 2 184 5 view .LVU17
  95              		.loc 2 184 19 is_stmt 0 view .LVU18
  96 000c 4188     		ldrh	r1, [r0, #2]
  97              	.LVL6:
  98              		.loc 2 184 19 view .LVU19
  99              	.LBE33:
 100              	.LBE32:
 101              		.loc 1 190 5 view .LVU20
 102 000e 45F6EE33 		movw	r3, #23534
 103 0012 9942     		cmp	r1, r3
 104 0014 04D0     		beq	.L14
 105 0016 40F24D44 		movw	r4, #1101
 106              	.LVL7:
 107              	.L4:
 191:..//kernel/core/tos_message_queue.c **** 
 192:..//kernel/core/tos_message_queue.c ****     TOS_CPU_INT_DISABLE();
 193:..//kernel/core/tos_message_queue.c **** 
 194:..//kernel/core/tos_message_queue.c ****     if (pend_is_nopending(&msg_q->pend_obj)) {
 195:..//kernel/core/tos_message_queue.c ****         err = tos_ring_q_enqueue(&msg_q->ring_q, &msg_ptr, sizeof(void*));
 196:..//kernel/core/tos_message_queue.c ****         if (err != K_ERR_NONE) {
 197:..//kernel/core/tos_message_queue.c ****             TOS_CPU_INT_ENABLE();
 198:..//kernel/core/tos_message_queue.c ****             return err;
 199:..//kernel/core/tos_message_queue.c ****         }
 200:..//kernel/core/tos_message_queue.c ****         TOS_CPU_INT_ENABLE();
 201:..//kernel/core/tos_message_queue.c ****         return K_ERR_NONE;
 202:..//kernel/core/tos_message_queue.c ****     }
 203:..//kernel/core/tos_message_queue.c **** 
 204:..//kernel/core/tos_message_queue.c ****     if (opt == OPT_POST_ONE) {
 205:..//kernel/core/tos_message_queue.c ****         msg_q_task_recv(TOS_LIST_FIRST_ENTRY(&msg_q->pend_obj.list, k_task_t, pend_list), msg_ptr);
 206:..//kernel/core/tos_message_queue.c ****     } else { // OPT_POST_ALL
 207:..//kernel/core/tos_message_queue.c ****         TOS_LIST_FOR_EACH_ENTRY_SAFE(task, tmp, k_task_t, pend_list, &msg_q->pend_obj.list) {
 208:..//kernel/core/tos_message_queue.c ****             msg_q_task_recv(task, msg_ptr);
 209:..//kernel/core/tos_message_queue.c ****         }
 210:..//kernel/core/tos_message_queue.c ****     }
 211:..//kernel/core/tos_message_queue.c **** 
 212:..//kernel/core/tos_message_queue.c ****     TOS_CPU_INT_ENABLE();
 213:..//kernel/core/tos_message_queue.c ****     knl_sched();
 214:..//kernel/core/tos_message_queue.c **** 
 215:..//kernel/core/tos_message_queue.c ****     return K_ERR_NONE;
 216:..//kernel/core/tos_message_queue.c **** }
 108              		.loc 1 216 1 view .LVU21
 109 001a 2046     		mov	r0, r4
 110 001c 02B0     		add	sp, sp, #8
 111              	.LCFI3:
 112              		.cfi_remember_state
 113              		.cfi_def_cfa_offset 16
 114              		@ sp needed
 115 001e 70BD     		pop	{r4, r5, r6, pc}
 116              	.LVL8:
ARM GAS  C:\Users\tianx\AppData\Local\Temp\ccMFmtVU.s 			page 10


 117              	.L14:
 118              	.LCFI4:
 119              		.cfi_restore_state
 120              		.loc 1 216 1 view .LVU22
 121 0020 1546     		mov	r5, r2
 192:..//kernel/core/tos_message_queue.c **** 
 122              		.loc 1 192 5 is_stmt 1 view .LVU23
 192:..//kernel/core/tos_message_queue.c **** 
 123              		.loc 1 192 5 view .LVU24
 124 0022 FFF7FEFF 		bl	tos_cpu_cpsr_save
 125              	.LVL9:
 192:..//kernel/core/tos_message_queue.c **** 
 126              		.loc 1 192 5 is_stmt 0 view .LVU25
 127 0026 0646     		mov	r6, r0
 128              	.LVL10:
 194:..//kernel/core/tos_message_queue.c ****         err = tos_ring_q_enqueue(&msg_q->ring_q, &msg_ptr, sizeof(void*));
 129              		.loc 1 194 5 is_stmt 1 view .LVU26
 194:..//kernel/core/tos_message_queue.c ****         err = tos_ring_q_enqueue(&msg_q->ring_q, &msg_ptr, sizeof(void*));
 130              		.loc 1 194 9 is_stmt 0 view .LVU27
 131 0028 201D     		adds	r0, r4, #4
 132              	.LVL11:
 194:..//kernel/core/tos_message_queue.c ****         err = tos_ring_q_enqueue(&msg_q->ring_q, &msg_ptr, sizeof(void*));
 133              		.loc 1 194 9 view .LVU28
 134 002a FFF7FEFF 		bl	pend_is_nopending
 135              	.LVL12:
 194:..//kernel/core/tos_message_queue.c ****         err = tos_ring_q_enqueue(&msg_q->ring_q, &msg_ptr, sizeof(void*));
 136              		.loc 1 194 8 view .LVU29
 137 002e 88B9     		cbnz	r0, .L15
 204:..//kernel/core/tos_message_queue.c ****         msg_q_task_recv(TOS_LIST_FIRST_ENTRY(&msg_q->pend_obj.list, k_task_t, pend_list), msg_ptr);
 138              		.loc 1 204 5 is_stmt 1 view .LVU30
 204:..//kernel/core/tos_message_queue.c ****         msg_q_task_recv(TOS_LIST_FIRST_ENTRY(&msg_q->pend_obj.list, k_task_t, pend_list), msg_ptr);
 139              		.loc 1 204 8 is_stmt 0 view .LVU31
 140 0030 0DB3     		cbz	r5, .L16
 207:..//kernel/core/tos_message_queue.c ****             msg_q_task_recv(task, msg_ptr);
 141              		.loc 1 207 9 is_stmt 1 view .LVU32
 142 0032 6068     		ldr	r0, [r4, #4]
 143              	.LVL13:
 207:..//kernel/core/tos_message_queue.c ****             msg_q_task_recv(task, msg_ptr);
 144              		.loc 1 207 9 is_stmt 0 view .LVU33
 145 0034 50F85059 		ldr	r5, [r0], #-80
 146              	.LVL14:
 207:..//kernel/core/tos_message_queue.c ****             msg_q_task_recv(task, msg_ptr);
 147              		.loc 1 207 9 view .LVU34
 148 0038 503D     		subs	r5, r5, #80
 149              	.LVL15:
 150              	.L9:
 207:..//kernel/core/tos_message_queue.c ****             msg_q_task_recv(task, msg_ptr);
 151              		.loc 1 207 9 discriminator 1 view .LVU35
 152 003a 00F15003 		add	r3, r0, #80
 153 003e 221D     		adds	r2, r4, #4
 154 0040 9342     		cmp	r3, r2
 155 0042 1DD0     		beq	.L8
 208:..//kernel/core/tos_message_queue.c ****         }
 156              		.loc 1 208 13 is_stmt 1 discriminator 3 view .LVU36
 157 0044 0199     		ldr	r1, [sp, #4]
 158 0046 FFF7FEFF 		bl	msg_q_task_recv
 159              	.LVL16:
ARM GAS  C:\Users\tianx\AppData\Local\Temp\ccMFmtVU.s 			page 11


 207:..//kernel/core/tos_message_queue.c ****             msg_q_task_recv(task, msg_ptr);
 160              		.loc 1 207 9 is_stmt 0 discriminator 3 view .LVU37
 161 004a 2B6D     		ldr	r3, [r5, #80]
 162              	.LVL17:
 207:..//kernel/core/tos_message_queue.c ****             msg_q_task_recv(task, msg_ptr);
 163              		.loc 1 207 9 discriminator 3 view .LVU38
 164 004c 2846     		mov	r0, r5
 165 004e A3F15005 		sub	r5, r3, #80
 166              	.LVL18:
 207:..//kernel/core/tos_message_queue.c ****             msg_q_task_recv(task, msg_ptr);
 167              		.loc 1 207 9 discriminator 3 view .LVU39
 168 0052 F2E7     		b	.L9
 169              	.LVL19:
 170              	.L15:
 195:..//kernel/core/tos_message_queue.c ****         if (err != K_ERR_NONE) {
 171              		.loc 1 195 9 is_stmt 1 view .LVU40
 195:..//kernel/core/tos_message_queue.c ****         if (err != K_ERR_NONE) {
 172              		.loc 1 195 15 is_stmt 0 view .LVU41
 173 0054 0422     		movs	r2, #4
 174 0056 0DEB0201 		add	r1, sp, r2
 175 005a 04F10C00 		add	r0, r4, #12
 176 005e FFF7FEFF 		bl	tos_ring_q_enqueue
 177              	.LVL20:
 196:..//kernel/core/tos_message_queue.c ****             TOS_CPU_INT_ENABLE();
 178              		.loc 1 196 9 is_stmt 1 view .LVU42
 196:..//kernel/core/tos_message_queue.c ****             TOS_CPU_INT_ENABLE();
 179              		.loc 1 196 12 is_stmt 0 view .LVU43
 180 0062 0446     		mov	r4, r0
 181              	.LVL21:
 196:..//kernel/core/tos_message_queue.c ****             TOS_CPU_INT_ENABLE();
 182              		.loc 1 196 12 view .LVU44
 183 0064 18B1     		cbz	r0, .L6
 197:..//kernel/core/tos_message_queue.c ****             return err;
 184              		.loc 1 197 13 is_stmt 1 view .LVU45
 197:..//kernel/core/tos_message_queue.c ****             return err;
 185              		.loc 1 197 13 view .LVU46
 186 0066 3046     		mov	r0, r6
 187              	.LVL22:
 197:..//kernel/core/tos_message_queue.c ****             return err;
 188              		.loc 1 197 13 is_stmt 0 view .LVU47
 189 0068 FFF7FEFF 		bl	tos_cpu_cpsr_restore
 190              	.LVL23:
 198:..//kernel/core/tos_message_queue.c ****         }
 191              		.loc 1 198 13 is_stmt 1 view .LVU48
 198:..//kernel/core/tos_message_queue.c ****         }
 192              		.loc 1 198 20 is_stmt 0 view .LVU49
 193 006c D5E7     		b	.L4
 194              	.LVL24:
 195              	.L6:
 200:..//kernel/core/tos_message_queue.c ****         return K_ERR_NONE;
 196              		.loc 1 200 9 is_stmt 1 view .LVU50
 200:..//kernel/core/tos_message_queue.c ****         return K_ERR_NONE;
 197              		.loc 1 200 9 view .LVU51
 198 006e 3046     		mov	r0, r6
 199              	.LVL25:
 200:..//kernel/core/tos_message_queue.c ****         return K_ERR_NONE;
 200              		.loc 1 200 9 is_stmt 0 view .LVU52
ARM GAS  C:\Users\tianx\AppData\Local\Temp\ccMFmtVU.s 			page 12


 201 0070 FFF7FEFF 		bl	tos_cpu_cpsr_restore
 202              	.LVL26:
 201:..//kernel/core/tos_message_queue.c ****     }
 203              		.loc 1 201 9 is_stmt 1 view .LVU53
 201:..//kernel/core/tos_message_queue.c ****     }
 204              		.loc 1 201 16 is_stmt 0 view .LVU54
 205 0074 D1E7     		b	.L4
 206              	.LVL27:
 207              	.L16:
 205:..//kernel/core/tos_message_queue.c ****     } else { // OPT_POST_ALL
 208              		.loc 1 205 9 is_stmt 1 view .LVU55
 205:..//kernel/core/tos_message_queue.c ****     } else { // OPT_POST_ALL
 209              		.loc 1 205 25 is_stmt 0 view .LVU56
 210 0076 6068     		ldr	r0, [r4, #4]
 205:..//kernel/core/tos_message_queue.c ****     } else { // OPT_POST_ALL
 211              		.loc 1 205 9 view .LVU57
 212 0078 0199     		ldr	r1, [sp, #4]
 213 007a 5038     		subs	r0, r0, #80
 214 007c FFF7FEFF 		bl	msg_q_task_recv
 215              	.LVL28:
 216              	.L8:
 212:..//kernel/core/tos_message_queue.c ****     knl_sched();
 217              		.loc 1 212 5 is_stmt 1 view .LVU58
 212:..//kernel/core/tos_message_queue.c ****     knl_sched();
 218              		.loc 1 212 5 view .LVU59
 219 0080 3046     		mov	r0, r6
 220 0082 FFF7FEFF 		bl	tos_cpu_cpsr_restore
 221              	.LVL29:
 213:..//kernel/core/tos_message_queue.c **** 
 222              		.loc 1 213 5 view .LVU60
 223 0086 FFF7FEFF 		bl	knl_sched
 224              	.LVL30:
 215:..//kernel/core/tos_message_queue.c **** }
 225              		.loc 1 215 5 view .LVU61
 215:..//kernel/core/tos_message_queue.c **** }
 226              		.loc 1 215 12 is_stmt 0 view .LVU62
 227 008a 0024     		movs	r4, #0
 228              	.LVL31:
 215:..//kernel/core/tos_message_queue.c **** }
 229              		.loc 1 215 12 view .LVU63
 230 008c C5E7     		b	.L4
 231              	.LVL32:
 232              	.L11:
 189:..//kernel/core/tos_message_queue.c ****     TOS_OBJ_VERIFY(msg_q, KNL_OBJ_TYPE_MESSAGE_QUEUE);
 233              		.loc 1 189 5 view .LVU64
 234 008e 40F24C44 		movw	r4, #1100
 235 0092 C2E7     		b	.L4
 236              		.cfi_endproc
 237              	.LFE117:
 239              		.section	.text.tos_msg_q_create,"ax",%progbits
 240              		.align	1
 241              		.global	tos_msg_q_create
 242              		.syntax unified
 243              		.thumb
 244              		.thumb_func
 245              		.fpu softvfp
 247              	tos_msg_q_create:
ARM GAS  C:\Users\tianx\AppData\Local\Temp\ccMFmtVU.s 			page 13


 248              	.LVL33:
 249              	.LFB110:
  23:..//kernel/core/tos_message_queue.c ****     k_err_t err;
 250              		.loc 1 23 1 is_stmt 1 view -0
 251              		.cfi_startproc
 252              		@ args = 0, pretend = 0, frame = 0
 253              		@ frame_needed = 0, uses_anonymous_args = 0
  23:..//kernel/core/tos_message_queue.c ****     k_err_t err;
 254              		.loc 1 23 1 is_stmt 0 view .LVU66
 255 0000 38B5     		push	{r3, r4, r5, lr}
 256              	.LCFI5:
 257              		.cfi_def_cfa_offset 16
 258              		.cfi_offset 3, -16
 259              		.cfi_offset 4, -12
 260              		.cfi_offset 5, -8
 261              		.cfi_offset 14, -4
  24:..//kernel/core/tos_message_queue.c **** 
 262              		.loc 1 24 5 is_stmt 1 view .LVU67
  26:..//kernel/core/tos_message_queue.c ****     TOS_PTR_SANITY_CHECK(pool);
 263              		.loc 1 26 5 view .LVU68
  26:..//kernel/core/tos_message_queue.c ****     TOS_PTR_SANITY_CHECK(pool);
 264              		.loc 1 26 5 view .LVU69
 265 0002 90B1     		cbz	r0, .L19
 266 0004 0446     		mov	r4, r0
  27:..//kernel/core/tos_message_queue.c **** 
 267              		.loc 1 27 5 view .LVU70
  27:..//kernel/core/tos_message_queue.c **** 
 268              		.loc 1 27 5 view .LVU71
 269 0006 99B1     		cbz	r1, .L20
  29:..//kernel/core/tos_message_queue.c ****     if (err != K_ERR_NONE) {
 270              		.loc 1 29 5 view .LVU72
  29:..//kernel/core/tos_message_queue.c ****     if (err != K_ERR_NONE) {
 271              		.loc 1 29 11 is_stmt 0 view .LVU73
 272 0008 0423     		movs	r3, #4
 273 000a 0C30     		adds	r0, r0, #12
 274              	.LVL34:
  29:..//kernel/core/tos_message_queue.c ****     if (err != K_ERR_NONE) {
 275              		.loc 1 29 11 view .LVU74
 276 000c FFF7FEFF 		bl	tos_ring_q_create
 277              	.LVL35:
  30:..//kernel/core/tos_message_queue.c ****         return err;
 278              		.loc 1 30 5 is_stmt 1 view .LVU75
  30:..//kernel/core/tos_message_queue.c ****         return err;
 279              		.loc 1 30 8 is_stmt 0 view .LVU76
 280 0010 0546     		mov	r5, r0
 281 0012 08B1     		cbz	r0, .L22
 282              	.LVL36:
 283              	.L18:
  40:..//kernel/core/tos_message_queue.c **** 
 284              		.loc 1 40 1 view .LVU77
 285 0014 2846     		mov	r0, r5
 286 0016 38BD     		pop	{r3, r4, r5, pc}
 287              	.LVL37:
 288              	.L22:
  34:..//kernel/core/tos_message_queue.c **** 
 289              		.loc 1 34 5 is_stmt 1 view .LVU78
 290 0018 201D     		adds	r0, r4, #4
ARM GAS  C:\Users\tianx\AppData\Local\Temp\ccMFmtVU.s 			page 14


 291              	.LVL38:
  34:..//kernel/core/tos_message_queue.c **** 
 292              		.loc 1 34 5 is_stmt 0 view .LVU79
 293 001a FFF7FEFF 		bl	pend_object_init
 294              	.LVL39:
  36:..//kernel/core/tos_message_queue.c ****     knl_object_alloc_set_static(&msg_q->knl_obj);
 295              		.loc 1 36 5 is_stmt 1 view .LVU80
 296              	.LBB34:
 297              	.LBI34:
 185:..//kernel/core/include/tos_sys.h **** }
 186:..//kernel/core/include/tos_sys.h **** 
 187:..//kernel/core/include/tos_sys.h **** __KNL__ __STATIC_INLINE__ void knl_object_init(knl_obj_t *knl_obj, knl_obj_type_t type)
 298              		.loc 2 187 32 view .LVU81
 299              	.LBB35:
 188:..//kernel/core/include/tos_sys.h **** {
 189:..//kernel/core/include/tos_sys.h ****     knl_obj->type = type;
 300              		.loc 2 189 5 view .LVU82
 301              		.loc 2 189 19 is_stmt 0 view .LVU83
 302 001e 45F6EE33 		movw	r3, #23534
 303 0022 6380     		strh	r3, [r4, #2]	@ movhi
 304              	.LVL40:
 305              		.loc 2 189 19 view .LVU84
 306              	.LBE35:
 307              	.LBE34:
  37:..//kernel/core/tos_message_queue.c **** 
 308              		.loc 1 37 5 is_stmt 1 view .LVU85
 309              	.LBB36:
 310              	.LBI36:
 190:..//kernel/core/include/tos_sys.h **** }
 191:..//kernel/core/include/tos_sys.h **** 
 192:..//kernel/core/include/tos_sys.h **** __KNL__ __STATIC_INLINE__ void knl_object_deinit(knl_obj_t *knl_obj)
 193:..//kernel/core/include/tos_sys.h **** {
 194:..//kernel/core/include/tos_sys.h ****     knl_obj->type = KNL_OBJ_TYPE_NONE;
 195:..//kernel/core/include/tos_sys.h **** }
 196:..//kernel/core/include/tos_sys.h **** 
 197:..//kernel/core/include/tos_sys.h **** #endif
 198:..//kernel/core/include/tos_sys.h **** 
 199:..//kernel/core/include/tos_sys.h **** __KNL__ __STATIC_INLINE__ void knl_object_alloc_reset(knl_obj_t *knl_obj)
 200:..//kernel/core/include/tos_sys.h **** {
 201:..//kernel/core/include/tos_sys.h ****     knl_obj->alloc_type = KNL_OBJ_ALLOC_TYPE_NONE;
 202:..//kernel/core/include/tos_sys.h **** }
 203:..//kernel/core/include/tos_sys.h **** 
 204:..//kernel/core/include/tos_sys.h **** __KNL__ __STATIC_INLINE__ void knl_object_alloc_set_dynamic(knl_obj_t *knl_obj)
 205:..//kernel/core/include/tos_sys.h **** {
 206:..//kernel/core/include/tos_sys.h ****     knl_obj->alloc_type = KNL_OBJ_ALLOC_TYPE_DYNAMIC;
 207:..//kernel/core/include/tos_sys.h **** }
 208:..//kernel/core/include/tos_sys.h **** 
 209:..//kernel/core/include/tos_sys.h **** __KNL__ __STATIC_INLINE__ void knl_object_alloc_set_static(knl_obj_t *knl_obj)
 311              		.loc 2 209 32 view .LVU86
 312              	.LBB37:
 210:..//kernel/core/include/tos_sys.h **** {
 211:..//kernel/core/include/tos_sys.h ****     knl_obj->alloc_type = KNL_OBJ_ALLOC_TYPE_STATIC;
 313              		.loc 2 211 5 view .LVU87
 314              		.loc 2 211 25 is_stmt 0 view .LVU88
 315 0024 0123     		movs	r3, #1
 316 0026 2370     		strb	r3, [r4]
 317              	.LVL41:
ARM GAS  C:\Users\tianx\AppData\Local\Temp\ccMFmtVU.s 			page 15


 318              		.loc 2 211 25 view .LVU89
 319              	.LBE37:
 320              	.LBE36:
  39:..//kernel/core/tos_message_queue.c **** }
 321              		.loc 1 39 5 is_stmt 1 view .LVU90
  39:..//kernel/core/tos_message_queue.c **** }
 322              		.loc 1 39 12 is_stmt 0 view .LVU91
 323 0028 F4E7     		b	.L18
 324              	.LVL42:
 325              	.L19:
  26:..//kernel/core/tos_message_queue.c ****     TOS_PTR_SANITY_CHECK(pool);
 326              		.loc 1 26 5 view .LVU92
 327 002a 40F24C45 		movw	r5, #1100
 328 002e F1E7     		b	.L18
 329              	.L20:
  27:..//kernel/core/tos_message_queue.c **** 
 330              		.loc 1 27 5 view .LVU93
 331 0030 40F24C45 		movw	r5, #1100
 332 0034 EEE7     		b	.L18
 333              		.cfi_endproc
 334              	.LFE110:
 336              		.section	.text.tos_msg_q_destroy,"ax",%progbits
 337              		.align	1
 338              		.global	tos_msg_q_destroy
 339              		.syntax unified
 340              		.thumb
 341              		.thumb_func
 342              		.fpu softvfp
 344              	tos_msg_q_destroy:
 345              	.LVL43:
 346              	.LFB111:
  43:..//kernel/core/tos_message_queue.c ****     TOS_CPU_CPSR_ALLOC();
 347              		.loc 1 43 1 is_stmt 1 view -0
 348              		.cfi_startproc
 349              		@ args = 0, pretend = 0, frame = 0
 350              		@ frame_needed = 0, uses_anonymous_args = 0
  43:..//kernel/core/tos_message_queue.c ****     TOS_CPU_CPSR_ALLOC();
 351              		.loc 1 43 1 is_stmt 0 view .LVU95
 352 0000 F8B5     		push	{r3, r4, r5, r6, r7, lr}
 353              	.LCFI6:
 354              		.cfi_def_cfa_offset 24
 355              		.cfi_offset 3, -24
 356              		.cfi_offset 4, -20
 357              		.cfi_offset 5, -16
 358              		.cfi_offset 6, -12
 359              		.cfi_offset 7, -8
 360              		.cfi_offset 14, -4
  44:..//kernel/core/tos_message_queue.c ****     k_err_t err;
 361              		.loc 1 44 5 is_stmt 1 view .LVU96
 362              	.LVL44:
  45:..//kernel/core/tos_message_queue.c **** 
 363              		.loc 1 45 5 view .LVU97
  47:..//kernel/core/tos_message_queue.c ****     TOS_OBJ_VERIFY(msg_q, KNL_OBJ_TYPE_MESSAGE_QUEUE);
 364              		.loc 1 47 5 view .LVU98
  47:..//kernel/core/tos_message_queue.c ****     TOS_OBJ_VERIFY(msg_q, KNL_OBJ_TYPE_MESSAGE_QUEUE);
 365              		.loc 1 47 5 view .LVU99
 366 0002 48B3     		cbz	r0, .L26
ARM GAS  C:\Users\tianx\AppData\Local\Temp\ccMFmtVU.s 			page 16


 367 0004 0446     		mov	r4, r0
  48:..//kernel/core/tos_message_queue.c **** 
 368              		.loc 1 48 5 view .LVU100
  48:..//kernel/core/tos_message_queue.c **** 
 369              		.loc 1 48 5 view .LVU101
 370              	.LVL45:
 371              	.LBB38:
 372              	.LBI38:
 182:..//kernel/core/include/tos_sys.h **** {
 373              		.loc 2 182 31 view .LVU102
 374              	.LBB39:
 184:..//kernel/core/include/tos_sys.h **** }
 375              		.loc 2 184 5 view .LVU103
 184:..//kernel/core/include/tos_sys.h **** }
 376              		.loc 2 184 19 is_stmt 0 view .LVU104
 377 0006 4188     		ldrh	r1, [r0, #2]
 378              	.LVL46:
 184:..//kernel/core/include/tos_sys.h **** }
 379              		.loc 2 184 19 view .LVU105
 380              	.LBE39:
 381              	.LBE38:
  48:..//kernel/core/tos_message_queue.c **** 
 382              		.loc 1 48 5 view .LVU106
 383 0008 45F6EE32 		movw	r2, #23534
 384 000c 9142     		cmp	r1, r2
 385 000e 26D1     		bne	.L27
  50:..//kernel/core/tos_message_queue.c ****         return K_ERR_OBJ_INVALID_ALLOC_TYPE;
 386              		.loc 1 50 5 is_stmt 1 view .LVU107
 387              	.LVL47:
 388              	.LBB40:
 389              	.LBI40:
 212:..//kernel/core/include/tos_sys.h **** }
 213:..//kernel/core/include/tos_sys.h **** 
 214:..//kernel/core/include/tos_sys.h **** __KNL__ __STATIC_INLINE__ int knl_object_alloc_is_dynamic(knl_obj_t *knl_obj)
 215:..//kernel/core/include/tos_sys.h **** {
 216:..//kernel/core/include/tos_sys.h ****     return knl_obj->alloc_type == KNL_OBJ_ALLOC_TYPE_DYNAMIC;
 217:..//kernel/core/include/tos_sys.h **** }
 218:..//kernel/core/include/tos_sys.h **** 
 219:..//kernel/core/include/tos_sys.h **** __KNL__ __STATIC_INLINE__ int knl_object_alloc_is_static(knl_obj_t *knl_obj)
 390              		.loc 2 219 31 view .LVU108
 391              	.LBB41:
 220:..//kernel/core/include/tos_sys.h **** {
 221:..//kernel/core/include/tos_sys.h ****     return knl_obj->alloc_type == KNL_OBJ_ALLOC_TYPE_STATIC;
 392              		.loc 2 221 5 view .LVU109
 393              		.loc 2 221 19 is_stmt 0 view .LVU110
 394 0010 0278     		ldrb	r2, [r0]	@ zero_extendqisi2
 395              	.LVL48:
 396              		.loc 2 221 19 view .LVU111
 397              	.LBE41:
 398              	.LBE40:
  50:..//kernel/core/tos_message_queue.c ****         return K_ERR_OBJ_INVALID_ALLOC_TYPE;
 399              		.loc 1 50 8 view .LVU112
 400 0012 012A     		cmp	r2, #1
 401 0014 02D0     		beq	.L30
  51:..//kernel/core/tos_message_queue.c ****     }
 402              		.loc 1 51 16 view .LVU113
 403 0016 40F24E45 		movw	r5, #1102
ARM GAS  C:\Users\tianx\AppData\Local\Temp\ccMFmtVU.s 			page 17


 404 001a 22E0     		b	.L24
 405              	.L30:
  54:..//kernel/core/tos_message_queue.c **** 
 406              		.loc 1 54 5 is_stmt 1 view .LVU114
  54:..//kernel/core/tos_message_queue.c **** 
 407              		.loc 1 54 5 view .LVU115
 408 001c FFF7FEFF 		bl	tos_cpu_cpsr_save
 409              	.LVL49:
  54:..//kernel/core/tos_message_queue.c **** 
 410              		.loc 1 54 5 is_stmt 0 view .LVU116
 411 0020 0646     		mov	r6, r0
 412              	.LVL50:
  56:..//kernel/core/tos_message_queue.c ****     if (err != K_ERR_NONE) {
 413              		.loc 1 56 5 is_stmt 1 view .LVU117
  56:..//kernel/core/tos_message_queue.c ****     if (err != K_ERR_NONE) {
 414              		.loc 1 56 11 is_stmt 0 view .LVU118
 415 0022 04F10C00 		add	r0, r4, #12
 416              	.LVL51:
  56:..//kernel/core/tos_message_queue.c ****     if (err != K_ERR_NONE) {
 417              		.loc 1 56 11 view .LVU119
 418 0026 FFF7FEFF 		bl	tos_ring_q_destroy
 419              	.LVL52:
  57:..//kernel/core/tos_message_queue.c ****         TOS_CPU_INT_ENABLE();
 420              		.loc 1 57 5 is_stmt 1 view .LVU120
  57:..//kernel/core/tos_message_queue.c ****         TOS_CPU_INT_ENABLE();
 421              		.loc 1 57 8 is_stmt 0 view .LVU121
 422 002a 0546     		mov	r5, r0
 423 002c 80B9     		cbnz	r0, .L31
  62:..//kernel/core/tos_message_queue.c **** 
 424              		.loc 1 62 5 is_stmt 1 view .LVU122
 425 002e 271D     		adds	r7, r4, #4
 426 0030 0321     		movs	r1, #3
 427 0032 3846     		mov	r0, r7
 428              	.LVL53:
  62:..//kernel/core/tos_message_queue.c **** 
 429              		.loc 1 62 5 is_stmt 0 view .LVU123
 430 0034 FFF7FEFF 		bl	pend_wakeup_all
 431              	.LVL54:
  64:..//kernel/core/tos_message_queue.c **** 
 432              		.loc 1 64 5 is_stmt 1 view .LVU124
 433 0038 3846     		mov	r0, r7
 434 003a FFF7FEFF 		bl	pend_object_deinit
 435              	.LVL55:
  66:..//kernel/core/tos_message_queue.c ****     knl_object_alloc_reset(&msg_q->knl_obj);
 436              		.loc 1 66 5 view .LVU125
 437              	.LBB42:
 438              	.LBI42:
 192:..//kernel/core/include/tos_sys.h **** {
 439              		.loc 2 192 32 view .LVU126
 440              	.LBB43:
 194:..//kernel/core/include/tos_sys.h **** }
 441              		.loc 2 194 5 view .LVU127
 194:..//kernel/core/include/tos_sys.h **** }
 442              		.loc 2 194 19 is_stmt 0 view .LVU128
 443 003e 0023     		movs	r3, #0
 444 0040 6380     		strh	r3, [r4, #2]	@ movhi
 445              	.LVL56:
ARM GAS  C:\Users\tianx\AppData\Local\Temp\ccMFmtVU.s 			page 18


 194:..//kernel/core/include/tos_sys.h **** }
 446              		.loc 2 194 19 view .LVU129
 447              	.LBE43:
 448              	.LBE42:
  67:..//kernel/core/tos_message_queue.c **** 
 449              		.loc 1 67 5 is_stmt 1 view .LVU130
 450              	.LBB44:
 451              	.LBI44:
 199:..//kernel/core/include/tos_sys.h **** {
 452              		.loc 2 199 32 view .LVU131
 453              	.LBB45:
 201:..//kernel/core/include/tos_sys.h **** }
 454              		.loc 2 201 5 view .LVU132
 201:..//kernel/core/include/tos_sys.h **** }
 455              		.loc 2 201 25 is_stmt 0 view .LVU133
 456 0042 2370     		strb	r3, [r4]
 457              	.LVL57:
 201:..//kernel/core/include/tos_sys.h **** }
 458              		.loc 2 201 25 view .LVU134
 459              	.LBE45:
 460              	.LBE44:
  69:..//kernel/core/tos_message_queue.c ****     knl_sched();
 461              		.loc 1 69 5 is_stmt 1 view .LVU135
  69:..//kernel/core/tos_message_queue.c ****     knl_sched();
 462              		.loc 1 69 5 view .LVU136
 463 0044 3046     		mov	r0, r6
 464 0046 FFF7FEFF 		bl	tos_cpu_cpsr_restore
 465              	.LVL58:
  70:..//kernel/core/tos_message_queue.c **** 
 466              		.loc 1 70 5 view .LVU137
 467 004a FFF7FEFF 		bl	knl_sched
 468              	.LVL59:
  72:..//kernel/core/tos_message_queue.c **** }
 469              		.loc 1 72 5 view .LVU138
  72:..//kernel/core/tos_message_queue.c **** }
 470              		.loc 1 72 12 is_stmt 0 view .LVU139
 471 004e 08E0     		b	.L24
 472              	.LVL60:
 473              	.L31:
  58:..//kernel/core/tos_message_queue.c ****         return err;
 474              		.loc 1 58 9 is_stmt 1 view .LVU140
  58:..//kernel/core/tos_message_queue.c ****         return err;
 475              		.loc 1 58 9 view .LVU141
 476 0050 3046     		mov	r0, r6
 477              	.LVL61:
  58:..//kernel/core/tos_message_queue.c ****         return err;
 478              		.loc 1 58 9 is_stmt 0 view .LVU142
 479 0052 FFF7FEFF 		bl	tos_cpu_cpsr_restore
 480              	.LVL62:
  59:..//kernel/core/tos_message_queue.c ****     }
 481              		.loc 1 59 9 is_stmt 1 view .LVU143
  59:..//kernel/core/tos_message_queue.c ****     }
 482              		.loc 1 59 16 is_stmt 0 view .LVU144
 483 0056 04E0     		b	.L24
 484              	.LVL63:
 485              	.L26:
  47:..//kernel/core/tos_message_queue.c ****     TOS_OBJ_VERIFY(msg_q, KNL_OBJ_TYPE_MESSAGE_QUEUE);
ARM GAS  C:\Users\tianx\AppData\Local\Temp\ccMFmtVU.s 			page 19


 486              		.loc 1 47 5 view .LVU145
 487 0058 40F24C45 		movw	r5, #1100
 488 005c 01E0     		b	.L24
 489              	.L27:
  48:..//kernel/core/tos_message_queue.c **** 
 490              		.loc 1 48 5 view .LVU146
 491 005e 40F24D45 		movw	r5, #1101
 492              	.LVL64:
 493              	.L24:
  73:..//kernel/core/tos_message_queue.c **** 
 494              		.loc 1 73 1 view .LVU147
 495 0062 2846     		mov	r0, r5
 496 0064 F8BD     		pop	{r3, r4, r5, r6, r7, pc}
 497              		.cfi_endproc
 498              	.LFE111:
 500              		.section	.text.tos_msg_q_create_dyn,"ax",%progbits
 501              		.align	1
 502              		.global	tos_msg_q_create_dyn
 503              		.syntax unified
 504              		.thumb
 505              		.thumb_func
 506              		.fpu softvfp
 508              	tos_msg_q_create_dyn:
 509              	.LVL65:
 510              	.LFB112:
  76:..//kernel/core/tos_message_queue.c ****     k_err_t err;
 511              		.loc 1 76 1 is_stmt 1 view -0
 512              		.cfi_startproc
 513              		@ args = 0, pretend = 0, frame = 0
 514              		@ frame_needed = 0, uses_anonymous_args = 0
  76:..//kernel/core/tos_message_queue.c ****     k_err_t err;
 515              		.loc 1 76 1 is_stmt 0 view .LVU149
 516 0000 38B5     		push	{r3, r4, r5, lr}
 517              	.LCFI7:
 518              		.cfi_def_cfa_offset 16
 519              		.cfi_offset 3, -16
 520              		.cfi_offset 4, -12
 521              		.cfi_offset 5, -8
 522              		.cfi_offset 14, -4
  77:..//kernel/core/tos_message_queue.c **** 
 523              		.loc 1 77 5 is_stmt 1 view .LVU150
  79:..//kernel/core/tos_message_queue.c **** 
 524              		.loc 1 79 5 view .LVU151
  79:..//kernel/core/tos_message_queue.c **** 
 525              		.loc 1 79 5 view .LVU152
 526 0002 88B1     		cbz	r0, .L34
 527 0004 0446     		mov	r4, r0
  81:..//kernel/core/tos_message_queue.c ****     if (err != K_ERR_NONE) {
 528              		.loc 1 81 5 view .LVU153
  81:..//kernel/core/tos_message_queue.c ****     if (err != K_ERR_NONE) {
 529              		.loc 1 81 11 is_stmt 0 view .LVU154
 530 0006 0422     		movs	r2, #4
 531 0008 0C30     		adds	r0, r0, #12
 532              	.LVL66:
  81:..//kernel/core/tos_message_queue.c ****     if (err != K_ERR_NONE) {
 533              		.loc 1 81 11 view .LVU155
 534 000a FFF7FEFF 		bl	tos_ring_q_create_dyn
ARM GAS  C:\Users\tianx\AppData\Local\Temp\ccMFmtVU.s 			page 20


 535              	.LVL67:
  82:..//kernel/core/tos_message_queue.c ****         return err;
 536              		.loc 1 82 5 is_stmt 1 view .LVU156
  82:..//kernel/core/tos_message_queue.c ****         return err;
 537              		.loc 1 82 8 is_stmt 0 view .LVU157
 538 000e 0546     		mov	r5, r0
 539 0010 08B1     		cbz	r0, .L36
 540              	.LVL68:
 541              	.L33:
  92:..//kernel/core/tos_message_queue.c **** 
 542              		.loc 1 92 1 view .LVU158
 543 0012 2846     		mov	r0, r5
 544 0014 38BD     		pop	{r3, r4, r5, pc}
 545              	.LVL69:
 546              	.L36:
  86:..//kernel/core/tos_message_queue.c **** 
 547              		.loc 1 86 5 is_stmt 1 view .LVU159
 548 0016 201D     		adds	r0, r4, #4
 549              	.LVL70:
  86:..//kernel/core/tos_message_queue.c **** 
 550              		.loc 1 86 5 is_stmt 0 view .LVU160
 551 0018 FFF7FEFF 		bl	pend_object_init
 552              	.LVL71:
  88:..//kernel/core/tos_message_queue.c ****     knl_object_alloc_set_dynamic(&msg_q->knl_obj);
 553              		.loc 1 88 5 is_stmt 1 view .LVU161
 554              	.LBB46:
 555              	.LBI46:
 187:..//kernel/core/include/tos_sys.h **** {
 556              		.loc 2 187 32 view .LVU162
 557              	.LBB47:
 189:..//kernel/core/include/tos_sys.h **** }
 558              		.loc 2 189 5 view .LVU163
 189:..//kernel/core/include/tos_sys.h **** }
 559              		.loc 2 189 19 is_stmt 0 view .LVU164
 560 001c 45F6EE33 		movw	r3, #23534
 561 0020 6380     		strh	r3, [r4, #2]	@ movhi
 562              	.LVL72:
 189:..//kernel/core/include/tos_sys.h **** }
 563              		.loc 2 189 19 view .LVU165
 564              	.LBE47:
 565              	.LBE46:
  89:..//kernel/core/tos_message_queue.c **** 
 566              		.loc 1 89 5 is_stmt 1 view .LVU166
 567              	.LBB48:
 568              	.LBI48:
 204:..//kernel/core/include/tos_sys.h **** {
 569              		.loc 2 204 32 view .LVU167
 570              	.LBB49:
 206:..//kernel/core/include/tos_sys.h **** }
 571              		.loc 2 206 5 view .LVU168
 206:..//kernel/core/include/tos_sys.h **** }
 572              		.loc 2 206 25 is_stmt 0 view .LVU169
 573 0022 0223     		movs	r3, #2
 574 0024 2370     		strb	r3, [r4]
 575              	.LVL73:
 206:..//kernel/core/include/tos_sys.h **** }
 576              		.loc 2 206 25 view .LVU170
ARM GAS  C:\Users\tianx\AppData\Local\Temp\ccMFmtVU.s 			page 21


 577              	.LBE49:
 578              	.LBE48:
  91:..//kernel/core/tos_message_queue.c **** }
 579              		.loc 1 91 5 is_stmt 1 view .LVU171
  91:..//kernel/core/tos_message_queue.c **** }
 580              		.loc 1 91 12 is_stmt 0 view .LVU172
 581 0026 F4E7     		b	.L33
 582              	.LVL74:
 583              	.L34:
  79:..//kernel/core/tos_message_queue.c **** 
 584              		.loc 1 79 5 view .LVU173
 585 0028 40F24C45 		movw	r5, #1100
 586 002c F1E7     		b	.L33
 587              		.cfi_endproc
 588              	.LFE112:
 590              		.section	.text.tos_msg_q_destroy_dyn,"ax",%progbits
 591              		.align	1
 592              		.global	tos_msg_q_destroy_dyn
 593              		.syntax unified
 594              		.thumb
 595              		.thumb_func
 596              		.fpu softvfp
 598              	tos_msg_q_destroy_dyn:
 599              	.LVL75:
 600              	.LFB113:
  95:..//kernel/core/tos_message_queue.c ****     TOS_CPU_CPSR_ALLOC();
 601              		.loc 1 95 1 is_stmt 1 view -0
 602              		.cfi_startproc
 603              		@ args = 0, pretend = 0, frame = 0
 604              		@ frame_needed = 0, uses_anonymous_args = 0
  95:..//kernel/core/tos_message_queue.c ****     TOS_CPU_CPSR_ALLOC();
 605              		.loc 1 95 1 is_stmt 0 view .LVU175
 606 0000 F8B5     		push	{r3, r4, r5, r6, r7, lr}
 607              	.LCFI8:
 608              		.cfi_def_cfa_offset 24
 609              		.cfi_offset 3, -24
 610              		.cfi_offset 4, -20
 611              		.cfi_offset 5, -16
 612              		.cfi_offset 6, -12
 613              		.cfi_offset 7, -8
 614              		.cfi_offset 14, -4
  96:..//kernel/core/tos_message_queue.c ****     k_err_t err;
 615              		.loc 1 96 5 is_stmt 1 view .LVU176
 616              	.LVL76:
  97:..//kernel/core/tos_message_queue.c **** 
 617              		.loc 1 97 5 view .LVU177
  99:..//kernel/core/tos_message_queue.c ****     TOS_OBJ_VERIFY(msg_q, KNL_OBJ_TYPE_MESSAGE_QUEUE);
 618              		.loc 1 99 5 view .LVU178
  99:..//kernel/core/tos_message_queue.c ****     TOS_OBJ_VERIFY(msg_q, KNL_OBJ_TYPE_MESSAGE_QUEUE);
 619              		.loc 1 99 5 view .LVU179
 620 0002 48B3     		cbz	r0, .L40
 621 0004 0446     		mov	r4, r0
 100:..//kernel/core/tos_message_queue.c **** 
 622              		.loc 1 100 5 view .LVU180
 100:..//kernel/core/tos_message_queue.c **** 
 623              		.loc 1 100 5 view .LVU181
 624              	.LVL77:
ARM GAS  C:\Users\tianx\AppData\Local\Temp\ccMFmtVU.s 			page 22


 625              	.LBB50:
 626              	.LBI50:
 182:..//kernel/core/include/tos_sys.h **** {
 627              		.loc 2 182 31 view .LVU182
 628              	.LBB51:
 184:..//kernel/core/include/tos_sys.h **** }
 629              		.loc 2 184 5 view .LVU183
 184:..//kernel/core/include/tos_sys.h **** }
 630              		.loc 2 184 19 is_stmt 0 view .LVU184
 631 0006 4188     		ldrh	r1, [r0, #2]
 632              	.LVL78:
 184:..//kernel/core/include/tos_sys.h **** }
 633              		.loc 2 184 19 view .LVU185
 634              	.LBE51:
 635              	.LBE50:
 100:..//kernel/core/tos_message_queue.c **** 
 636              		.loc 1 100 5 view .LVU186
 637 0008 45F6EE32 		movw	r2, #23534
 638 000c 9142     		cmp	r1, r2
 639 000e 26D1     		bne	.L41
 102:..//kernel/core/tos_message_queue.c ****         return K_ERR_OBJ_INVALID_ALLOC_TYPE;
 640              		.loc 1 102 5 is_stmt 1 view .LVU187
 641              	.LVL79:
 642              	.LBB52:
 643              	.LBI52:
 214:..//kernel/core/include/tos_sys.h **** {
 644              		.loc 2 214 31 view .LVU188
 645              	.LBB53:
 216:..//kernel/core/include/tos_sys.h **** }
 646              		.loc 2 216 5 view .LVU189
 216:..//kernel/core/include/tos_sys.h **** }
 647              		.loc 2 216 19 is_stmt 0 view .LVU190
 648 0010 0278     		ldrb	r2, [r0]	@ zero_extendqisi2
 649              	.LVL80:
 216:..//kernel/core/include/tos_sys.h **** }
 650              		.loc 2 216 19 view .LVU191
 651              	.LBE53:
 652              	.LBE52:
 102:..//kernel/core/tos_message_queue.c ****         return K_ERR_OBJ_INVALID_ALLOC_TYPE;
 653              		.loc 1 102 8 view .LVU192
 654 0012 022A     		cmp	r2, #2
 655 0014 02D0     		beq	.L44
 103:..//kernel/core/tos_message_queue.c ****     }
 656              		.loc 1 103 16 view .LVU193
 657 0016 40F24E45 		movw	r5, #1102
 658 001a 22E0     		b	.L38
 659              	.L44:
 106:..//kernel/core/tos_message_queue.c **** 
 660              		.loc 1 106 5 is_stmt 1 view .LVU194
 106:..//kernel/core/tos_message_queue.c **** 
 661              		.loc 1 106 5 view .LVU195
 662 001c FFF7FEFF 		bl	tos_cpu_cpsr_save
 663              	.LVL81:
 106:..//kernel/core/tos_message_queue.c **** 
 664              		.loc 1 106 5 is_stmt 0 view .LVU196
 665 0020 0646     		mov	r6, r0
 666              	.LVL82:
ARM GAS  C:\Users\tianx\AppData\Local\Temp\ccMFmtVU.s 			page 23


 108:..//kernel/core/tos_message_queue.c ****     if (err != K_ERR_NONE) {
 667              		.loc 1 108 5 is_stmt 1 view .LVU197
 108:..//kernel/core/tos_message_queue.c ****     if (err != K_ERR_NONE) {
 668              		.loc 1 108 11 is_stmt 0 view .LVU198
 669 0022 04F10C00 		add	r0, r4, #12
 670              	.LVL83:
 108:..//kernel/core/tos_message_queue.c ****     if (err != K_ERR_NONE) {
 671              		.loc 1 108 11 view .LVU199
 672 0026 FFF7FEFF 		bl	tos_ring_q_destroy_dyn
 673              	.LVL84:
 109:..//kernel/core/tos_message_queue.c ****         TOS_CPU_INT_ENABLE();
 674              		.loc 1 109 5 is_stmt 1 view .LVU200
 109:..//kernel/core/tos_message_queue.c ****         TOS_CPU_INT_ENABLE();
 675              		.loc 1 109 8 is_stmt 0 view .LVU201
 676 002a 0546     		mov	r5, r0
 677 002c 80B9     		cbnz	r0, .L45
 114:..//kernel/core/tos_message_queue.c **** 
 678              		.loc 1 114 5 is_stmt 1 view .LVU202
 679 002e 271D     		adds	r7, r4, #4
 680 0030 0321     		movs	r1, #3
 681 0032 3846     		mov	r0, r7
 682              	.LVL85:
 114:..//kernel/core/tos_message_queue.c **** 
 683              		.loc 1 114 5 is_stmt 0 view .LVU203
 684 0034 FFF7FEFF 		bl	pend_wakeup_all
 685              	.LVL86:
 116:..//kernel/core/tos_message_queue.c **** 
 686              		.loc 1 116 5 is_stmt 1 view .LVU204
 687 0038 3846     		mov	r0, r7
 688 003a FFF7FEFF 		bl	pend_object_deinit
 689              	.LVL87:
 118:..//kernel/core/tos_message_queue.c ****     knl_object_alloc_reset(&msg_q->knl_obj);
 690              		.loc 1 118 5 view .LVU205
 691              	.LBB54:
 692              	.LBI54:
 192:..//kernel/core/include/tos_sys.h **** {
 693              		.loc 2 192 32 view .LVU206
 694              	.LBB55:
 194:..//kernel/core/include/tos_sys.h **** }
 695              		.loc 2 194 5 view .LVU207
 194:..//kernel/core/include/tos_sys.h **** }
 696              		.loc 2 194 19 is_stmt 0 view .LVU208
 697 003e 0023     		movs	r3, #0
 698 0040 6380     		strh	r3, [r4, #2]	@ movhi
 699              	.LVL88:
 194:..//kernel/core/include/tos_sys.h **** }
 700              		.loc 2 194 19 view .LVU209
 701              	.LBE55:
 702              	.LBE54:
 119:..//kernel/core/tos_message_queue.c **** 
 703              		.loc 1 119 5 is_stmt 1 view .LVU210
 704              	.LBB56:
 705              	.LBI56:
 199:..//kernel/core/include/tos_sys.h **** {
 706              		.loc 2 199 32 view .LVU211
 707              	.LBB57:
 201:..//kernel/core/include/tos_sys.h **** }
ARM GAS  C:\Users\tianx\AppData\Local\Temp\ccMFmtVU.s 			page 24


 708              		.loc 2 201 5 view .LVU212
 201:..//kernel/core/include/tos_sys.h **** }
 709              		.loc 2 201 25 is_stmt 0 view .LVU213
 710 0042 2370     		strb	r3, [r4]
 711              	.LVL89:
 201:..//kernel/core/include/tos_sys.h **** }
 712              		.loc 2 201 25 view .LVU214
 713              	.LBE57:
 714              	.LBE56:
 121:..//kernel/core/tos_message_queue.c ****     knl_sched();
 715              		.loc 1 121 5 is_stmt 1 view .LVU215
 121:..//kernel/core/tos_message_queue.c ****     knl_sched();
 716              		.loc 1 121 5 view .LVU216
 717 0044 3046     		mov	r0, r6
 718 0046 FFF7FEFF 		bl	tos_cpu_cpsr_restore
 719              	.LVL90:
 122:..//kernel/core/tos_message_queue.c **** 
 720              		.loc 1 122 5 view .LVU217
 721 004a FFF7FEFF 		bl	knl_sched
 722              	.LVL91:
 124:..//kernel/core/tos_message_queue.c **** }
 723              		.loc 1 124 5 view .LVU218
 124:..//kernel/core/tos_message_queue.c **** }
 724              		.loc 1 124 12 is_stmt 0 view .LVU219
 725 004e 08E0     		b	.L38
 726              	.LVL92:
 727              	.L45:
 110:..//kernel/core/tos_message_queue.c ****         return err;
 728              		.loc 1 110 9 is_stmt 1 view .LVU220
 110:..//kernel/core/tos_message_queue.c ****         return err;
 729              		.loc 1 110 9 view .LVU221
 730 0050 3046     		mov	r0, r6
 731              	.LVL93:
 110:..//kernel/core/tos_message_queue.c ****         return err;
 732              		.loc 1 110 9 is_stmt 0 view .LVU222
 733 0052 FFF7FEFF 		bl	tos_cpu_cpsr_restore
 734              	.LVL94:
 111:..//kernel/core/tos_message_queue.c ****     }
 735              		.loc 1 111 9 is_stmt 1 view .LVU223
 111:..//kernel/core/tos_message_queue.c ****     }
 736              		.loc 1 111 16 is_stmt 0 view .LVU224
 737 0056 04E0     		b	.L38
 738              	.LVL95:
 739              	.L40:
  99:..//kernel/core/tos_message_queue.c ****     TOS_OBJ_VERIFY(msg_q, KNL_OBJ_TYPE_MESSAGE_QUEUE);
 740              		.loc 1 99 5 view .LVU225
 741 0058 40F24C45 		movw	r5, #1100
 742 005c 01E0     		b	.L38
 743              	.L41:
 100:..//kernel/core/tos_message_queue.c **** 
 744              		.loc 1 100 5 view .LVU226
 745 005e 40F24D45 		movw	r5, #1101
 746              	.LVL96:
 747              	.L38:
 125:..//kernel/core/tos_message_queue.c **** 
 748              		.loc 1 125 1 view .LVU227
 749 0062 2846     		mov	r0, r5
ARM GAS  C:\Users\tianx\AppData\Local\Temp\ccMFmtVU.s 			page 25


 750 0064 F8BD     		pop	{r3, r4, r5, r6, r7, pc}
 751              		.cfi_endproc
 752              	.LFE113:
 754              		.section	.text.tos_msg_q_flush,"ax",%progbits
 755              		.align	1
 756              		.global	tos_msg_q_flush
 757              		.syntax unified
 758              		.thumb
 759              		.thumb_func
 760              		.fpu softvfp
 762              	tos_msg_q_flush:
 763              	.LVL97:
 764              	.LFB114:
 128:..//kernel/core/tos_message_queue.c ****     TOS_PTR_SANITY_CHECK(msg_q);
 765              		.loc 1 128 1 is_stmt 1 view -0
 766              		.cfi_startproc
 767              		@ args = 0, pretend = 0, frame = 0
 768              		@ frame_needed = 0, uses_anonymous_args = 0
 129:..//kernel/core/tos_message_queue.c ****     TOS_OBJ_VERIFY(msg_q, KNL_OBJ_TYPE_MESSAGE_QUEUE);
 769              		.loc 1 129 5 view .LVU229
 129:..//kernel/core/tos_message_queue.c ****     TOS_OBJ_VERIFY(msg_q, KNL_OBJ_TYPE_MESSAGE_QUEUE);
 770              		.loc 1 129 5 view .LVU230
 771 0000 60B1     		cbz	r0, .L48
 128:..//kernel/core/tos_message_queue.c ****     TOS_PTR_SANITY_CHECK(msg_q);
 772              		.loc 1 128 1 is_stmt 0 view .LVU231
 773 0002 08B5     		push	{r3, lr}
 774              	.LCFI9:
 775              		.cfi_def_cfa_offset 8
 776              		.cfi_offset 3, -8
 777              		.cfi_offset 14, -4
 130:..//kernel/core/tos_message_queue.c **** 
 778              		.loc 1 130 5 is_stmt 1 view .LVU232
 130:..//kernel/core/tos_message_queue.c **** 
 779              		.loc 1 130 5 view .LVU233
 780              	.LVL98:
 781              	.LBB58:
 782              	.LBI58:
 182:..//kernel/core/include/tos_sys.h **** {
 783              		.loc 2 182 31 view .LVU234
 784              	.LBB59:
 184:..//kernel/core/include/tos_sys.h **** }
 785              		.loc 2 184 5 view .LVU235
 184:..//kernel/core/include/tos_sys.h **** }
 786              		.loc 2 184 19 is_stmt 0 view .LVU236
 787 0004 4188     		ldrh	r1, [r0, #2]
 788              	.LVL99:
 184:..//kernel/core/include/tos_sys.h **** }
 789              		.loc 2 184 19 view .LVU237
 790              	.LBE59:
 791              	.LBE58:
 130:..//kernel/core/tos_message_queue.c **** 
 792              		.loc 1 130 5 view .LVU238
 793 0006 45F6EE32 		movw	r2, #23534
 794 000a 9142     		cmp	r1, r2
 795 000c 02D0     		beq	.L54
 796 000e 40F24D40 		movw	r0, #1101
 797              	.LVL100:
ARM GAS  C:\Users\tianx\AppData\Local\Temp\ccMFmtVU.s 			page 26


 798              	.L47:
 133:..//kernel/core/tos_message_queue.c **** 
 799              		.loc 1 133 1 view .LVU239
 800 0012 08BD     		pop	{r3, pc}
 801              	.LVL101:
 802              	.L54:
 132:..//kernel/core/tos_message_queue.c **** }
 803              		.loc 1 132 5 is_stmt 1 view .LVU240
 132:..//kernel/core/tos_message_queue.c **** }
 804              		.loc 1 132 12 is_stmt 0 view .LVU241
 805 0014 0C30     		adds	r0, r0, #12
 806              	.LVL102:
 132:..//kernel/core/tos_message_queue.c **** }
 807              		.loc 1 132 12 view .LVU242
 808 0016 FFF7FEFF 		bl	tos_ring_q_flush
 809              	.LVL103:
 132:..//kernel/core/tos_message_queue.c **** }
 810              		.loc 1 132 12 view .LVU243
 811 001a FAE7     		b	.L47
 812              	.LVL104:
 813              	.L48:
 814              	.LCFI10:
 815              		.cfi_def_cfa_offset 0
 816              		.cfi_restore 3
 817              		.cfi_restore 14
 129:..//kernel/core/tos_message_queue.c ****     TOS_OBJ_VERIFY(msg_q, KNL_OBJ_TYPE_MESSAGE_QUEUE);
 818              		.loc 1 129 5 view .LVU244
 819 001c 40F24C40 		movw	r0, #1100
 820              	.LVL105:
 133:..//kernel/core/tos_message_queue.c **** 
 821              		.loc 1 133 1 view .LVU245
 822 0020 7047     		bx	lr
 823              		.cfi_endproc
 824              	.LFE114:
 826              		.section	.text.tos_msg_q_pend,"ax",%progbits
 827              		.align	1
 828              		.global	tos_msg_q_pend
 829              		.syntax unified
 830              		.thumb
 831              		.thumb_func
 832              		.fpu softvfp
 834              	tos_msg_q_pend:
 835              	.LVL106:
 836              	.LFB115:
 136:..//kernel/core/tos_message_queue.c ****     TOS_CPU_CPSR_ALLOC();
 837              		.loc 1 136 1 is_stmt 1 view -0
 838              		.cfi_startproc
 839              		@ args = 0, pretend = 0, frame = 0
 840              		@ frame_needed = 0, uses_anonymous_args = 0
 136:..//kernel/core/tos_message_queue.c ****     TOS_CPU_CPSR_ALLOC();
 841              		.loc 1 136 1 is_stmt 0 view .LVU247
 842 0000 2DE9F843 		push	{r3, r4, r5, r6, r7, r8, r9, lr}
 843              	.LCFI11:
 844              		.cfi_def_cfa_offset 32
 845              		.cfi_offset 3, -32
 846              		.cfi_offset 4, -28
 847              		.cfi_offset 5, -24
ARM GAS  C:\Users\tianx\AppData\Local\Temp\ccMFmtVU.s 			page 27


 848              		.cfi_offset 6, -20
 849              		.cfi_offset 7, -16
 850              		.cfi_offset 8, -12
 851              		.cfi_offset 9, -8
 852              		.cfi_offset 14, -4
 853 0004 0446     		mov	r4, r0
 854 0006 0D46     		mov	r5, r1
 855 0008 9046     		mov	r8, r2
 856 000a 9946     		mov	r9, r3
 137:..//kernel/core/tos_message_queue.c ****     k_err_t err;
 857              		.loc 1 137 5 is_stmt 1 view .LVU248
 858              	.LVL107:
 138:..//kernel/core/tos_message_queue.c **** 
 859              		.loc 1 138 5 view .LVU249
 140:..//kernel/core/tos_message_queue.c ****     TOS_PTR_SANITY_CHECK(msg_q);
 860              		.loc 1 140 5 view .LVU250
 140:..//kernel/core/tos_message_queue.c ****     TOS_PTR_SANITY_CHECK(msg_q);
 861              		.loc 1 140 5 view .LVU251
 862 000c FFF7FEFF 		bl	knl_is_inirq
 863              	.LVL108:
 140:..//kernel/core/tos_message_queue.c ****     TOS_PTR_SANITY_CHECK(msg_q);
 864              		.loc 1 140 5 is_stmt 0 view .LVU252
 865 0010 0028     		cmp	r0, #0
 866 0012 4CD1     		bne	.L60
 141:..//kernel/core/tos_message_queue.c ****     TOS_PTR_SANITY_CHECK(msg_ptr);
 867              		.loc 1 141 5 is_stmt 1 view .LVU253
 141:..//kernel/core/tos_message_queue.c ****     TOS_PTR_SANITY_CHECK(msg_ptr);
 868              		.loc 1 141 5 view .LVU254
 869 0014 002C     		cmp	r4, #0
 870 0016 4DD0     		beq	.L61
 142:..//kernel/core/tos_message_queue.c ****     TOS_OBJ_VERIFY(msg_q, KNL_OBJ_TYPE_MESSAGE_QUEUE);
 871              		.loc 1 142 5 view .LVU255
 142:..//kernel/core/tos_message_queue.c ****     TOS_OBJ_VERIFY(msg_q, KNL_OBJ_TYPE_MESSAGE_QUEUE);
 872              		.loc 1 142 5 view .LVU256
 873 0018 002D     		cmp	r5, #0
 874 001a 4ED0     		beq	.L62
 143:..//kernel/core/tos_message_queue.c **** 
 875              		.loc 1 143 5 view .LVU257
 143:..//kernel/core/tos_message_queue.c **** 
 876              		.loc 1 143 5 view .LVU258
 877              	.LVL109:
 878              	.LBB60:
 879              	.LBI60:
 182:..//kernel/core/include/tos_sys.h **** {
 880              		.loc 2 182 31 view .LVU259
 881              	.LBB61:
 184:..//kernel/core/include/tos_sys.h **** }
 882              		.loc 2 184 5 view .LVU260
 184:..//kernel/core/include/tos_sys.h **** }
 883              		.loc 2 184 19 is_stmt 0 view .LVU261
 884 001c 6288     		ldrh	r2, [r4, #2]
 885              	.LVL110:
 184:..//kernel/core/include/tos_sys.h **** }
 886              		.loc 2 184 19 view .LVU262
 887              	.LBE61:
 888              	.LBE60:
 143:..//kernel/core/tos_message_queue.c **** 
ARM GAS  C:\Users\tianx\AppData\Local\Temp\ccMFmtVU.s 			page 28


 889              		.loc 1 143 5 view .LVU263
 890 001e 45F6EE33 		movw	r3, #23534
 891 0022 9A42     		cmp	r2, r3
 892 0024 04D0     		beq	.L65
 893 0026 40F24D46 		movw	r6, #1101
 894              	.LVL111:
 895              	.L56:
 175:..//kernel/core/tos_message_queue.c **** 
 896              		.loc 1 175 1 view .LVU264
 897 002a 3046     		mov	r0, r6
 898 002c BDE8F883 		pop	{r3, r4, r5, r6, r7, r8, r9, pc}
 899              	.LVL112:
 900              	.L65:
 145:..//kernel/core/tos_message_queue.c **** 
 901              		.loc 1 145 5 is_stmt 1 view .LVU265
 145:..//kernel/core/tos_message_queue.c **** 
 902              		.loc 1 145 5 view .LVU266
 903 0030 FFF7FEFF 		bl	tos_cpu_cpsr_save
 904              	.LVL113:
 905 0034 0746     		mov	r7, r0
 906              	.LVL114:
 147:..//kernel/core/tos_message_queue.c ****         TOS_CPU_INT_ENABLE();
 907              		.loc 1 147 5 view .LVU267
 147:..//kernel/core/tos_message_queue.c ****         TOS_CPU_INT_ENABLE();
 908              		.loc 1 147 9 is_stmt 0 view .LVU268
 909 0036 0022     		movs	r2, #0
 910 0038 2946     		mov	r1, r5
 911 003a 04F10C00 		add	r0, r4, #12
 912              	.LVL115:
 147:..//kernel/core/tos_message_queue.c ****         TOS_CPU_INT_ENABLE();
 913              		.loc 1 147 9 view .LVU269
 914 003e FFF7FEFF 		bl	tos_ring_q_dequeue
 915              	.LVL116:
 147:..//kernel/core/tos_message_queue.c ****         TOS_CPU_INT_ENABLE();
 916              		.loc 1 147 8 view .LVU270
 917 0042 0646     		mov	r6, r0
 918 0044 08B3     		cbz	r0, .L66
 152:..//kernel/core/tos_message_queue.c ****         *msg_ptr = K_NULL;
 919              		.loc 1 152 5 is_stmt 1 view .LVU271
 152:..//kernel/core/tos_message_queue.c ****         *msg_ptr = K_NULL;
 920              		.loc 1 152 8 is_stmt 0 view .LVU272
 921 0046 58EA0903 		orrs	r3, r8, r9
 922 004a 22D0     		beq	.L67
 158:..//kernel/core/tos_message_queue.c ****         TOS_CPU_INT_ENABLE();
 923              		.loc 1 158 5 is_stmt 1 view .LVU273
 158:..//kernel/core/tos_message_queue.c ****         TOS_CPU_INT_ENABLE();
 924              		.loc 1 158 9 is_stmt 0 view .LVU274
 925 004c FFF7FEFF 		bl	knl_is_sched_locked
 926              	.LVL117:
 158:..//kernel/core/tos_message_queue.c ****         TOS_CPU_INT_ENABLE();
 927              		.loc 1 158 8 view .LVU275
 928 0050 38BB     		cbnz	r0, .L68
 163:..//kernel/core/tos_message_queue.c **** 
 929              		.loc 1 163 5 is_stmt 1 view .LVU276
 930 0052 1B4E     		ldr	r6, .L69
 931 0054 4246     		mov	r2, r8
 932 0056 4B46     		mov	r3, r9
ARM GAS  C:\Users\tianx\AppData\Local\Temp\ccMFmtVU.s 			page 29


 933 0058 211D     		adds	r1, r4, #4
 934 005a 3068     		ldr	r0, [r6]
 935 005c FFF7FEFF 		bl	pend_task_block
 936              	.LVL118:
 165:..//kernel/core/tos_message_queue.c ****     knl_sched();
 937              		.loc 1 165 5 view .LVU277
 165:..//kernel/core/tos_message_queue.c ****     knl_sched();
 938              		.loc 1 165 5 view .LVU278
 939 0060 3846     		mov	r0, r7
 940 0062 FFF7FEFF 		bl	tos_cpu_cpsr_restore
 941              	.LVL119:
 166:..//kernel/core/tos_message_queue.c **** 
 942              		.loc 1 166 5 view .LVU279
 943 0066 FFF7FEFF 		bl	knl_sched
 944              	.LVL120:
 168:..//kernel/core/tos_message_queue.c ****     if (err == K_ERR_NONE) {
 945              		.loc 1 168 5 view .LVU280
 168:..//kernel/core/tos_message_queue.c ****     if (err == K_ERR_NONE) {
 946              		.loc 1 168 39 is_stmt 0 view .LVU281
 947 006a 3368     		ldr	r3, [r6]
 168:..//kernel/core/tos_message_queue.c ****     if (err == K_ERR_NONE) {
 948              		.loc 1 168 11 view .LVU282
 949 006c 93F86800 		ldrb	r0, [r3, #104]	@ zero_extendqisi2
 950 0070 FFF7FEFF 		bl	pend_state2errno
 951              	.LVL121:
 169:..//kernel/core/tos_message_queue.c ****         *msg_ptr = k_curr_task->msg;
 952              		.loc 1 169 5 is_stmt 1 view .LVU283
 169:..//kernel/core/tos_message_queue.c ****         *msg_ptr = k_curr_task->msg;
 953              		.loc 1 169 8 is_stmt 0 view .LVU284
 954 0074 0646     		mov	r6, r0
 955 0076 0028     		cmp	r0, #0
 956 0078 D7D1     		bne	.L56
 170:..//kernel/core/tos_message_queue.c ****         k_curr_task->msg = K_NULL;
 957              		.loc 1 170 9 is_stmt 1 view .LVU285
 170:..//kernel/core/tos_message_queue.c ****         k_curr_task->msg = K_NULL;
 958              		.loc 1 170 31 is_stmt 0 view .LVU286
 959 007a 114B     		ldr	r3, .L69
 960 007c 1A68     		ldr	r2, [r3]
 961 007e D26E     		ldr	r2, [r2, #108]
 170:..//kernel/core/tos_message_queue.c ****         k_curr_task->msg = K_NULL;
 962              		.loc 1 170 18 view .LVU287
 963 0080 2A60     		str	r2, [r5]
 171:..//kernel/core/tos_message_queue.c ****     }
 964              		.loc 1 171 9 is_stmt 1 view .LVU288
 171:..//kernel/core/tos_message_queue.c ****     }
 965              		.loc 1 171 20 is_stmt 0 view .LVU289
 966 0082 1B68     		ldr	r3, [r3]
 171:..//kernel/core/tos_message_queue.c ****     }
 967              		.loc 1 171 26 view .LVU290
 968 0084 0022     		movs	r2, #0
 969 0086 DA66     		str	r2, [r3, #108]
 970 0088 CFE7     		b	.L56
 971              	.LVL122:
 972              	.L66:
 148:..//kernel/core/tos_message_queue.c ****         return K_ERR_NONE;
 973              		.loc 1 148 9 is_stmt 1 view .LVU291
 148:..//kernel/core/tos_message_queue.c ****         return K_ERR_NONE;
ARM GAS  C:\Users\tianx\AppData\Local\Temp\ccMFmtVU.s 			page 30


 974              		.loc 1 148 9 view .LVU292
 975 008a 3846     		mov	r0, r7
 976 008c FFF7FEFF 		bl	tos_cpu_cpsr_restore
 977              	.LVL123:
 149:..//kernel/core/tos_message_queue.c ****     }
 978              		.loc 1 149 9 view .LVU293
 149:..//kernel/core/tos_message_queue.c ****     }
 979              		.loc 1 149 16 is_stmt 0 view .LVU294
 980 0090 CBE7     		b	.L56
 981              	.L67:
 153:..//kernel/core/tos_message_queue.c ****         TOS_CPU_INT_ENABLE();
 982              		.loc 1 153 9 is_stmt 1 view .LVU295
 153:..//kernel/core/tos_message_queue.c ****         TOS_CPU_INT_ENABLE();
 983              		.loc 1 153 18 is_stmt 0 view .LVU296
 984 0092 0023     		movs	r3, #0
 985 0094 2B60     		str	r3, [r5]
 154:..//kernel/core/tos_message_queue.c ****         return K_ERR_PEND_NOWAIT;
 986              		.loc 1 154 9 is_stmt 1 view .LVU297
 154:..//kernel/core/tos_message_queue.c ****         return K_ERR_PEND_NOWAIT;
 987              		.loc 1 154 9 view .LVU298
 988 0096 3846     		mov	r0, r7
 989 0098 FFF7FEFF 		bl	tos_cpu_cpsr_restore
 990              	.LVL124:
 155:..//kernel/core/tos_message_queue.c ****     }
 991              		.loc 1 155 9 view .LVU299
 155:..//kernel/core/tos_message_queue.c ****     }
 992              		.loc 1 155 16 is_stmt 0 view .LVU300
 993 009c 4FF49666 		mov	r6, #1200
 994 00a0 C3E7     		b	.L56
 995              	.L68:
 159:..//kernel/core/tos_message_queue.c ****         return K_ERR_PEND_SCHED_LOCKED;
 996              		.loc 1 159 9 is_stmt 1 view .LVU301
 159:..//kernel/core/tos_message_queue.c ****         return K_ERR_PEND_SCHED_LOCKED;
 997              		.loc 1 159 9 view .LVU302
 998 00a2 3846     		mov	r0, r7
 999 00a4 FFF7FEFF 		bl	tos_cpu_cpsr_restore
 1000              	.LVL125:
 160:..//kernel/core/tos_message_queue.c ****     }
 1001              		.loc 1 160 9 view .LVU303
 160:..//kernel/core/tos_message_queue.c ****     }
 1002              		.loc 1 160 16 is_stmt 0 view .LVU304
 1003 00a8 40F2B146 		movw	r6, #1201
 1004 00ac BDE7     		b	.L56
 1005              	.LVL126:
 1006              	.L60:
 140:..//kernel/core/tos_message_queue.c ****     TOS_PTR_SANITY_CHECK(msg_q);
 1007              		.loc 1 140 5 view .LVU305
 1008 00ae 4FF4C876 		mov	r6, #400
 1009 00b2 BAE7     		b	.L56
 1010              	.L61:
 141:..//kernel/core/tos_message_queue.c ****     TOS_PTR_SANITY_CHECK(msg_ptr);
 1011              		.loc 1 141 5 view .LVU306
 1012 00b4 40F24C46 		movw	r6, #1100
 1013 00b8 B7E7     		b	.L56
 1014              	.L62:
 142:..//kernel/core/tos_message_queue.c ****     TOS_OBJ_VERIFY(msg_q, KNL_OBJ_TYPE_MESSAGE_QUEUE);
 1015              		.loc 1 142 5 view .LVU307
ARM GAS  C:\Users\tianx\AppData\Local\Temp\ccMFmtVU.s 			page 31


 1016 00ba 40F24C46 		movw	r6, #1100
 1017 00be B4E7     		b	.L56
 1018              	.L70:
 1019              		.align	2
 1020              	.L69:
 1021 00c0 00000000 		.word	k_curr_task
 1022              		.cfi_endproc
 1023              	.LFE115:
 1025              		.section	.text.tos_msg_q_post,"ax",%progbits
 1026              		.align	1
 1027              		.global	tos_msg_q_post
 1028              		.syntax unified
 1029              		.thumb
 1030              		.thumb_func
 1031              		.fpu softvfp
 1033              	tos_msg_q_post:
 1034              	.LVL127:
 1035              	.LFB118:
 217:..//kernel/core/tos_message_queue.c **** 
 218:..//kernel/core/tos_message_queue.c **** __API__ k_err_t tos_msg_q_post(k_msg_q_t *msg_q, void *msg_ptr)
 219:..//kernel/core/tos_message_queue.c **** {
 1036              		.loc 1 219 1 is_stmt 1 view -0
 1037              		.cfi_startproc
 1038              		@ args = 0, pretend = 0, frame = 0
 1039              		@ frame_needed = 0, uses_anonymous_args = 0
 1040              		.loc 1 219 1 is_stmt 0 view .LVU309
 1041 0000 08B5     		push	{r3, lr}
 1042              	.LCFI12:
 1043              		.cfi_def_cfa_offset 8
 1044              		.cfi_offset 3, -8
 1045              		.cfi_offset 14, -4
 220:..//kernel/core/tos_message_queue.c ****     return msg_q_do_post(msg_q, msg_ptr, OPT_POST_ONE);
 1046              		.loc 1 220 5 is_stmt 1 view .LVU310
 1047              		.loc 1 220 12 is_stmt 0 view .LVU311
 1048 0002 0022     		movs	r2, #0
 1049 0004 FFF7FEFF 		bl	msg_q_do_post
 1050              	.LVL128:
 221:..//kernel/core/tos_message_queue.c **** }
 1051              		.loc 1 221 1 view .LVU312
 1052 0008 08BD     		pop	{r3, pc}
 1053              		.cfi_endproc
 1054              	.LFE118:
 1056              		.section	.text.tos_msg_q_post_all,"ax",%progbits
 1057              		.align	1
 1058              		.global	tos_msg_q_post_all
 1059              		.syntax unified
 1060              		.thumb
 1061              		.thumb_func
 1062              		.fpu softvfp
 1064              	tos_msg_q_post_all:
 1065              	.LVL129:
 1066              	.LFB119:
 222:..//kernel/core/tos_message_queue.c **** 
 223:..//kernel/core/tos_message_queue.c **** __API__ k_err_t tos_msg_q_post_all(k_msg_q_t *msg_q, void *msg_ptr)
 224:..//kernel/core/tos_message_queue.c **** {
 1067              		.loc 1 224 1 is_stmt 1 view -0
 1068              		.cfi_startproc
ARM GAS  C:\Users\tianx\AppData\Local\Temp\ccMFmtVU.s 			page 32


 1069              		@ args = 0, pretend = 0, frame = 0
 1070              		@ frame_needed = 0, uses_anonymous_args = 0
 1071              		.loc 1 224 1 is_stmt 0 view .LVU314
 1072 0000 08B5     		push	{r3, lr}
 1073              	.LCFI13:
 1074              		.cfi_def_cfa_offset 8
 1075              		.cfi_offset 3, -8
 1076              		.cfi_offset 14, -4
 225:..//kernel/core/tos_message_queue.c ****     return msg_q_do_post(msg_q, msg_ptr, OPT_POST_ALL);
 1077              		.loc 1 225 5 is_stmt 1 view .LVU315
 1078              		.loc 1 225 12 is_stmt 0 view .LVU316
 1079 0002 0122     		movs	r2, #1
 1080 0004 FFF7FEFF 		bl	msg_q_do_post
 1081              	.LVL130:
 226:..//kernel/core/tos_message_queue.c **** }
 1082              		.loc 1 226 1 view .LVU317
 1083 0008 08BD     		pop	{r3, pc}
 1084              		.cfi_endproc
 1085              	.LFE119:
 1087              		.text
 1088              	.Letext0:
 1089              		.file 3 "..//kernel/core/include/tos_kerr.h"
 1090              		.file 4 "d:\\arm_gcc\\8 2019-q3-update\\arm-none-eabi\\include\\machine\\_default_types.h"
 1091              		.file 5 "d:\\arm_gcc\\8 2019-q3-update\\arm-none-eabi\\include\\sys\\_stdint.h"
 1092              		.file 6 "Drivers/CMSIS/Include/core_cm3.h"
 1093              		.file 7 "Drivers/CMSIS/Device/ST/STM32F1xx/Include/system_stm32f1xx.h"
 1094              		.file 8 "d:\\arm_gcc\\8 2019-q3-update\\lib\\gcc\\arm-none-eabi\\8.3.1\\include\\stddef.h"
 1095              		.file 9 "d:\\arm_gcc\\8 2019-q3-update\\arm-none-eabi\\include\\sys\\_types.h"
 1096              		.file 10 "d:\\arm_gcc\\8 2019-q3-update\\arm-none-eabi\\include\\sys\\reent.h"
 1097              		.file 11 "d:\\arm_gcc\\8 2019-q3-update\\arm-none-eabi\\include\\sys\\lock.h"
 1098              		.file 12 "Drivers/STM32F1xx_HAL_Driver/Inc/stm32f1xx_hal.h"
 1099              		.file 13 "..//arch/arm/arm-v7m/common/include/tos_cpu_types.h"
 1100              		.file 14 "..//kernel/core/include/tos_ktypes.h"
 1101              		.file 15 "..//kernel/core/include/tos_task.h"
 1102              		.file 16 "d:\\arm_gcc\\8 2019-q3-update\\arm-none-eabi\\include\\stdlib.h"
 1103              		.file 17 "..//kernel/core/include/tos_list.h"
 1104              		.file 18 "..//kernel/core/include/tos_pend.h"
 1105              		.file 19 "..//kernel/core/include/tos_ring_queue.h"
 1106              		.file 20 "..//kernel/core/include/tos_message_queue.h"
 1107              		.file 21 "..//kernel/core/include/tos_timer.h"
 1108              		.file 22 "..//kernel/core/include/tos_mmheap.h"
 1109              		.file 23 "..//kernel/core/include/tos_sched.h"
 1110              		.file 24 "..//kernel/core/include/tos_global.h"
 1111              		.file 25 "..//arch/arm/arm-v7m/common/include/tos_cpu.h"
ARM GAS  C:\Users\tianx\AppData\Local\Temp\ccMFmtVU.s 			page 33

