ARM GAS  C:\Users\tianx\AppData\Local\Temp\ccq9tyHl.s 			page 1


   1              		.cpu cortex-m3
   2              		.eabi_attribute 20, 1
   3              		.eabi_attribute 21, 1
   4              		.eabi_attribute 23, 3
   5              		.eabi_attribute 24, 1
   6              		.eabi_attribute 25, 1
   7              		.eabi_attribute 26, 1
   8              		.eabi_attribute 30, 1
   9              		.eabi_attribute 34, 1
  10              		.eabi_attribute 18, 4
  11              		.file	"tos_completion.c"
  12              		.text
  13              	.Ltext0:
  14              		.cfi_sections	.debug_frame
  15              		.section	.text.completion_do_post,"ax",%progbits
  16              		.align	1
  17              		.arch armv7-m
  18              		.syntax unified
  19              		.thumb
  20              		.thumb_func
  21              		.fpu softvfp
  23              	completion_do_post:
  24              	.LVL0:
  25              	.LFB114:
  26              		.file 1 "..//kernel/core/tos_completion.c"
   1:..//kernel/core/tos_completion.c **** /*----------------------------------------------------------------------------
   2:..//kernel/core/tos_completion.c ****  * Tencent is pleased to support the open source community by making TencentOS
   3:..//kernel/core/tos_completion.c ****  * available.
   4:..//kernel/core/tos_completion.c ****  *
   5:..//kernel/core/tos_completion.c ****  * Copyright (C) 2019 THL A29 Limited, a Tencent company. All rights reserved.
   6:..//kernel/core/tos_completion.c ****  * If you have downloaded a copy of the TencentOS binary from Tencent, please
   7:..//kernel/core/tos_completion.c ****  * note that the TencentOS binary is licensed under the BSD 3-Clause License.
   8:..//kernel/core/tos_completion.c ****  *
   9:..//kernel/core/tos_completion.c ****  * If you have downloaded a copy of the TencentOS source code from Tencent,
  10:..//kernel/core/tos_completion.c ****  * please note that TencentOS source code is licensed under the BSD 3-Clause
  11:..//kernel/core/tos_completion.c ****  * License, except for the third-party components listed below which are
  12:..//kernel/core/tos_completion.c ****  * subject to different license terms. Your integration of TencentOS into your
  13:..//kernel/core/tos_completion.c ****  * own projects may require compliance with the BSD 3-Clause License, as well
  14:..//kernel/core/tos_completion.c ****  * as the other licenses applicable to the third-party components included
  15:..//kernel/core/tos_completion.c ****  * within TencentOS.
  16:..//kernel/core/tos_completion.c ****  *---------------------------------------------------------------------------*/
  17:..//kernel/core/tos_completion.c **** 
  18:..//kernel/core/tos_completion.c **** #include "tos_k.h"
  19:..//kernel/core/tos_completion.c **** 
  20:..//kernel/core/tos_completion.c **** __API__ k_err_t tos_completion_create(k_completion_t *completion)
  21:..//kernel/core/tos_completion.c **** {
  22:..//kernel/core/tos_completion.c ****     TOS_PTR_SANITY_CHECK(completion);
  23:..//kernel/core/tos_completion.c **** 
  24:..//kernel/core/tos_completion.c ****     completion->done = (completion_done_t)0u;
  25:..//kernel/core/tos_completion.c ****     pend_object_init(&completion->pend_obj);
  26:..//kernel/core/tos_completion.c ****     TOS_OBJ_INIT(completion, KNL_OBJ_TYPE_COMPLETION);
  27:..//kernel/core/tos_completion.c **** 
  28:..//kernel/core/tos_completion.c ****     return K_ERR_NONE;
  29:..//kernel/core/tos_completion.c **** }
  30:..//kernel/core/tos_completion.c **** 
  31:..//kernel/core/tos_completion.c **** __API__ k_err_t tos_completion_destroy(k_completion_t *completion)
  32:..//kernel/core/tos_completion.c **** {
ARM GAS  C:\Users\tianx\AppData\Local\Temp\ccq9tyHl.s 			page 2


  33:..//kernel/core/tos_completion.c ****     TOS_CPU_CPSR_ALLOC();
  34:..//kernel/core/tos_completion.c **** 
  35:..//kernel/core/tos_completion.c ****     TOS_PTR_SANITY_CHECK(completion);
  36:..//kernel/core/tos_completion.c ****     TOS_OBJ_VERIFY(completion, KNL_OBJ_TYPE_COMPLETION);
  37:..//kernel/core/tos_completion.c **** 
  38:..//kernel/core/tos_completion.c ****     TOS_CPU_INT_DISABLE();
  39:..//kernel/core/tos_completion.c **** 
  40:..//kernel/core/tos_completion.c ****     pend_wakeup_all(&completion->pend_obj, PEND_STATE_DESTROY);
  41:..//kernel/core/tos_completion.c **** 
  42:..//kernel/core/tos_completion.c ****     pend_object_deinit(&completion->pend_obj);
  43:..//kernel/core/tos_completion.c **** 
  44:..//kernel/core/tos_completion.c ****     TOS_OBJ_DEINIT(completion);
  45:..//kernel/core/tos_completion.c **** 
  46:..//kernel/core/tos_completion.c ****     TOS_CPU_INT_ENABLE();
  47:..//kernel/core/tos_completion.c ****     knl_sched();
  48:..//kernel/core/tos_completion.c **** 
  49:..//kernel/core/tos_completion.c ****     return K_ERR_NONE;
  50:..//kernel/core/tos_completion.c **** }
  51:..//kernel/core/tos_completion.c **** 
  52:..//kernel/core/tos_completion.c **** __API__ k_err_t tos_completion_pend_timed(k_completion_t *completion, k_tick_t timeout)
  53:..//kernel/core/tos_completion.c **** {
  54:..//kernel/core/tos_completion.c ****     TOS_CPU_CPSR_ALLOC();
  55:..//kernel/core/tos_completion.c **** 
  56:..//kernel/core/tos_completion.c ****     TOS_IN_IRQ_CHECK();
  57:..//kernel/core/tos_completion.c ****     TOS_PTR_SANITY_CHECK(completion);
  58:..//kernel/core/tos_completion.c ****     TOS_OBJ_VERIFY(completion, KNL_OBJ_TYPE_COMPLETION);
  59:..//kernel/core/tos_completion.c **** 
  60:..//kernel/core/tos_completion.c ****     TOS_CPU_INT_DISABLE();
  61:..//kernel/core/tos_completion.c **** 
  62:..//kernel/core/tos_completion.c ****     if (completion->done > (completion_done_t)0u) {
  63:..//kernel/core/tos_completion.c ****         TOS_CPU_INT_ENABLE();
  64:..//kernel/core/tos_completion.c ****         return K_ERR_NONE;
  65:..//kernel/core/tos_completion.c ****     }
  66:..//kernel/core/tos_completion.c **** 
  67:..//kernel/core/tos_completion.c ****     if (timeout == TOS_TIME_NOWAIT) { // no wait, return immediately
  68:..//kernel/core/tos_completion.c ****         TOS_CPU_INT_ENABLE();
  69:..//kernel/core/tos_completion.c ****         return K_ERR_PEND_NOWAIT;
  70:..//kernel/core/tos_completion.c ****     }
  71:..//kernel/core/tos_completion.c **** 
  72:..//kernel/core/tos_completion.c ****     if (knl_is_sched_locked()) {
  73:..//kernel/core/tos_completion.c ****         TOS_CPU_INT_ENABLE();
  74:..//kernel/core/tos_completion.c ****         return K_ERR_PEND_SCHED_LOCKED;
  75:..//kernel/core/tos_completion.c ****     }
  76:..//kernel/core/tos_completion.c **** 
  77:..//kernel/core/tos_completion.c ****     pend_task_block(k_curr_task, &completion->pend_obj, timeout);
  78:..//kernel/core/tos_completion.c **** 
  79:..//kernel/core/tos_completion.c ****     TOS_CPU_INT_ENABLE();
  80:..//kernel/core/tos_completion.c ****     knl_sched();
  81:..//kernel/core/tos_completion.c **** 
  82:..//kernel/core/tos_completion.c ****     return pend_state2errno(k_curr_task->pend_state);
  83:..//kernel/core/tos_completion.c **** }
  84:..//kernel/core/tos_completion.c **** 
  85:..//kernel/core/tos_completion.c **** __API__ k_err_t tos_completion_pend(k_completion_t *completion)
  86:..//kernel/core/tos_completion.c **** {
  87:..//kernel/core/tos_completion.c ****     return tos_completion_pend_timed(completion, TOS_TIME_FOREVER);
  88:..//kernel/core/tos_completion.c **** }
  89:..//kernel/core/tos_completion.c **** 
ARM GAS  C:\Users\tianx\AppData\Local\Temp\ccq9tyHl.s 			page 3


  90:..//kernel/core/tos_completion.c **** __STATIC__ k_err_t completion_do_post(k_completion_t *completion, opt_post_t opt)
  91:..//kernel/core/tos_completion.c **** {
  27              		.loc 1 91 1 view -0
  28              		.cfi_startproc
  29              		@ args = 0, pretend = 0, frame = 0
  30              		@ frame_needed = 0, uses_anonymous_args = 0
  92:..//kernel/core/tos_completion.c ****     TOS_CPU_CPSR_ALLOC();
  31              		.loc 1 92 5 view .LVU1
  93:..//kernel/core/tos_completion.c **** 
  94:..//kernel/core/tos_completion.c ****     TOS_PTR_SANITY_CHECK(completion);
  32              		.loc 1 94 5 view .LVU2
  33              		.loc 1 94 5 view .LVU3
  34 0000 70B3     		cbz	r0, .L5
  91:..//kernel/core/tos_completion.c ****     TOS_CPU_CPSR_ALLOC();
  35              		.loc 1 91 1 is_stmt 0 view .LVU4
  36 0002 70B5     		push	{r4, r5, r6, lr}
  37              	.LCFI0:
  38              		.cfi_def_cfa_offset 16
  39              		.cfi_offset 4, -16
  40              		.cfi_offset 5, -12
  41              		.cfi_offset 6, -8
  42              		.cfi_offset 14, -4
  43 0004 0446     		mov	r4, r0
  95:..//kernel/core/tos_completion.c ****     TOS_OBJ_VERIFY(completion, KNL_OBJ_TYPE_COMPLETION);
  44              		.loc 1 95 5 is_stmt 1 view .LVU5
  45              		.loc 1 95 5 view .LVU6
  46              	.LVL1:
  47              	.LBB16:
  48              	.LBI16:
  49              		.file 2 "..//kernel/core/include/tos_sys.h"
   1:..//kernel/core/include/tos_sys.h **** /*----------------------------------------------------------------------------
   2:..//kernel/core/include/tos_sys.h ****  * Tencent is pleased to support the open source community by making TencentOS
   3:..//kernel/core/include/tos_sys.h ****  * available.
   4:..//kernel/core/include/tos_sys.h ****  *
   5:..//kernel/core/include/tos_sys.h ****  * Copyright (C) 2019 THL A29 Limited, a Tencent company. All rights reserved.
   6:..//kernel/core/include/tos_sys.h ****  * If you have downloaded a copy of the TencentOS binary from Tencent, please
   7:..//kernel/core/include/tos_sys.h ****  * note that the TencentOS binary is licensed under the BSD 3-Clause License.
   8:..//kernel/core/include/tos_sys.h ****  *
   9:..//kernel/core/include/tos_sys.h ****  * If you have downloaded a copy of the TencentOS source code from Tencent,
  10:..//kernel/core/include/tos_sys.h ****  * please note that TencentOS source code is licensed under the BSD 3-Clause
  11:..//kernel/core/include/tos_sys.h ****  * License, except for the third-party components listed below which are
  12:..//kernel/core/include/tos_sys.h ****  * subject to different license terms. Your integration of TencentOS into your
  13:..//kernel/core/include/tos_sys.h ****  * own projects may require compliance with the BSD 3-Clause License, as well
  14:..//kernel/core/include/tos_sys.h ****  * as the other licenses applicable to the third-party components included
  15:..//kernel/core/include/tos_sys.h ****  * within TencentOS.
  16:..//kernel/core/include/tos_sys.h ****  *---------------------------------------------------------------------------*/
  17:..//kernel/core/include/tos_sys.h **** 
  18:..//kernel/core/include/tos_sys.h **** #ifndef _TOS_SYS_H_
  19:..//kernel/core/include/tos_sys.h **** #define  _TOS_SYS_H_
  20:..//kernel/core/include/tos_sys.h **** 
  21:..//kernel/core/include/tos_sys.h **** __CDECLS_BEGIN
  22:..//kernel/core/include/tos_sys.h **** 
  23:..//kernel/core/include/tos_sys.h **** #define K_NESTING_LIMIT_IRQ             (k_nesting_t)250u
  24:..//kernel/core/include/tos_sys.h **** #define K_NESTING_LIMIT_SCHED_LOCK      (k_nesting_t)250u
  25:..//kernel/core/include/tos_sys.h **** 
  26:..//kernel/core/include/tos_sys.h **** typedef enum knl_state_en {
  27:..//kernel/core/include/tos_sys.h ****     KNL_STATE_STOPPED,
ARM GAS  C:\Users\tianx\AppData\Local\Temp\ccq9tyHl.s 			page 4


  28:..//kernel/core/include/tos_sys.h ****     KNL_STATE_RUNNING,
  29:..//kernel/core/include/tos_sys.h **** } knl_state_t;
  30:..//kernel/core/include/tos_sys.h **** 
  31:..//kernel/core/include/tos_sys.h **** // some kind of magic number, mainly for identifing whether the object is initialized, or whether u
  32:..//kernel/core/include/tos_sys.h **** typedef enum knl_obj_type_en {
  33:..//kernel/core/include/tos_sys.h ****     KNL_OBJ_TYPE_NONE                           = 0x0000,
  34:..//kernel/core/include/tos_sys.h **** 
  35:..//kernel/core/include/tos_sys.h ****     KNL_OBJ_TYPE_BINARY_HEAP                    = 0xDAD0,
  36:..//kernel/core/include/tos_sys.h ****     KNL_OBJ_TYPE_BITMAP                         = 0xDAD1,
  37:..//kernel/core/include/tos_sys.h ****     KNL_OBJ_TYPE_CHAR_FIFO                      = 0xDAD2,
  38:..//kernel/core/include/tos_sys.h ****     KNL_OBJ_TYPE_MMBLK_POOL                     = 0xDAD3,
  39:..//kernel/core/include/tos_sys.h ****     KNL_OBJ_TYPE_MSG_QUEUE                      = 0xDAD4,
  40:..//kernel/core/include/tos_sys.h ****     KNL_OBJ_TYPE_PRIORITY_QUEUE                 = 0xDAD5,
  41:..//kernel/core/include/tos_sys.h ****     KNL_OBJ_TYPE_RING_QUEUE                     = 0xDAD6,
  42:..//kernel/core/include/tos_sys.h ****     KNL_OBJ_TYPE_STOPWATCH                      = 0xDAD7,
  43:..//kernel/core/include/tos_sys.h ****     KNL_OBJ_TYPE_TASK                           = 0xDAD8,
  44:..//kernel/core/include/tos_sys.h ****     KNL_OBJ_TYPE_TIMER                          = 0xDAD9,
  45:..//kernel/core/include/tos_sys.h **** 
  46:..//kernel/core/include/tos_sys.h ****     // ipc object
  47:..//kernel/core/include/tos_sys.h ****     KNL_OBJ_TYPE_BARRIER                        = 0x0BEE,
  48:..//kernel/core/include/tos_sys.h ****     KNL_OBJ_TYPE_COMPLETION                     = 0x1BEE,
  49:..//kernel/core/include/tos_sys.h ****     KNL_OBJ_TYPE_COUNTDOWNLATCH                 = 0x2BEE,
  50:..//kernel/core/include/tos_sys.h ****     KNL_OBJ_TYPE_EVENT                          = 0x3BEE,
  51:..//kernel/core/include/tos_sys.h ****     KNL_OBJ_TYPE_MAIL_QUEUE                     = 0x4BEE,
  52:..//kernel/core/include/tos_sys.h ****     KNL_OBJ_TYPE_MESSAGE_QUEUE                  = 0x5BEE,
  53:..//kernel/core/include/tos_sys.h ****     KNL_OBJ_TYPE_MUTEX                          = 0x6BEE,
  54:..//kernel/core/include/tos_sys.h ****     KNL_OBJ_TYPE_PRIORITY_MAIL_QUEUE            = 0x7BEE,
  55:..//kernel/core/include/tos_sys.h ****     KNL_OBJ_TYPE_PRIORITY_MESSAGE_QUEUE         = 0x8BEE,
  56:..//kernel/core/include/tos_sys.h ****     KNL_OBJ_TYPE_RWLOCK                         = 0x9BEE,
  57:..//kernel/core/include/tos_sys.h ****     KNL_OBJ_TYPE_SEMAPHORE                      = 0xABEE,
  58:..//kernel/core/include/tos_sys.h **** } knl_obj_type_t;
  59:..//kernel/core/include/tos_sys.h **** 
  60:..//kernel/core/include/tos_sys.h **** typedef enum knl_obj_alloc_type_en {
  61:..//kernel/core/include/tos_sys.h ****     KNL_OBJ_ALLOC_TYPE_NONE,
  62:..//kernel/core/include/tos_sys.h ****     KNL_OBJ_ALLOC_TYPE_STATIC,
  63:..//kernel/core/include/tos_sys.h ****     KNL_OBJ_ALLOC_TYPE_DYNAMIC,
  64:..//kernel/core/include/tos_sys.h **** } knl_obj_alloc_type_t;
  65:..//kernel/core/include/tos_sys.h **** 
  66:..//kernel/core/include/tos_sys.h **** typedef struct knl_object_st {
  67:..//kernel/core/include/tos_sys.h ****     knl_obj_alloc_type_t    alloc_type; /* is dynamic allocated(using tos_mmheap) or static memory?
  68:..//kernel/core/include/tos_sys.h **** #if TOS_CFG_OBJECT_VERIFY_EN > 0u
  69:..//kernel/core/include/tos_sys.h ****     knl_obj_type_t          type;
  70:..//kernel/core/include/tos_sys.h **** #endif
  71:..//kernel/core/include/tos_sys.h **** } knl_obj_t;
  72:..//kernel/core/include/tos_sys.h **** 
  73:..//kernel/core/include/tos_sys.h **** /**
  74:..//kernel/core/include/tos_sys.h ****  * @brief Initialize the kernel.
  75:..//kernel/core/include/tos_sys.h ****  * initialize the tos tiny kernel.
  76:..//kernel/core/include/tos_sys.h ****  *
  77:..//kernel/core/include/tos_sys.h ****  * @attention None
  78:..//kernel/core/include/tos_sys.h ****  *
  79:..//kernel/core/include/tos_sys.h ****  * @param   None
  80:..//kernel/core/include/tos_sys.h ****  *
  81:..//kernel/core/include/tos_sys.h ****  * @return  errcode
  82:..//kernel/core/include/tos_sys.h ****  * @retval  Non-#K_ERR_NONE               return failed.
  83:..//kernel/core/include/tos_sys.h ****  * @retval  #K_ERR_NONE                   return successfully.
  84:..//kernel/core/include/tos_sys.h ****  */
ARM GAS  C:\Users\tianx\AppData\Local\Temp\ccq9tyHl.s 			page 5


  85:..//kernel/core/include/tos_sys.h **** __API__ k_err_t tos_knl_init(void);
  86:..//kernel/core/include/tos_sys.h **** 
  87:..//kernel/core/include/tos_sys.h **** /**
  88:..//kernel/core/include/tos_sys.h ****  * @brief Start the kernel.
  89:..//kernel/core/include/tos_sys.h ****  * get the kernel start to run, which means start the multitask scheduling.
  90:..//kernel/core/include/tos_sys.h ****  *
  91:..//kernel/core/include/tos_sys.h ****  * @attention None
  92:..//kernel/core/include/tos_sys.h ****  *
  93:..//kernel/core/include/tos_sys.h ****  * @param   None
  94:..//kernel/core/include/tos_sys.h ****  *
  95:..//kernel/core/include/tos_sys.h ****  * @return  errcode
  96:..//kernel/core/include/tos_sys.h ****  * @retval  #K_ERR_KNL_RUNNING            the kernel is already running.
  97:..//kernel/core/include/tos_sys.h ****  * @retval  #K_ERR_NONE                   return successfully.
  98:..//kernel/core/include/tos_sys.h ****  */
  99:..//kernel/core/include/tos_sys.h **** __API__ k_err_t tos_knl_start(void);
 100:..//kernel/core/include/tos_sys.h **** 
 101:..//kernel/core/include/tos_sys.h **** /**
 102:..//kernel/core/include/tos_sys.h ****  * @brief Get the kernel state.
 103:..//kernel/core/include/tos_sys.h ****  * whether the kernel is running.
 104:..//kernel/core/include/tos_sys.h ****  *
 105:..//kernel/core/include/tos_sys.h ****  * @attention None
 106:..//kernel/core/include/tos_sys.h ****  *
 107:..//kernel/core/include/tos_sys.h ****  * @param   None
 108:..//kernel/core/include/tos_sys.h ****  *
 109:..//kernel/core/include/tos_sys.h ****  * @return  whether the kernel is running.
 110:..//kernel/core/include/tos_sys.h ****  * @retval  Non-0                           the kernel is running.
 111:..//kernel/core/include/tos_sys.h ****  * @retval  0                               the kernel is not running.
 112:..//kernel/core/include/tos_sys.h ****  */
 113:..//kernel/core/include/tos_sys.h **** __API__ int     tos_knl_is_running(void);
 114:..//kernel/core/include/tos_sys.h **** 
 115:..//kernel/core/include/tos_sys.h **** /**
 116:..//kernel/core/include/tos_sys.h ****  * @brief Kernel enter the interrupt.
 117:..//kernel/core/include/tos_sys.h ****  * this function should be called in the entrance of a interrupt handler.
 118:..//kernel/core/include/tos_sys.h ****  *
 119:..//kernel/core/include/tos_sys.h ****  * @attention None
 120:..//kernel/core/include/tos_sys.h ****  *
 121:..//kernel/core/include/tos_sys.h ****  * @param   None
 122:..//kernel/core/include/tos_sys.h ****  *
 123:..//kernel/core/include/tos_sys.h ****  * @return  None
 124:..//kernel/core/include/tos_sys.h ****  */
 125:..//kernel/core/include/tos_sys.h **** __API__ void    tos_knl_irq_enter(void);
 126:..//kernel/core/include/tos_sys.h **** 
 127:..//kernel/core/include/tos_sys.h **** /**
 128:..//kernel/core/include/tos_sys.h ****  * @brief Kernel exit the interrupt.
 129:..//kernel/core/include/tos_sys.h ****  * this function should be called in the exit of a interrupt handler.
 130:..//kernel/core/include/tos_sys.h ****  *
 131:..//kernel/core/include/tos_sys.h ****  * @attention None
 132:..//kernel/core/include/tos_sys.h ****  *
 133:..//kernel/core/include/tos_sys.h ****  * @param   None
 134:..//kernel/core/include/tos_sys.h ****  *
 135:..//kernel/core/include/tos_sys.h ****  * @return  None
 136:..//kernel/core/include/tos_sys.h ****  */
 137:..//kernel/core/include/tos_sys.h **** __API__ void    tos_knl_irq_leave(void);
 138:..//kernel/core/include/tos_sys.h **** 
 139:..//kernel/core/include/tos_sys.h **** /**
 140:..//kernel/core/include/tos_sys.h ****  * @brief Lock the scheduler.
 141:..//kernel/core/include/tos_sys.h ****  * prevent the kernel from performing task schedule.
ARM GAS  C:\Users\tianx\AppData\Local\Temp\ccq9tyHl.s 			page 6


 142:..//kernel/core/include/tos_sys.h ****  *
 143:..//kernel/core/include/tos_sys.h ****  * @attention None
 144:..//kernel/core/include/tos_sys.h ****  *
 145:..//kernel/core/include/tos_sys.h ****  * @param   None
 146:..//kernel/core/include/tos_sys.h ****  *
 147:..//kernel/core/include/tos_sys.h ****  * @return  errcode
 148:..//kernel/core/include/tos_sys.h ****  * @retval  K_ERR_KNL_NOT_RUNNING         the kernel is not running.
 149:..//kernel/core/include/tos_sys.h ****  * @retval  K_ERR_LOCK_NESTING_OVERFLOW   the schedule lock nesting is overflow.
 150:..//kernel/core/include/tos_sys.h ****  * @retval  K_ERR_NONE                    return successfully.
 151:..//kernel/core/include/tos_sys.h ****  */
 152:..//kernel/core/include/tos_sys.h **** __API__ k_err_t tos_knl_sched_lock(void);
 153:..//kernel/core/include/tos_sys.h **** 
 154:..//kernel/core/include/tos_sys.h **** /**
 155:..//kernel/core/include/tos_sys.h ****  * @brief Unlock the scheduler.
 156:..//kernel/core/include/tos_sys.h ****  * re-enable the task schedule.
 157:..//kernel/core/include/tos_sys.h ****  *
 158:..//kernel/core/include/tos_sys.h ****  * @attention None
 159:..//kernel/core/include/tos_sys.h ****  *
 160:..//kernel/core/include/tos_sys.h ****  * @param   None
 161:..//kernel/core/include/tos_sys.h ****  *
 162:..//kernel/core/include/tos_sys.h ****  * @return  errcode
 163:..//kernel/core/include/tos_sys.h ****  * @retval  K_ERR_KNL_NOT_RUNNING         the kernel is not running.
 164:..//kernel/core/include/tos_sys.h ****  * @retval  K_ERR_SCHED_NOT_LOCKED        the scheduler is not locked.
 165:..//kernel/core/include/tos_sys.h ****  * @retval  K_ERR_NONE                    return successfully.
 166:..//kernel/core/include/tos_sys.h ****  */
 167:..//kernel/core/include/tos_sys.h **** __API__ k_err_t tos_knl_sched_unlock(void);
 168:..//kernel/core/include/tos_sys.h **** 
 169:..//kernel/core/include/tos_sys.h **** #if TOS_CFG_TICKLESS_EN > 0u
 170:..//kernel/core/include/tos_sys.h **** __KNL__ k_tick_t knl_next_expires_get(void);
 171:..//kernel/core/include/tos_sys.h **** #endif
 172:..//kernel/core/include/tos_sys.h **** 
 173:..//kernel/core/include/tos_sys.h **** __KNL__ void    knl_sched(void);
 174:..//kernel/core/include/tos_sys.h **** __KNL__ int     knl_is_sched_locked(void);
 175:..//kernel/core/include/tos_sys.h **** __KNL__ int     knl_is_inirq(void);
 176:..//kernel/core/include/tos_sys.h **** __KNL__ int     knl_is_idle(k_task_t *task);
 177:..//kernel/core/include/tos_sys.h **** __KNL__ int     knl_is_self(k_task_t *task);
 178:..//kernel/core/include/tos_sys.h **** __KNL__ k_err_t knl_idle_init(void);
 179:..//kernel/core/include/tos_sys.h **** 
 180:..//kernel/core/include/tos_sys.h **** #if TOS_CFG_OBJECT_VERIFY_EN > 0u
 181:..//kernel/core/include/tos_sys.h **** 
 182:..//kernel/core/include/tos_sys.h **** __KNL__ __STATIC_INLINE__ int knl_object_verify(knl_obj_t *knl_obj, knl_obj_type_t type)
  50              		.loc 2 182 31 view .LVU7
  51              	.LBB17:
 183:..//kernel/core/include/tos_sys.h **** {
 184:..//kernel/core/include/tos_sys.h ****     return knl_obj->type == type;
  52              		.loc 2 184 5 view .LVU8
  53              		.loc 2 184 19 is_stmt 0 view .LVU9
  54 0006 4088     		ldrh	r0, [r0, #2]
  55              	.LVL2:
  56              		.loc 2 184 19 view .LVU10
  57              	.LBE17:
  58              	.LBE16:
  59              		.loc 1 95 5 view .LVU11
  60 0008 41F6EE32 		movw	r2, #7150
  61 000c 9042     		cmp	r0, r2
  62 000e 02D0     		beq	.L11
  63 0010 40F24D40 		movw	r0, #1101
ARM GAS  C:\Users\tianx\AppData\Local\Temp\ccq9tyHl.s 			page 7


  64              	.LVL3:
  65              	.L2:
  96:..//kernel/core/tos_completion.c **** 
  97:..//kernel/core/tos_completion.c ****     TOS_CPU_INT_DISABLE();
  98:..//kernel/core/tos_completion.c **** 
  99:..//kernel/core/tos_completion.c ****     if (completion->done == (completion_done_t)-1) {
 100:..//kernel/core/tos_completion.c ****         TOS_CPU_INT_ENABLE();
 101:..//kernel/core/tos_completion.c ****         return K_ERR_COMPLETION_OVERFLOW;
 102:..//kernel/core/tos_completion.c ****     }
 103:..//kernel/core/tos_completion.c **** 
 104:..//kernel/core/tos_completion.c ****     ++completion->done;
 105:..//kernel/core/tos_completion.c **** 
 106:..//kernel/core/tos_completion.c ****     if (pend_is_nopending(&completion->pend_obj)) {
 107:..//kernel/core/tos_completion.c ****         TOS_CPU_INT_ENABLE();
 108:..//kernel/core/tos_completion.c ****         return K_ERR_NONE;
 109:..//kernel/core/tos_completion.c ****     }
 110:..//kernel/core/tos_completion.c **** 
 111:..//kernel/core/tos_completion.c ****     pend_wakeup(&completion->pend_obj, PEND_STATE_POST, opt);
 112:..//kernel/core/tos_completion.c **** 
 113:..//kernel/core/tos_completion.c ****     TOS_CPU_INT_ENABLE();
 114:..//kernel/core/tos_completion.c ****     knl_sched();
 115:..//kernel/core/tos_completion.c **** 
 116:..//kernel/core/tos_completion.c ****     return K_ERR_NONE;
 117:..//kernel/core/tos_completion.c **** }
  66              		.loc 1 117 1 view .LVU12
  67 0014 70BD     		pop	{r4, r5, r6, pc}
  68              	.LVL4:
  69              	.L11:
  70              		.loc 1 117 1 view .LVU13
  71 0016 0D46     		mov	r5, r1
  97:..//kernel/core/tos_completion.c **** 
  72              		.loc 1 97 5 is_stmt 1 view .LVU14
  97:..//kernel/core/tos_completion.c **** 
  73              		.loc 1 97 5 view .LVU15
  74 0018 FFF7FEFF 		bl	tos_cpu_cpsr_save
  75              	.LVL5:
  97:..//kernel/core/tos_completion.c **** 
  76              		.loc 1 97 5 is_stmt 0 view .LVU16
  77 001c 0646     		mov	r6, r0
  78              	.LVL6:
  99:..//kernel/core/tos_completion.c ****         TOS_CPU_INT_ENABLE();
  79              		.loc 1 99 5 is_stmt 1 view .LVU17
  99:..//kernel/core/tos_completion.c ****         TOS_CPU_INT_ENABLE();
  80              		.loc 1 99 19 is_stmt 0 view .LVU18
  81 001e A389     		ldrh	r3, [r4, #12]
  99:..//kernel/core/tos_completion.c ****         TOS_CPU_INT_ENABLE();
  82              		.loc 1 99 8 view .LVU19
  83 0020 4FF6FF72 		movw	r2, #65535
  84 0024 9342     		cmp	r3, r2
  85 0026 12D0     		beq	.L12
 104:..//kernel/core/tos_completion.c **** 
  86              		.loc 1 104 5 is_stmt 1 view .LVU20
  87 0028 0133     		adds	r3, r3, #1
  88 002a A381     		strh	r3, [r4, #12]	@ movhi
 106:..//kernel/core/tos_completion.c ****         TOS_CPU_INT_ENABLE();
  89              		.loc 1 106 5 view .LVU21
 106:..//kernel/core/tos_completion.c ****         TOS_CPU_INT_ENABLE();
ARM GAS  C:\Users\tianx\AppData\Local\Temp\ccq9tyHl.s 			page 8


  90              		.loc 1 106 9 is_stmt 0 view .LVU22
  91 002c 0434     		adds	r4, r4, #4
  92              	.LVL7:
 106:..//kernel/core/tos_completion.c ****         TOS_CPU_INT_ENABLE();
  93              		.loc 1 106 9 view .LVU23
  94 002e 2046     		mov	r0, r4
  95              	.LVL8:
 106:..//kernel/core/tos_completion.c ****         TOS_CPU_INT_ENABLE();
  96              		.loc 1 106 9 view .LVU24
  97 0030 FFF7FEFF 		bl	pend_is_nopending
  98              	.LVL9:
 106:..//kernel/core/tos_completion.c ****         TOS_CPU_INT_ENABLE();
  99              		.loc 1 106 8 view .LVU25
 100 0034 78B9     		cbnz	r0, .L13
 111:..//kernel/core/tos_completion.c **** 
 101              		.loc 1 111 5 is_stmt 1 view .LVU26
 102 0036 2A46     		mov	r2, r5
 103 0038 0121     		movs	r1, #1
 104 003a 2046     		mov	r0, r4
 105 003c FFF7FEFF 		bl	pend_wakeup
 106              	.LVL10:
 113:..//kernel/core/tos_completion.c ****     knl_sched();
 107              		.loc 1 113 5 view .LVU27
 113:..//kernel/core/tos_completion.c ****     knl_sched();
 108              		.loc 1 113 5 view .LVU28
 109 0040 3046     		mov	r0, r6
 110 0042 FFF7FEFF 		bl	tos_cpu_cpsr_restore
 111              	.LVL11:
 114:..//kernel/core/tos_completion.c **** 
 112              		.loc 1 114 5 view .LVU29
 113 0046 FFF7FEFF 		bl	knl_sched
 114              	.LVL12:
 116:..//kernel/core/tos_completion.c **** }
 115              		.loc 1 116 5 view .LVU30
 116:..//kernel/core/tos_completion.c **** }
 116              		.loc 1 116 12 is_stmt 0 view .LVU31
 117 004a 0020     		movs	r0, #0
 118 004c E2E7     		b	.L2
 119              	.LVL13:
 120              	.L12:
 100:..//kernel/core/tos_completion.c ****         return K_ERR_COMPLETION_OVERFLOW;
 121              		.loc 1 100 9 is_stmt 1 view .LVU32
 100:..//kernel/core/tos_completion.c ****         return K_ERR_COMPLETION_OVERFLOW;
 122              		.loc 1 100 9 view .LVU33
 123 004e FFF7FEFF 		bl	tos_cpu_cpsr_restore
 124              	.LVL14:
 101:..//kernel/core/tos_completion.c ****     }
 125              		.loc 1 101 9 view .LVU34
 101:..//kernel/core/tos_completion.c ****     }
 126              		.loc 1 101 16 is_stmt 0 view .LVU35
 127 0052 1920     		movs	r0, #25
 128 0054 DEE7     		b	.L2
 129              	.LVL15:
 130              	.L13:
 107:..//kernel/core/tos_completion.c ****         return K_ERR_NONE;
 131              		.loc 1 107 9 is_stmt 1 view .LVU36
 107:..//kernel/core/tos_completion.c ****         return K_ERR_NONE;
ARM GAS  C:\Users\tianx\AppData\Local\Temp\ccq9tyHl.s 			page 9


 132              		.loc 1 107 9 view .LVU37
 133 0056 3046     		mov	r0, r6
 134 0058 FFF7FEFF 		bl	tos_cpu_cpsr_restore
 135              	.LVL16:
 108:..//kernel/core/tos_completion.c ****     }
 136              		.loc 1 108 9 view .LVU38
 108:..//kernel/core/tos_completion.c ****     }
 137              		.loc 1 108 16 is_stmt 0 view .LVU39
 138 005c 0020     		movs	r0, #0
 139 005e D9E7     		b	.L2
 140              	.LVL17:
 141              	.L5:
 142              	.LCFI1:
 143              		.cfi_def_cfa_offset 0
 144              		.cfi_restore 4
 145              		.cfi_restore 5
 146              		.cfi_restore 6
 147              		.cfi_restore 14
  94:..//kernel/core/tos_completion.c ****     TOS_OBJ_VERIFY(completion, KNL_OBJ_TYPE_COMPLETION);
 148              		.loc 1 94 5 view .LVU40
 149 0060 40F24C40 		movw	r0, #1100
 150              	.LVL18:
 151              		.loc 1 117 1 view .LVU41
 152 0064 7047     		bx	lr
 153              		.cfi_endproc
 154              	.LFE114:
 156              		.section	.text.tos_completion_create,"ax",%progbits
 157              		.align	1
 158              		.global	tos_completion_create
 159              		.syntax unified
 160              		.thumb
 161              		.thumb_func
 162              		.fpu softvfp
 164              	tos_completion_create:
 165              	.LVL19:
 166              	.LFB110:
  21:..//kernel/core/tos_completion.c ****     TOS_PTR_SANITY_CHECK(completion);
 167              		.loc 1 21 1 is_stmt 1 view -0
 168              		.cfi_startproc
 169              		@ args = 0, pretend = 0, frame = 0
 170              		@ frame_needed = 0, uses_anonymous_args = 0
  22:..//kernel/core/tos_completion.c **** 
 171              		.loc 1 22 5 view .LVU43
  22:..//kernel/core/tos_completion.c **** 
 172              		.loc 1 22 5 view .LVU44
 173 0000 58B1     		cbz	r0, .L16
  21:..//kernel/core/tos_completion.c ****     TOS_PTR_SANITY_CHECK(completion);
 174              		.loc 1 21 1 is_stmt 0 view .LVU45
 175 0002 38B5     		push	{r3, r4, r5, lr}
 176              	.LCFI2:
 177              		.cfi_def_cfa_offset 16
 178              		.cfi_offset 3, -16
 179              		.cfi_offset 4, -12
 180              		.cfi_offset 5, -8
 181              		.cfi_offset 14, -4
 182 0004 0446     		mov	r4, r0
  24:..//kernel/core/tos_completion.c ****     pend_object_init(&completion->pend_obj);
ARM GAS  C:\Users\tianx\AppData\Local\Temp\ccq9tyHl.s 			page 10


 183              		.loc 1 24 5 is_stmt 1 view .LVU46
  24:..//kernel/core/tos_completion.c ****     pend_object_init(&completion->pend_obj);
 184              		.loc 1 24 22 is_stmt 0 view .LVU47
 185 0006 0025     		movs	r5, #0
 186 0008 8581     		strh	r5, [r0, #12]	@ movhi
  25:..//kernel/core/tos_completion.c ****     TOS_OBJ_INIT(completion, KNL_OBJ_TYPE_COMPLETION);
 187              		.loc 1 25 5 is_stmt 1 view .LVU48
 188 000a 0430     		adds	r0, r0, #4
 189              	.LVL20:
  25:..//kernel/core/tos_completion.c ****     TOS_OBJ_INIT(completion, KNL_OBJ_TYPE_COMPLETION);
 190              		.loc 1 25 5 is_stmt 0 view .LVU49
 191 000c FFF7FEFF 		bl	pend_object_init
 192              	.LVL21:
  26:..//kernel/core/tos_completion.c **** 
 193              		.loc 1 26 5 is_stmt 1 view .LVU50
 194              	.LBB18:
 195              	.LBI18:
 185:..//kernel/core/include/tos_sys.h **** }
 186:..//kernel/core/include/tos_sys.h **** 
 187:..//kernel/core/include/tos_sys.h **** __KNL__ __STATIC_INLINE__ void knl_object_init(knl_obj_t *knl_obj, knl_obj_type_t type)
 196              		.loc 2 187 32 view .LVU51
 197              	.LBB19:
 188:..//kernel/core/include/tos_sys.h **** {
 189:..//kernel/core/include/tos_sys.h ****     knl_obj->type = type;
 198              		.loc 2 189 5 view .LVU52
 199              		.loc 2 189 19 is_stmt 0 view .LVU53
 200 0010 41F6EE33 		movw	r3, #7150
 201 0014 6380     		strh	r3, [r4, #2]	@ movhi
 202              	.LVL22:
 203              		.loc 2 189 19 view .LVU54
 204              	.LBE19:
 205              	.LBE18:
  28:..//kernel/core/tos_completion.c **** }
 206              		.loc 1 28 5 is_stmt 1 view .LVU55
  28:..//kernel/core/tos_completion.c **** }
 207              		.loc 1 28 12 is_stmt 0 view .LVU56
 208 0016 2846     		mov	r0, r5
  29:..//kernel/core/tos_completion.c **** 
 209              		.loc 1 29 1 view .LVU57
 210 0018 38BD     		pop	{r3, r4, r5, pc}
 211              	.LVL23:
 212              	.L16:
 213              	.LCFI3:
 214              		.cfi_def_cfa_offset 0
 215              		.cfi_restore 3
 216              		.cfi_restore 4
 217              		.cfi_restore 5
 218              		.cfi_restore 14
  22:..//kernel/core/tos_completion.c **** 
 219              		.loc 1 22 5 view .LVU58
 220 001a 40F24C40 		movw	r0, #1100
 221              	.LVL24:
  29:..//kernel/core/tos_completion.c **** 
 222              		.loc 1 29 1 view .LVU59
 223 001e 7047     		bx	lr
 224              		.cfi_endproc
 225              	.LFE110:
ARM GAS  C:\Users\tianx\AppData\Local\Temp\ccq9tyHl.s 			page 11


 227              		.section	.text.tos_completion_destroy,"ax",%progbits
 228              		.align	1
 229              		.global	tos_completion_destroy
 230              		.syntax unified
 231              		.thumb
 232              		.thumb_func
 233              		.fpu softvfp
 235              	tos_completion_destroy:
 236              	.LVL25:
 237              	.LFB111:
  32:..//kernel/core/tos_completion.c ****     TOS_CPU_CPSR_ALLOC();
 238              		.loc 1 32 1 is_stmt 1 view -0
 239              		.cfi_startproc
 240              		@ args = 0, pretend = 0, frame = 0
 241              		@ frame_needed = 0, uses_anonymous_args = 0
  33:..//kernel/core/tos_completion.c **** 
 242              		.loc 1 33 5 view .LVU61
  35:..//kernel/core/tos_completion.c ****     TOS_OBJ_VERIFY(completion, KNL_OBJ_TYPE_COMPLETION);
 243              		.loc 1 35 5 view .LVU62
  35:..//kernel/core/tos_completion.c ****     TOS_OBJ_VERIFY(completion, KNL_OBJ_TYPE_COMPLETION);
 244              		.loc 1 35 5 view .LVU63
 245 0000 E8B1     		cbz	r0, .L23
  32:..//kernel/core/tos_completion.c ****     TOS_CPU_CPSR_ALLOC();
 246              		.loc 1 32 1 is_stmt 0 view .LVU64
 247 0002 70B5     		push	{r4, r5, r6, lr}
 248              	.LCFI4:
 249              		.cfi_def_cfa_offset 16
 250              		.cfi_offset 4, -16
 251              		.cfi_offset 5, -12
 252              		.cfi_offset 6, -8
 253              		.cfi_offset 14, -4
 254 0004 0446     		mov	r4, r0
  36:..//kernel/core/tos_completion.c **** 
 255              		.loc 1 36 5 is_stmt 1 view .LVU65
  36:..//kernel/core/tos_completion.c **** 
 256              		.loc 1 36 5 view .LVU66
 257              	.LVL26:
 258              	.LBB20:
 259              	.LBI20:
 182:..//kernel/core/include/tos_sys.h **** {
 260              		.loc 2 182 31 view .LVU67
 261              	.LBB21:
 184:..//kernel/core/include/tos_sys.h **** }
 262              		.loc 2 184 5 view .LVU68
 184:..//kernel/core/include/tos_sys.h **** }
 263              		.loc 2 184 19 is_stmt 0 view .LVU69
 264 0006 4188     		ldrh	r1, [r0, #2]
 265              	.LVL27:
 184:..//kernel/core/include/tos_sys.h **** }
 266              		.loc 2 184 19 view .LVU70
 267              	.LBE21:
 268              	.LBE20:
  36:..//kernel/core/tos_completion.c **** 
 269              		.loc 1 36 5 view .LVU71
 270 0008 41F6EE32 		movw	r2, #7150
 271 000c 9142     		cmp	r1, r2
 272 000e 02D0     		beq	.L29
ARM GAS  C:\Users\tianx\AppData\Local\Temp\ccq9tyHl.s 			page 12


 273 0010 40F24D40 		movw	r0, #1101
 274              	.LVL28:
 275              	.L22:
  50:..//kernel/core/tos_completion.c **** 
 276              		.loc 1 50 1 view .LVU72
 277 0014 70BD     		pop	{r4, r5, r6, pc}
 278              	.LVL29:
 279              	.L29:
  38:..//kernel/core/tos_completion.c **** 
 280              		.loc 1 38 5 is_stmt 1 view .LVU73
  38:..//kernel/core/tos_completion.c **** 
 281              		.loc 1 38 5 view .LVU74
 282 0016 FFF7FEFF 		bl	tos_cpu_cpsr_save
 283              	.LVL30:
  38:..//kernel/core/tos_completion.c **** 
 284              		.loc 1 38 5 is_stmt 0 view .LVU75
 285 001a 0646     		mov	r6, r0
 286              	.LVL31:
  40:..//kernel/core/tos_completion.c **** 
 287              		.loc 1 40 5 is_stmt 1 view .LVU76
 288 001c 251D     		adds	r5, r4, #4
 289 001e 0321     		movs	r1, #3
 290 0020 2846     		mov	r0, r5
 291              	.LVL32:
  40:..//kernel/core/tos_completion.c **** 
 292              		.loc 1 40 5 is_stmt 0 view .LVU77
 293 0022 FFF7FEFF 		bl	pend_wakeup_all
 294              	.LVL33:
  42:..//kernel/core/tos_completion.c **** 
 295              		.loc 1 42 5 is_stmt 1 view .LVU78
 296 0026 2846     		mov	r0, r5
 297 0028 FFF7FEFF 		bl	pend_object_deinit
 298              	.LVL34:
  44:..//kernel/core/tos_completion.c **** 
 299              		.loc 1 44 5 view .LVU79
 300              	.LBB22:
 301              	.LBI22:
 190:..//kernel/core/include/tos_sys.h **** }
 191:..//kernel/core/include/tos_sys.h **** 
 192:..//kernel/core/include/tos_sys.h **** __KNL__ __STATIC_INLINE__ void knl_object_deinit(knl_obj_t *knl_obj)
 302              		.loc 2 192 32 view .LVU80
 303              	.LBB23:
 193:..//kernel/core/include/tos_sys.h **** {
 194:..//kernel/core/include/tos_sys.h ****     knl_obj->type = KNL_OBJ_TYPE_NONE;
 304              		.loc 2 194 5 view .LVU81
 305              		.loc 2 194 19 is_stmt 0 view .LVU82
 306 002c 0025     		movs	r5, #0
 307 002e 6580     		strh	r5, [r4, #2]	@ movhi
 308              	.LVL35:
 309              		.loc 2 194 19 view .LVU83
 310              	.LBE23:
 311              	.LBE22:
  46:..//kernel/core/tos_completion.c ****     knl_sched();
 312              		.loc 1 46 5 is_stmt 1 view .LVU84
  46:..//kernel/core/tos_completion.c ****     knl_sched();
 313              		.loc 1 46 5 view .LVU85
 314 0030 3046     		mov	r0, r6
ARM GAS  C:\Users\tianx\AppData\Local\Temp\ccq9tyHl.s 			page 13


 315 0032 FFF7FEFF 		bl	tos_cpu_cpsr_restore
 316              	.LVL36:
  47:..//kernel/core/tos_completion.c **** 
 317              		.loc 1 47 5 view .LVU86
 318 0036 FFF7FEFF 		bl	knl_sched
 319              	.LVL37:
  49:..//kernel/core/tos_completion.c **** }
 320              		.loc 1 49 5 view .LVU87
  49:..//kernel/core/tos_completion.c **** }
 321              		.loc 1 49 12 is_stmt 0 view .LVU88
 322 003a 2846     		mov	r0, r5
 323 003c EAE7     		b	.L22
 324              	.LVL38:
 325              	.L23:
 326              	.LCFI5:
 327              		.cfi_def_cfa_offset 0
 328              		.cfi_restore 4
 329              		.cfi_restore 5
 330              		.cfi_restore 6
 331              		.cfi_restore 14
  35:..//kernel/core/tos_completion.c ****     TOS_OBJ_VERIFY(completion, KNL_OBJ_TYPE_COMPLETION);
 332              		.loc 1 35 5 view .LVU89
 333 003e 40F24C40 		movw	r0, #1100
 334              	.LVL39:
  50:..//kernel/core/tos_completion.c **** 
 335              		.loc 1 50 1 view .LVU90
 336 0042 7047     		bx	lr
 337              		.cfi_endproc
 338              	.LFE111:
 340              		.section	.text.tos_completion_pend_timed,"ax",%progbits
 341              		.align	1
 342              		.global	tos_completion_pend_timed
 343              		.syntax unified
 344              		.thumb
 345              		.thumb_func
 346              		.fpu softvfp
 348              	tos_completion_pend_timed:
 349              	.LVL40:
 350              	.LFB112:
  53:..//kernel/core/tos_completion.c ****     TOS_CPU_CPSR_ALLOC();
 351              		.loc 1 53 1 is_stmt 1 view -0
 352              		.cfi_startproc
 353              		@ args = 0, pretend = 0, frame = 0
 354              		@ frame_needed = 0, uses_anonymous_args = 0
  53:..//kernel/core/tos_completion.c ****     TOS_CPU_CPSR_ALLOC();
 355              		.loc 1 53 1 is_stmt 0 view .LVU92
 356 0000 2DE9F041 		push	{r4, r5, r6, r7, r8, lr}
 357              	.LCFI6:
 358              		.cfi_def_cfa_offset 24
 359              		.cfi_offset 4, -24
 360              		.cfi_offset 5, -20
 361              		.cfi_offset 6, -16
 362              		.cfi_offset 7, -12
 363              		.cfi_offset 8, -8
 364              		.cfi_offset 14, -4
 365 0004 0446     		mov	r4, r0
 366 0006 1646     		mov	r6, r2
ARM GAS  C:\Users\tianx\AppData\Local\Temp\ccq9tyHl.s 			page 14


 367 0008 1F46     		mov	r7, r3
  54:..//kernel/core/tos_completion.c **** 
 368              		.loc 1 54 5 is_stmt 1 view .LVU93
 369              	.LVL41:
  56:..//kernel/core/tos_completion.c ****     TOS_PTR_SANITY_CHECK(completion);
 370              		.loc 1 56 5 view .LVU94
  56:..//kernel/core/tos_completion.c ****     TOS_PTR_SANITY_CHECK(completion);
 371              		.loc 1 56 5 view .LVU95
 372 000a FFF7FEFF 		bl	knl_is_inirq
 373              	.LVL42:
  56:..//kernel/core/tos_completion.c ****     TOS_PTR_SANITY_CHECK(completion);
 374              		.loc 1 56 5 is_stmt 0 view .LVU96
 375 000e C0BB     		cbnz	r0, .L35
  57:..//kernel/core/tos_completion.c ****     TOS_OBJ_VERIFY(completion, KNL_OBJ_TYPE_COMPLETION);
 376              		.loc 1 57 5 is_stmt 1 view .LVU97
  57:..//kernel/core/tos_completion.c ****     TOS_OBJ_VERIFY(completion, KNL_OBJ_TYPE_COMPLETION);
 377              		.loc 1 57 5 view .LVU98
 378 0010 D4B3     		cbz	r4, .L36
  58:..//kernel/core/tos_completion.c **** 
 379              		.loc 1 58 5 view .LVU99
  58:..//kernel/core/tos_completion.c **** 
 380              		.loc 1 58 5 view .LVU100
 381              	.LVL43:
 382              	.LBB24:
 383              	.LBI24:
 182:..//kernel/core/include/tos_sys.h **** {
 384              		.loc 2 182 31 view .LVU101
 385              	.LBB25:
 184:..//kernel/core/include/tos_sys.h **** }
 386              		.loc 2 184 5 view .LVU102
 184:..//kernel/core/include/tos_sys.h **** }
 387              		.loc 2 184 19 is_stmt 0 view .LVU103
 388 0012 6288     		ldrh	r2, [r4, #2]
 389              	.LVL44:
 184:..//kernel/core/include/tos_sys.h **** }
 390              		.loc 2 184 19 view .LVU104
 391              	.LBE25:
 392              	.LBE24:
  58:..//kernel/core/tos_completion.c **** 
 393              		.loc 1 58 5 view .LVU105
 394 0014 41F6EE33 		movw	r3, #7150
 395 0018 9A42     		cmp	r2, r3
 396 001a 03D0     		beq	.L39
 397 001c 40F24D40 		movw	r0, #1101
 398              	.LVL45:
 399              	.L31:
  83:..//kernel/core/tos_completion.c **** 
 400              		.loc 1 83 1 view .LVU106
 401 0020 BDE8F081 		pop	{r4, r5, r6, r7, r8, pc}
 402              	.LVL46:
 403              	.L39:
  60:..//kernel/core/tos_completion.c **** 
 404              		.loc 1 60 5 is_stmt 1 view .LVU107
  60:..//kernel/core/tos_completion.c **** 
 405              		.loc 1 60 5 view .LVU108
 406 0024 FFF7FEFF 		bl	tos_cpu_cpsr_save
 407              	.LVL47:
ARM GAS  C:\Users\tianx\AppData\Local\Temp\ccq9tyHl.s 			page 15


 408 0028 0546     		mov	r5, r0
 409              	.LVL48:
  62:..//kernel/core/tos_completion.c ****         TOS_CPU_INT_ENABLE();
 410              		.loc 1 62 5 view .LVU109
  62:..//kernel/core/tos_completion.c ****         TOS_CPU_INT_ENABLE();
 411              		.loc 1 62 19 is_stmt 0 view .LVU110
 412 002a A389     		ldrh	r3, [r4, #12]
  62:..//kernel/core/tos_completion.c ****         TOS_CPU_INT_ENABLE();
 413              		.loc 1 62 8 view .LVU111
 414 002c D3B9     		cbnz	r3, .L40
  67:..//kernel/core/tos_completion.c ****         TOS_CPU_INT_ENABLE();
 415              		.loc 1 67 5 is_stmt 1 view .LVU112
  67:..//kernel/core/tos_completion.c ****         TOS_CPU_INT_ENABLE();
 416              		.loc 1 67 8 is_stmt 0 view .LVU113
 417 002e 56EA0703 		orrs	r3, r6, r7
 418 0032 1BD0     		beq	.L41
  72:..//kernel/core/tos_completion.c ****         TOS_CPU_INT_ENABLE();
 419              		.loc 1 72 5 is_stmt 1 view .LVU114
  72:..//kernel/core/tos_completion.c ****         TOS_CPU_INT_ENABLE();
 420              		.loc 1 72 9 is_stmt 0 view .LVU115
 421 0034 FFF7FEFF 		bl	knl_is_sched_locked
 422              	.LVL49:
  72:..//kernel/core/tos_completion.c ****         TOS_CPU_INT_ENABLE();
 423              		.loc 1 72 8 view .LVU116
 424 0038 E8B9     		cbnz	r0, .L42
  77:..//kernel/core/tos_completion.c **** 
 425              		.loc 1 77 5 is_stmt 1 view .LVU117
 426 003a DFF85480 		ldr	r8, .L43
 427 003e 3246     		mov	r2, r6
 428 0040 3B46     		mov	r3, r7
 429 0042 211D     		adds	r1, r4, #4
 430 0044 D8F80000 		ldr	r0, [r8]
 431 0048 FFF7FEFF 		bl	pend_task_block
 432              	.LVL50:
  79:..//kernel/core/tos_completion.c ****     knl_sched();
 433              		.loc 1 79 5 view .LVU118
  79:..//kernel/core/tos_completion.c ****     knl_sched();
 434              		.loc 1 79 5 view .LVU119
 435 004c 2846     		mov	r0, r5
 436 004e FFF7FEFF 		bl	tos_cpu_cpsr_restore
 437              	.LVL51:
  80:..//kernel/core/tos_completion.c **** 
 438              		.loc 1 80 5 view .LVU120
 439 0052 FFF7FEFF 		bl	knl_sched
 440              	.LVL52:
  82:..//kernel/core/tos_completion.c **** }
 441              		.loc 1 82 5 view .LVU121
  82:..//kernel/core/tos_completion.c **** }
 442              		.loc 1 82 40 is_stmt 0 view .LVU122
 443 0056 D8F80030 		ldr	r3, [r8]
  82:..//kernel/core/tos_completion.c **** }
 444              		.loc 1 82 12 view .LVU123
 445 005a 93F86800 		ldrb	r0, [r3, #104]	@ zero_extendqisi2
 446 005e FFF7FEFF 		bl	pend_state2errno
 447              	.LVL53:
 448 0062 DDE7     		b	.L31
 449              	.LVL54:
ARM GAS  C:\Users\tianx\AppData\Local\Temp\ccq9tyHl.s 			page 16


 450              	.L40:
  63:..//kernel/core/tos_completion.c ****         return K_ERR_NONE;
 451              		.loc 1 63 9 is_stmt 1 view .LVU124
  63:..//kernel/core/tos_completion.c ****         return K_ERR_NONE;
 452              		.loc 1 63 9 view .LVU125
 453 0064 FFF7FEFF 		bl	tos_cpu_cpsr_restore
 454              	.LVL55:
  64:..//kernel/core/tos_completion.c ****     }
 455              		.loc 1 64 9 view .LVU126
  64:..//kernel/core/tos_completion.c ****     }
 456              		.loc 1 64 16 is_stmt 0 view .LVU127
 457 0068 0020     		movs	r0, #0
 458 006a D9E7     		b	.L31
 459              	.LVL56:
 460              	.L41:
  68:..//kernel/core/tos_completion.c ****         return K_ERR_PEND_NOWAIT;
 461              		.loc 1 68 9 is_stmt 1 view .LVU128
  68:..//kernel/core/tos_completion.c ****         return K_ERR_PEND_NOWAIT;
 462              		.loc 1 68 9 view .LVU129
 463 006c FFF7FEFF 		bl	tos_cpu_cpsr_restore
 464              	.LVL57:
  69:..//kernel/core/tos_completion.c ****     }
 465              		.loc 1 69 9 view .LVU130
  69:..//kernel/core/tos_completion.c ****     }
 466              		.loc 1 69 16 is_stmt 0 view .LVU131
 467 0070 4FF49660 		mov	r0, #1200
 468 0074 D4E7     		b	.L31
 469              	.L42:
  73:..//kernel/core/tos_completion.c ****         return K_ERR_PEND_SCHED_LOCKED;
 470              		.loc 1 73 9 is_stmt 1 view .LVU132
  73:..//kernel/core/tos_completion.c ****         return K_ERR_PEND_SCHED_LOCKED;
 471              		.loc 1 73 9 view .LVU133
 472 0076 2846     		mov	r0, r5
 473 0078 FFF7FEFF 		bl	tos_cpu_cpsr_restore
 474              	.LVL58:
  74:..//kernel/core/tos_completion.c ****     }
 475              		.loc 1 74 9 view .LVU134
  74:..//kernel/core/tos_completion.c ****     }
 476              		.loc 1 74 16 is_stmt 0 view .LVU135
 477 007c 40F2B140 		movw	r0, #1201
 478 0080 CEE7     		b	.L31
 479              	.LVL59:
 480              	.L35:
  56:..//kernel/core/tos_completion.c ****     TOS_PTR_SANITY_CHECK(completion);
 481              		.loc 1 56 5 view .LVU136
 482 0082 4FF4C870 		mov	r0, #400
 483 0086 CBE7     		b	.L31
 484              	.L36:
  57:..//kernel/core/tos_completion.c ****     TOS_OBJ_VERIFY(completion, KNL_OBJ_TYPE_COMPLETION);
 485              		.loc 1 57 5 view .LVU137
 486 0088 40F24C40 		movw	r0, #1100
 487 008c C8E7     		b	.L31
 488              	.L44:
 489 008e 00BF     		.align	2
 490              	.L43:
 491 0090 00000000 		.word	k_curr_task
 492              		.cfi_endproc
ARM GAS  C:\Users\tianx\AppData\Local\Temp\ccq9tyHl.s 			page 17


 493              	.LFE112:
 495              		.section	.text.tos_completion_pend,"ax",%progbits
 496              		.align	1
 497              		.global	tos_completion_pend
 498              		.syntax unified
 499              		.thumb
 500              		.thumb_func
 501              		.fpu softvfp
 503              	tos_completion_pend:
 504              	.LVL60:
 505              	.LFB113:
  86:..//kernel/core/tos_completion.c ****     return tos_completion_pend_timed(completion, TOS_TIME_FOREVER);
 506              		.loc 1 86 1 is_stmt 1 view -0
 507              		.cfi_startproc
 508              		@ args = 0, pretend = 0, frame = 0
 509              		@ frame_needed = 0, uses_anonymous_args = 0
  86:..//kernel/core/tos_completion.c ****     return tos_completion_pend_timed(completion, TOS_TIME_FOREVER);
 510              		.loc 1 86 1 is_stmt 0 view .LVU139
 511 0000 08B5     		push	{r3, lr}
 512              	.LCFI7:
 513              		.cfi_def_cfa_offset 8
 514              		.cfi_offset 3, -8
 515              		.cfi_offset 14, -4
  87:..//kernel/core/tos_completion.c **** }
 516              		.loc 1 87 5 is_stmt 1 view .LVU140
  87:..//kernel/core/tos_completion.c **** }
 517              		.loc 1 87 12 is_stmt 0 view .LVU141
 518 0002 4FF0FF32 		mov	r2, #-1
 519 0006 4FF0FF33 		mov	r3, #-1
 520 000a FFF7FEFF 		bl	tos_completion_pend_timed
 521              	.LVL61:
  88:..//kernel/core/tos_completion.c **** 
 522              		.loc 1 88 1 view .LVU142
 523 000e 08BD     		pop	{r3, pc}
 524              		.cfi_endproc
 525              	.LFE113:
 527              		.section	.text.tos_completion_post,"ax",%progbits
 528              		.align	1
 529              		.global	tos_completion_post
 530              		.syntax unified
 531              		.thumb
 532              		.thumb_func
 533              		.fpu softvfp
 535              	tos_completion_post:
 536              	.LVL62:
 537              	.LFB115:
 118:..//kernel/core/tos_completion.c **** 
 119:..//kernel/core/tos_completion.c **** __API__ k_err_t tos_completion_post(k_completion_t *completion)
 120:..//kernel/core/tos_completion.c **** {
 538              		.loc 1 120 1 is_stmt 1 view -0
 539              		.cfi_startproc
 540              		@ args = 0, pretend = 0, frame = 0
 541              		@ frame_needed = 0, uses_anonymous_args = 0
 542              		.loc 1 120 1 is_stmt 0 view .LVU144
 543 0000 08B5     		push	{r3, lr}
 544              	.LCFI8:
 545              		.cfi_def_cfa_offset 8
ARM GAS  C:\Users\tianx\AppData\Local\Temp\ccq9tyHl.s 			page 18


 546              		.cfi_offset 3, -8
 547              		.cfi_offset 14, -4
 121:..//kernel/core/tos_completion.c ****     return completion_do_post(completion, OPT_POST_ONE);
 548              		.loc 1 121 5 is_stmt 1 view .LVU145
 549              		.loc 1 121 12 is_stmt 0 view .LVU146
 550 0002 0021     		movs	r1, #0
 551 0004 FFF7FEFF 		bl	completion_do_post
 552              	.LVL63:
 122:..//kernel/core/tos_completion.c **** }
 553              		.loc 1 122 1 view .LVU147
 554 0008 08BD     		pop	{r3, pc}
 555              		.cfi_endproc
 556              	.LFE115:
 558              		.section	.text.tos_completion_post_all,"ax",%progbits
 559              		.align	1
 560              		.global	tos_completion_post_all
 561              		.syntax unified
 562              		.thumb
 563              		.thumb_func
 564              		.fpu softvfp
 566              	tos_completion_post_all:
 567              	.LVL64:
 568              	.LFB116:
 123:..//kernel/core/tos_completion.c **** 
 124:..//kernel/core/tos_completion.c **** __API__ k_err_t tos_completion_post_all(k_completion_t *completion)
 125:..//kernel/core/tos_completion.c **** {
 569              		.loc 1 125 1 is_stmt 1 view -0
 570              		.cfi_startproc
 571              		@ args = 0, pretend = 0, frame = 0
 572              		@ frame_needed = 0, uses_anonymous_args = 0
 573              		.loc 1 125 1 is_stmt 0 view .LVU149
 574 0000 08B5     		push	{r3, lr}
 575              	.LCFI9:
 576              		.cfi_def_cfa_offset 8
 577              		.cfi_offset 3, -8
 578              		.cfi_offset 14, -4
 126:..//kernel/core/tos_completion.c ****     return completion_do_post(completion, OPT_POST_ALL);
 579              		.loc 1 126 5 is_stmt 1 view .LVU150
 580              		.loc 1 126 12 is_stmt 0 view .LVU151
 581 0002 0121     		movs	r1, #1
 582 0004 FFF7FEFF 		bl	completion_do_post
 583              	.LVL65:
 127:..//kernel/core/tos_completion.c **** }
 584              		.loc 1 127 1 view .LVU152
 585 0008 08BD     		pop	{r3, pc}
 586              		.cfi_endproc
 587              	.LFE116:
 589              		.section	.text.tos_completion_reset,"ax",%progbits
 590              		.align	1
 591              		.global	tos_completion_reset
 592              		.syntax unified
 593              		.thumb
 594              		.thumb_func
 595              		.fpu softvfp
 597              	tos_completion_reset:
 598              	.LVL66:
 599              	.LFB117:
ARM GAS  C:\Users\tianx\AppData\Local\Temp\ccq9tyHl.s 			page 19


 128:..//kernel/core/tos_completion.c **** 
 129:..//kernel/core/tos_completion.c **** __API__ k_err_t tos_completion_reset(k_completion_t *completion)
 130:..//kernel/core/tos_completion.c **** {
 600              		.loc 1 130 1 is_stmt 1 view -0
 601              		.cfi_startproc
 602              		@ args = 0, pretend = 0, frame = 0
 603              		@ frame_needed = 0, uses_anonymous_args = 0
 131:..//kernel/core/tos_completion.c ****     TOS_CPU_CPSR_ALLOC();
 604              		.loc 1 131 5 view .LVU154
 132:..//kernel/core/tos_completion.c **** 
 133:..//kernel/core/tos_completion.c ****     TOS_PTR_SANITY_CHECK(completion);
 605              		.loc 1 133 5 view .LVU155
 606              		.loc 1 133 5 view .LVU156
 607 0000 88B1     		cbz	r0, .L53
 130:..//kernel/core/tos_completion.c ****     TOS_CPU_CPSR_ALLOC();
 608              		.loc 1 130 1 is_stmt 0 view .LVU157
 609 0002 38B5     		push	{r3, r4, r5, lr}
 610              	.LCFI10:
 611              		.cfi_def_cfa_offset 16
 612              		.cfi_offset 3, -16
 613              		.cfi_offset 4, -12
 614              		.cfi_offset 5, -8
 615              		.cfi_offset 14, -4
 616 0004 0546     		mov	r5, r0
 134:..//kernel/core/tos_completion.c ****     TOS_OBJ_VERIFY(completion, KNL_OBJ_TYPE_COMPLETION);
 617              		.loc 1 134 5 is_stmt 1 view .LVU158
 618              		.loc 1 134 5 view .LVU159
 619              	.LVL67:
 620              	.LBB26:
 621              	.LBI26:
 182:..//kernel/core/include/tos_sys.h **** {
 622              		.loc 2 182 31 view .LVU160
 623              	.LBB27:
 184:..//kernel/core/include/tos_sys.h **** }
 624              		.loc 2 184 5 view .LVU161
 184:..//kernel/core/include/tos_sys.h **** }
 625              		.loc 2 184 19 is_stmt 0 view .LVU162
 626 0006 4188     		ldrh	r1, [r0, #2]
 627              	.LVL68:
 184:..//kernel/core/include/tos_sys.h **** }
 628              		.loc 2 184 19 view .LVU163
 629              	.LBE27:
 630              	.LBE26:
 631              		.loc 1 134 5 view .LVU164
 632 0008 41F6EE32 		movw	r2, #7150
 633 000c 9142     		cmp	r1, r2
 634 000e 02D0     		beq	.L59
 635 0010 40F24D40 		movw	r0, #1101
 636              	.LVL69:
 637              	.L52:
 135:..//kernel/core/tos_completion.c **** 
 136:..//kernel/core/tos_completion.c ****     TOS_CPU_INT_DISABLE();
 137:..//kernel/core/tos_completion.c ****     completion->done = (completion_done_t)0u;
 138:..//kernel/core/tos_completion.c ****     TOS_CPU_INT_ENABLE();
 139:..//kernel/core/tos_completion.c **** 
 140:..//kernel/core/tos_completion.c ****     return K_ERR_NONE;
 141:..//kernel/core/tos_completion.c **** }
ARM GAS  C:\Users\tianx\AppData\Local\Temp\ccq9tyHl.s 			page 20


 638              		.loc 1 141 1 view .LVU165
 639 0014 38BD     		pop	{r3, r4, r5, pc}
 640              	.LVL70:
 641              	.L59:
 136:..//kernel/core/tos_completion.c ****     completion->done = (completion_done_t)0u;
 642              		.loc 1 136 5 is_stmt 1 view .LVU166
 136:..//kernel/core/tos_completion.c ****     completion->done = (completion_done_t)0u;
 643              		.loc 1 136 5 view .LVU167
 644 0016 FFF7FEFF 		bl	tos_cpu_cpsr_save
 645              	.LVL71:
 137:..//kernel/core/tos_completion.c ****     TOS_CPU_INT_ENABLE();
 646              		.loc 1 137 5 view .LVU168
 137:..//kernel/core/tos_completion.c ****     TOS_CPU_INT_ENABLE();
 647              		.loc 1 137 22 is_stmt 0 view .LVU169
 648 001a 0024     		movs	r4, #0
 649 001c AC81     		strh	r4, [r5, #12]	@ movhi
 138:..//kernel/core/tos_completion.c **** 
 650              		.loc 1 138 5 is_stmt 1 view .LVU170
 138:..//kernel/core/tos_completion.c **** 
 651              		.loc 1 138 5 view .LVU171
 652 001e FFF7FEFF 		bl	tos_cpu_cpsr_restore
 653              	.LVL72:
 140:..//kernel/core/tos_completion.c **** }
 654              		.loc 1 140 5 view .LVU172
 140:..//kernel/core/tos_completion.c **** }
 655              		.loc 1 140 12 is_stmt 0 view .LVU173
 656 0022 2046     		mov	r0, r4
 657 0024 F6E7     		b	.L52
 658              	.LVL73:
 659              	.L53:
 660              	.LCFI11:
 661              		.cfi_def_cfa_offset 0
 662              		.cfi_restore 3
 663              		.cfi_restore 4
 664              		.cfi_restore 5
 665              		.cfi_restore 14
 133:..//kernel/core/tos_completion.c ****     TOS_OBJ_VERIFY(completion, KNL_OBJ_TYPE_COMPLETION);
 666              		.loc 1 133 5 view .LVU174
 667 0026 40F24C40 		movw	r0, #1100
 668              	.LVL74:
 669              		.loc 1 141 1 view .LVU175
 670 002a 7047     		bx	lr
 671              		.cfi_endproc
 672              	.LFE117:
 674              		.section	.text.tos_completion_is_done,"ax",%progbits
 675              		.align	1
 676              		.global	tos_completion_is_done
 677              		.syntax unified
 678              		.thumb
 679              		.thumb_func
 680              		.fpu softvfp
 682              	tos_completion_is_done:
 683              	.LVL75:
 684              	.LFB118:
 142:..//kernel/core/tos_completion.c **** 
 143:..//kernel/core/tos_completion.c **** __API__ int tos_completion_is_done(k_completion_t *completion)
 144:..//kernel/core/tos_completion.c **** {
ARM GAS  C:\Users\tianx\AppData\Local\Temp\ccq9tyHl.s 			page 21


 685              		.loc 1 144 1 is_stmt 1 view -0
 686              		.cfi_startproc
 687              		@ args = 0, pretend = 0, frame = 0
 688              		@ frame_needed = 0, uses_anonymous_args = 0
 689              		.loc 1 144 1 is_stmt 0 view .LVU177
 690 0000 10B5     		push	{r4, lr}
 691              	.LCFI12:
 692              		.cfi_def_cfa_offset 8
 693              		.cfi_offset 4, -8
 694              		.cfi_offset 14, -4
 145:..//kernel/core/tos_completion.c ****     TOS_CPU_CPSR_ALLOC();
 695              		.loc 1 145 5 is_stmt 1 view .LVU178
 696              	.LVL76:
 146:..//kernel/core/tos_completion.c ****     int is_done = K_FALSE;
 697              		.loc 1 146 5 view .LVU179
 147:..//kernel/core/tos_completion.c **** 
 148:..//kernel/core/tos_completion.c ****     TOS_PTR_SANITY_CHECK_RC(completion, K_FALSE);
 698              		.loc 1 148 5 view .LVU180
 699              		.loc 1 148 5 view .LVU181
 700 0002 B0FA80F4 		clz	r4, r0
 701 0006 6409     		lsrs	r4, r4, #5
 702 0008 84B9     		cbnz	r4, .L62
 149:..//kernel/core/tos_completion.c ****     TOS_OBJ_VERIFY_RC(completion, KNL_OBJ_TYPE_COMPLETION, K_FALSE);
 703              		.loc 1 149 5 view .LVU182
 704              		.loc 1 149 5 view .LVU183
 705              	.LVL77:
 706              	.LBB28:
 707              	.LBI28:
 182:..//kernel/core/include/tos_sys.h **** {
 708              		.loc 2 182 31 view .LVU184
 709              	.LBB29:
 184:..//kernel/core/include/tos_sys.h **** }
 710              		.loc 2 184 5 view .LVU185
 184:..//kernel/core/include/tos_sys.h **** }
 711              		.loc 2 184 19 is_stmt 0 view .LVU186
 712 000a 4188     		ldrh	r1, [r0, #2]
 713              	.LVL78:
 184:..//kernel/core/include/tos_sys.h **** }
 714              		.loc 2 184 19 view .LVU187
 715              	.LBE29:
 716              	.LBE28:
 717              		.loc 1 149 5 view .LVU188
 718 000c 41F6EE32 		movw	r2, #7150
 719 0010 9142     		cmp	r1, r2
 720 0012 01D0     		beq	.L64
 721              	.LVL79:
 722              	.L60:
 150:..//kernel/core/tos_completion.c **** 
 151:..//kernel/core/tos_completion.c ****     TOS_CPU_INT_DISABLE();
 152:..//kernel/core/tos_completion.c ****     is_done = (completion->done > (completion_done_t)0u ? K_TRUE : K_FALSE);
 153:..//kernel/core/tos_completion.c ****     TOS_CPU_INT_ENABLE();
 154:..//kernel/core/tos_completion.c **** 
 155:..//kernel/core/tos_completion.c ****     return is_done;
 156:..//kernel/core/tos_completion.c **** }
 723              		.loc 1 156 1 view .LVU189
 724 0014 2046     		mov	r0, r4
 725 0016 10BD     		pop	{r4, pc}
ARM GAS  C:\Users\tianx\AppData\Local\Temp\ccq9tyHl.s 			page 22


 726              	.LVL80:
 727              	.L64:
 728              		.loc 1 156 1 view .LVU190
 729 0018 0446     		mov	r4, r0
 151:..//kernel/core/tos_completion.c ****     is_done = (completion->done > (completion_done_t)0u ? K_TRUE : K_FALSE);
 730              		.loc 1 151 5 is_stmt 1 view .LVU191
 151:..//kernel/core/tos_completion.c ****     is_done = (completion->done > (completion_done_t)0u ? K_TRUE : K_FALSE);
 731              		.loc 1 151 5 view .LVU192
 732 001a FFF7FEFF 		bl	tos_cpu_cpsr_save
 733              	.LVL81:
 152:..//kernel/core/tos_completion.c ****     TOS_CPU_INT_ENABLE();
 734              		.loc 1 152 5 view .LVU193
 152:..//kernel/core/tos_completion.c ****     TOS_CPU_INT_ENABLE();
 735              		.loc 1 152 26 is_stmt 0 view .LVU194
 736 001e A489     		ldrh	r4, [r4, #12]
 737              	.LVL82:
 152:..//kernel/core/tos_completion.c ****     TOS_CPU_INT_ENABLE();
 738              		.loc 1 152 66 view .LVU195
 739 0020 0034     		adds	r4, r4, #0
 740 0022 18BF     		it	ne
 741 0024 0124     		movne	r4, #1
 742              	.LVL83:
 153:..//kernel/core/tos_completion.c **** 
 743              		.loc 1 153 5 is_stmt 1 view .LVU196
 153:..//kernel/core/tos_completion.c **** 
 744              		.loc 1 153 5 view .LVU197
 745 0026 FFF7FEFF 		bl	tos_cpu_cpsr_restore
 746              	.LVL84:
 155:..//kernel/core/tos_completion.c **** }
 747              		.loc 1 155 5 view .LVU198
 155:..//kernel/core/tos_completion.c **** }
 748              		.loc 1 155 12 is_stmt 0 view .LVU199
 749 002a F3E7     		b	.L60
 750              	.LVL85:
 751              	.L62:
 148:..//kernel/core/tos_completion.c ****     TOS_OBJ_VERIFY_RC(completion, KNL_OBJ_TYPE_COMPLETION, K_FALSE);
 752              		.loc 1 148 5 view .LVU200
 753 002c 0024     		movs	r4, #0
 754 002e F1E7     		b	.L60
 755              		.cfi_endproc
 756              	.LFE118:
 758              		.text
 759              	.Letext0:
 760              		.file 3 "..//kernel/core/include/tos_kerr.h"
 761              		.file 4 "d:\\arm_gcc\\8 2019-q3-update\\arm-none-eabi\\include\\machine\\_default_types.h"
 762              		.file 5 "d:\\arm_gcc\\8 2019-q3-update\\arm-none-eabi\\include\\sys\\_stdint.h"
 763              		.file 6 "Drivers/CMSIS/Include/core_cm3.h"
 764              		.file 7 "Drivers/CMSIS/Device/ST/STM32F1xx/Include/system_stm32f1xx.h"
 765              		.file 8 "d:\\arm_gcc\\8 2019-q3-update\\lib\\gcc\\arm-none-eabi\\8.3.1\\include\\stddef.h"
 766              		.file 9 "d:\\arm_gcc\\8 2019-q3-update\\arm-none-eabi\\include\\sys\\_types.h"
 767              		.file 10 "d:\\arm_gcc\\8 2019-q3-update\\arm-none-eabi\\include\\sys\\reent.h"
 768              		.file 11 "d:\\arm_gcc\\8 2019-q3-update\\arm-none-eabi\\include\\sys\\lock.h"
 769              		.file 12 "Drivers/STM32F1xx_HAL_Driver/Inc/stm32f1xx_hal.h"
 770              		.file 13 "..//arch/arm/arm-v7m/common/include/tos_cpu_types.h"
 771              		.file 14 "..//kernel/core/include/tos_ktypes.h"
 772              		.file 15 "..//kernel/core/include/tos_task.h"
 773              		.file 16 "d:\\arm_gcc\\8 2019-q3-update\\arm-none-eabi\\include\\stdlib.h"
ARM GAS  C:\Users\tianx\AppData\Local\Temp\ccq9tyHl.s 			page 23


 774              		.file 17 "..//kernel/core/include/tos_list.h"
 775              		.file 18 "..//kernel/core/include/tos_pend.h"
 776              		.file 19 "..//kernel/core/include/tos_completion.h"
 777              		.file 20 "..//kernel/core/include/tos_timer.h"
 778              		.file 21 "..//kernel/core/include/tos_mmheap.h"
 779              		.file 22 "..//kernel/core/include/tos_sched.h"
 780              		.file 23 "..//kernel/core/include/tos_global.h"
 781              		.file 24 "..//arch/arm/arm-v7m/common/include/tos_cpu.h"
ARM GAS  C:\Users\tianx\AppData\Local\Temp\ccq9tyHl.s 			page 24

